
Segway.elf:     file format elf32-avr32

Sections:
Idx Name          Size      VMA       LMA       File off  Algn
  0 .reset        00000008  80000000  80000000  00000400  2**2
                  CONTENTS, ALLOC, LOAD, READONLY, CODE
  1 .rela.got     00000000  80000008  80000008  00000408  2**2
                  CONTENTS, ALLOC, LOAD, READONLY, DATA
  2 .text         0000cf1a  80000008  80000008  00000408  2**2
                  CONTENTS, ALLOC, LOAD, READONLY, CODE
  3 .exception    00000200  8000d000  8000d000  0000d400  2**9
                  CONTENTS, ALLOC, LOAD, READONLY, CODE
  4 .rodata       00000efc  8000d200  8000d200  0000d600  2**2
                  CONTENTS, ALLOC, LOAD, READONLY, DATA
  5 .dalign       00000004  8000e0fc  8000e0fc  0000e4fc  2**0
                  ALLOC
  6 .gcc_except_table 00000088  00000004  8000e100  0000e804  2**2
                  CONTENTS, ALLOC, LOAD, DATA
  7 .ctors        00000004  0000008c  8000e188  0000e88c  2**2
                  CONTENTS, ALLOC, LOAD, DATA
  8 .data         00000548  00000090  8000e18c  0000e890  2**2
                  CONTENTS, ALLOC, LOAD, DATA
  9 .bss          000009b0  000005d8  8000e6d4  0000edd8  2**2
                  ALLOC
 10 .comment      00000030  00000000  00000000  0000edd8  2**0
                  CONTENTS, READONLY
 11 .debug_aranges 00001100  00000000  00000000  0000ee08  2**3
                  CONTENTS, READONLY, DEBUGGING
 12 .debug_pubnames 00002acc  00000000  00000000  0000ff08  2**0
                  CONTENTS, READONLY, DEBUGGING
 13 .debug_info   000283b7  00000000  00000000  000129d4  2**0
                  CONTENTS, READONLY, DEBUGGING
 14 .debug_abbrev 00008554  00000000  00000000  0003ad8b  2**0
                  CONTENTS, READONLY, DEBUGGING
 15 .debug_line   0000f637  00000000  00000000  000432df  2**0
                  CONTENTS, READONLY, DEBUGGING
 16 .debug_frame  00003060  00000000  00000000  00052918  2**2
                  CONTENTS, READONLY, DEBUGGING
 17 .debug_str    000077f2  00000000  00000000  00055978  2**0
                  CONTENTS, READONLY, DEBUGGING
 18 .debug_loc    0000b9e6  00000000  00000000  0005d16a  2**0
                  CONTENTS, READONLY, DEBUGGING
 19 .debug_macinfo 0001035c  00000000  00000000  00068b50  2**0
                  CONTENTS, READONLY, DEBUGGING
 20 .stack        00001000  00007000  00007000  00000400  2**0
                  ALLOC
 21 .debug_ranges 00001568  00000000  00000000  00078eb0  2**3
                  CONTENTS, READONLY, DEBUGGING

Disassembly of section .reset:

80000000 <_start>:

  .global _start
  .type _start, @function
_start:
  // Jump to the C runtime startup routine.
  lda.w   pc, _stext
80000000:	48 1f       	lddpc	pc,80000004 <_start+0x4>
80000002:	00 00       	add	r0,r0
80000004:	80 00       	ld.sh	r0,r0[0x0]
80000006:	19 14       	ld.sh	r4,r12++

Disassembly of section .text:

80000008 <_ZN6Segway22MYAVR32_GPIO_SIZE_PORTE>:
80000008:	00 00 01 00                                         ....

8000000c <_ZN6Segway24MYAVR32_GPIO_OFFSET_GPERE>:
8000000c:	00 00 00 00                                         ....

80000010 <_ZN6Segway24MYAVR32_GPIO_OFFSET_ODERE>:
80000010:	00 00 00 40                                         ...@

80000014 <_ZN6Segway23MYAVR32_GPIO_OFFSET_OVRE>:
80000014:	00 00 00 50 54 69 76 53 65 67 31 33 00 00 00 00     ...PTivSeg13....

80000024 <_ZN6Segway21TIMER_DELTA_T_SECONDSE>:
80000024:	3c 23 d7 0a                                         <#..

80000028 <_ZN6Segway37ALGCFG_COMPL_FILTER_ACCELANGLE_FACTORE>:
80000028:	3c a3 d7 0a                                         <...

8000002c <_ZN6Segway40MULTIPLEXSENSOR_BATTERYVOLTAGE_FACTOR_MVE>:
8000002c:	42 00 00 00                                         B...

80000030 <_ZN6Segway22PWM_TO_DRIVESUM_FACTORE>:
80000030:	43 b3 80 00                                         C...

80000034 <_ZN6Segway25SPEEDLIMIT_START_DRIVESUME>:
80000034:	46 0f 0a 00                                         F...

80000038 <_ZN6Segway23SPEEDLIMIT_END_DRIVESUME>:
80000038:	46 8f 0a 00 0d 0a 62 61 74 74 56 6f 6c 74 3a 20     F.....battVolt: 
80000048:	00 00 00 00 20 6d 56 00 0d 0a 44 72 69 76 65 53     .... mV...DriveS
80000058:	75 6d 3a 20 00 00 00 00 0d 0a 53 74 65 65 72 69     um: ......Steeri
80000068:	6e 67 50 57 4d 3a 20 00 0d 0a 4c 53 70 65 65 64     ngPWM: ...LSpeed
80000078:	3a 20 00 00 0d 0a 52 53 70 65 65 64 3a 20 00 00     : ....RSpeed: ..
80000088:	0d 0a 43 46 54 69 6c 74 41 6e 67 6c 65 3a 20 00     ..CFTiltAngle: .
80000098:	0d 0a 53 70 65 65 64 4c 69 6d 69 74 54 69 6c 74     ..SpeedLimitTilt
800000a8:	41 6e 67 6c 65 3a 20 00 0d 0a 0d 0a 00 00 00 00     Angle: .........
800000b8:	2b 2b 2b 0d 00 00 00 00                             +++.....

800000c0 <_ZZN6Segway11initHelpersEvE4C.21>:
800000c0:	01 01 01 00                                         ....

800000c4 <_ZZN6Segway11initHelpersEvE4C.22>:
800000c4:	02 03 04 00                                         ....

800000c8 <_ZN6Segway13timerFunctionEv>:
/*! \brief	Function called by the timer. It contains the control algorithm.

		The function first receives the sensor values and then calculates and sets the motor's PWM
		according to the controlling algorithm.
*/
void Segway::timerFunction() {
800000c8:	eb cd 40 c0 	pushm	r6-r7,lr
800000cc:	1a 97       	mov	r7,sp
800000ce:	20 ed       	sub	sp,56
800000d0:	ef 4c ff c8 	st.w	r7[-56],r12
	// get sensor values
	bool footSwitchPressed = footSwitchSensor.getValue();
800000d4:	ee f8 ff c8 	ld.w	r8,r7[-56]
800000d8:	2e 08       	sub	r8,-32
800000da:	10 9c       	mov	r12,r8
800000dc:	f0 1f 01 93 	mcall	80000728 <_ZN6Segway13timerFunctionEv+0x660>
800000e0:	18 98       	mov	r8,r12
800000e2:	ef 68 ff cf 	st.b	r7[-49],r8
	long orientationGyrometerValue = orientationGyrometer.getIntegerValue() - orientationGyrometerReference.getIntegerValue(); // orientationGyrometer does not have to be calibrated as it has it's own reference voltage
800000e6:	ee f8 ff c8 	ld.w	r8,r7[-56]
800000ea:	29 c8       	sub	r8,-100
800000ec:	30 0a       	mov	r10,0
800000ee:	30 0b       	mov	r11,0
800000f0:	10 9c       	mov	r12,r8
800000f2:	f0 1f 01 8f 	mcall	8000072c <_ZN6Segway13timerFunctionEv+0x664>
800000f6:	18 96       	mov	r6,r12
800000f8:	ee f8 ff c8 	ld.w	r8,r7[-56]
800000fc:	f0 c8 ff 68 	sub	r8,r8,-152
80000100:	30 0a       	mov	r10,0
80000102:	30 0b       	mov	r11,0
80000104:	10 9c       	mov	r12,r8
80000106:	f0 1f 01 8a 	mcall	8000072c <_ZN6Segway13timerFunctionEv+0x664>
8000010a:	18 98       	mov	r8,r12
8000010c:	10 16       	sub	r6,r8
8000010e:	ef 46 ff d0 	st.w	r7[-48],r6
	long orientationAccelerometerValue = orientationAccelerometer.getIntegerValue();
80000112:	ee f8 ff c8 	ld.w	r8,r7[-56]
80000116:	2d 08       	sub	r8,-48
80000118:	30 0a       	mov	r10,0
8000011a:	30 0b       	mov	r11,0
8000011c:	10 9c       	mov	r12,r8
8000011e:	f0 1f 01 84 	mcall	8000072c <_ZN6Segway13timerFunctionEv+0x664>
80000122:	18 98       	mov	r8,r12
80000124:	ef 48 ff d4 	st.w	r7[-44],r8
	long steeringPotentiometerValue = 0 - steeringPotentiometer.getIntegerValue();
80000128:	ee f8 ff c8 	ld.w	r8,r7[-56]
8000012c:	f0 c8 ff 34 	sub	r8,r8,-204
80000130:	30 0a       	mov	r10,0
80000132:	30 0b       	mov	r11,0
80000134:	10 9c       	mov	r12,r8
80000136:	f0 1f 01 7e 	mcall	8000072c <_ZN6Segway13timerFunctionEv+0x664>
8000013a:	18 98       	mov	r8,r12
8000013c:	5c 38       	neg	r8
8000013e:	ef 48 ff d8 	st.w	r7[-40],r8
	
	// calculate the angle rate in °/s from the sensor value (+- 1000mV = +- 100°/s)
	float realAngleRate = 0.0 - float( orientationGyrometerValue ) * 100.0 / 310.0;
80000142:	ee fc ff d0 	ld.w	r12,r7[-48]
80000146:	f0 1f 01 7b 	mcall	80000730 <_ZN6Segway13timerFunctionEv+0x668>
8000014a:	18 98       	mov	r8,r12
8000014c:	10 9c       	mov	r12,r8
8000014e:	f0 1f 01 7a 	mcall	80000734 <_ZN6Segway13timerFunctionEv+0x66c>
80000152:	30 08       	mov	r8,0
80000154:	30 09       	mov	r9,0
80000156:	ea 19 40 59 	orh	r9,0x4059
8000015a:	f0 1f 01 78 	mcall	80000738 <_ZN6Segway13timerFunctionEv+0x670>
8000015e:	14 98       	mov	r8,r10
80000160:	16 99       	mov	r9,r11
80000162:	10 9a       	mov	r10,r8
80000164:	12 9b       	mov	r11,r9
80000166:	30 08       	mov	r8,0
80000168:	e0 69 60 00 	mov	r9,24576
8000016c:	ea 19 c0 73 	orh	r9,0xc073
80000170:	f0 1f 01 73 	mcall	8000073c <_ZN6Segway13timerFunctionEv+0x674>
80000174:	14 98       	mov	r8,r10
80000176:	16 99       	mov	r9,r11
80000178:	10 9a       	mov	r10,r8
8000017a:	12 9b       	mov	r11,r9
8000017c:	30 08       	mov	r8,0
8000017e:	30 09       	mov	r9,0
80000180:	f0 1f 01 70 	mcall	80000740 <_ZN6Segway13timerFunctionEv+0x678>
80000184:	14 98       	mov	r8,r10
80000186:	16 99       	mov	r9,r11
80000188:	10 9a       	mov	r10,r8
8000018a:	12 9b       	mov	r11,r9
8000018c:	f0 1f 01 6e 	mcall	80000744 <_ZN6Segway13timerFunctionEv+0x67c>
80000190:	18 98       	mov	r8,r12
80000192:	ef 48 ff dc 	st.w	r7[-36],r8
	
	// calculate the acceleration g from the sensor value (+- 800mV = +- 1g)
	float acceleration = float( orientationAccelerometerValue ) / 248.0;
80000196:	ee fc ff d4 	ld.w	r12,r7[-44]
8000019a:	f0 1f 01 66 	mcall	80000730 <_ZN6Segway13timerFunctionEv+0x668>
8000019e:	18 98       	mov	r8,r12
800001a0:	30 0b       	mov	r11,0
800001a2:	ea 1b 43 78 	orh	r11,0x4378
800001a6:	10 9c       	mov	r12,r8
800001a8:	f0 1f 01 68 	mcall	80000748 <_ZN6Segway13timerFunctionEv+0x680>
800001ac:	18 98       	mov	r8,r12
800001ae:	ef 48 ff e0 	st.w	r7[-32],r8
	// calculate the (tilt) angle of the segway.
	// sin(a) = acceleration / 1g
	// a in rad = acceleration / 1g
	// a in ° = acceleration / 1g * 360/2pi
	// Approximation for small values
	float accelerometerAngle = acceleration * 57;
800001b2:	30 0b       	mov	r11,0
800001b4:	ea 1b 42 64 	orh	r11,0x4264
800001b8:	ee fc ff e0 	ld.w	r12,r7[-32]
800001bc:	f0 1f 01 64 	mcall	8000074c <_ZN6Segway13timerFunctionEv+0x684>
800001c0:	18 98       	mov	r8,r12
800001c2:	ef 48 ff e4 	st.w	r7[-28],r8
	
	// Apply complementary filter to the measured angle and the measured angle rate to get the real angle.
	// angle = (0.98)*(angle + gyro * dt) + (0.02)*(x_acc);
	CFTiltAngle = ( 1 - ALGCFG_COMPL_FILTER_ACCELANGLE_FACTOR ) * ( CFTiltAngle + realAngleRate * TIMER_DELTA_T_SECONDS ) + ( ALGCFG_COMPL_FILTER_ACCELANGLE_FACTOR )*( accelerometerAngle );
800001c6:	ee f8 ff c8 	ld.w	r8,r7[-56]
800001ca:	f0 f6 04 90 	ld.w	r6,r8[1168]
800001ce:	e0 6b d7 0a 	mov	r11,55050
800001d2:	ea 1b 3c 23 	orh	r11,0x3c23
800001d6:	ee fc ff dc 	ld.w	r12,r7[-36]
800001da:	f0 1f 01 5d 	mcall	8000074c <_ZN6Segway13timerFunctionEv+0x684>
800001de:	18 98       	mov	r8,r12
800001e0:	10 9b       	mov	r11,r8
800001e2:	0c 9c       	mov	r12,r6
800001e4:	f0 1f 01 5b 	mcall	80000750 <_ZN6Segway13timerFunctionEv+0x688>
800001e8:	18 98       	mov	r8,r12
800001ea:	e0 6b e1 48 	mov	r11,57672
800001ee:	ea 1b 3f 7a 	orh	r11,0x3f7a
800001f2:	10 9c       	mov	r12,r8
800001f4:	f0 1f 01 56 	mcall	8000074c <_ZN6Segway13timerFunctionEv+0x684>
800001f8:	18 98       	mov	r8,r12
800001fa:	10 96       	mov	r6,r8
800001fc:	e0 6b d7 0a 	mov	r11,55050
80000200:	ea 1b 3c a3 	orh	r11,0x3ca3
80000204:	ee fc ff e4 	ld.w	r12,r7[-28]
80000208:	f0 1f 01 51 	mcall	8000074c <_ZN6Segway13timerFunctionEv+0x684>
8000020c:	18 98       	mov	r8,r12
8000020e:	10 9b       	mov	r11,r8
80000210:	0c 9c       	mov	r12,r6
80000212:	f0 1f 01 50 	mcall	80000750 <_ZN6Segway13timerFunctionEv+0x688>
80000216:	18 98       	mov	r8,r12
80000218:	10 99       	mov	r9,r8
8000021a:	ee f8 ff c8 	ld.w	r8,r7[-56]
8000021e:	f1 49 04 90 	st.w	r8[1168],r9
	
	// Calculate correction angle for soft speed limit
	float speedLimitTiltAngle = limitSpeedSoft( driveSum );
80000222:	ee f8 ff c8 	ld.w	r8,r7[-56]
80000226:	f0 f8 01 5c 	ld.w	r8,r8[348]
8000022a:	10 9b       	mov	r11,r8
8000022c:	ee fc ff c8 	ld.w	r12,r7[-56]
80000230:	f0 1f 01 49 	mcall	80000754 <_ZN6Segway13timerFunctionEv+0x68c>
80000234:	18 98       	mov	r8,r12
80000236:	ef 48 ff e8 	st.w	r7[-24],r8
	
	// Correction term to be added to the driveSum.
	float balanceMoment = BALANCEMOMENT_ANGLERATE_WEIGHT * realAngleRate + BALANCEMOMENT_ANGLE_WEIGHT * ( CFTiltAngle + speedLimitTiltAngle );
8000023a:	30 0b       	mov	r11,0
8000023c:	ea 1b 41 d8 	orh	r11,0x41d8
80000240:	ee fc ff dc 	ld.w	r12,r7[-36]
80000244:	f0 1f 01 42 	mcall	8000074c <_ZN6Segway13timerFunctionEv+0x684>
80000248:	18 98       	mov	r8,r12
8000024a:	10 96       	mov	r6,r8
8000024c:	ee f8 ff c8 	ld.w	r8,r7[-56]
80000250:	f0 f8 04 90 	ld.w	r8,r8[1168]
80000254:	ee fb ff e8 	ld.w	r11,r7[-24]
80000258:	10 9c       	mov	r12,r8
8000025a:	f0 1f 01 3e 	mcall	80000750 <_ZN6Segway13timerFunctionEv+0x688>
8000025e:	18 98       	mov	r8,r12
80000260:	30 0b       	mov	r11,0
80000262:	ea 1b 42 a2 	orh	r11,0x42a2
80000266:	10 9c       	mov	r12,r8
80000268:	f0 1f 01 39 	mcall	8000074c <_ZN6Segway13timerFunctionEv+0x684>
8000026c:	18 98       	mov	r8,r12
8000026e:	10 9b       	mov	r11,r8
80000270:	0c 9c       	mov	r12,r6
80000272:	f0 1f 01 38 	mcall	80000750 <_ZN6Segway13timerFunctionEv+0x688>
80000276:	18 98       	mov	r8,r12
80000278:	ef 48 ff ec 	st.w	r7[-20],r8
	
	// Integration
	driveSum = driveSum + balanceMoment;
8000027c:	ee f8 ff c8 	ld.w	r8,r7[-56]
80000280:	f0 f8 01 5c 	ld.w	r8,r8[348]
80000284:	10 9c       	mov	r12,r8
80000286:	f0 1f 01 2b 	mcall	80000730 <_ZN6Segway13timerFunctionEv+0x668>
8000028a:	18 98       	mov	r8,r12
8000028c:	ee fb ff ec 	ld.w	r11,r7[-20]
80000290:	10 9c       	mov	r12,r8
80000292:	f0 1f 01 30 	mcall	80000750 <_ZN6Segway13timerFunctionEv+0x688>
80000296:	18 98       	mov	r8,r12
80000298:	10 9c       	mov	r12,r8
8000029a:	f0 1f 01 30 	mcall	80000758 <_ZN6Segway13timerFunctionEv+0x690>
8000029e:	18 99       	mov	r9,r12
800002a0:	ee f8 ff c8 	ld.w	r8,r7[-56]
800002a4:	f1 49 01 5c 	st.w	r8[348],r9
	
	// Hard Limit Speed
	if( driveSum > ALGCFG_DRIVESUM_MAX_VALUE ) {
800002a8:	ee f8 ff c8 	ld.w	r8,r7[-56]
800002ac:	f0 f8 01 5c 	ld.w	r8,r8[348]
800002b0:	e0 48 d6 d8 	cp.w	r8,55000
800002b4:	e0 8a 00 09 	brle	800002c6 <_ZN6Segway13timerFunctionEv+0x1fe>
		driveSum = ALGCFG_DRIVESUM_MAX_VALUE;
800002b8:	ee f8 ff c8 	ld.w	r8,r7[-56]
800002bc:	e0 69 d6 d8 	mov	r9,55000
800002c0:	f1 49 01 5c 	st.w	r8[348],r9
800002c4:	c0 e8       	rjmp	800002e0 <_ZN6Segway13timerFunctionEv+0x218>
	} else if( driveSum < -ALGCFG_DRIVESUM_MAX_VALUE ) {
800002c6:	ee f8 ff c8 	ld.w	r8,r7[-56]
800002ca:	f0 f8 01 5c 	ld.w	r8,r8[348]
800002ce:	fe 58 29 28 	cp.w	r8,-55000
800002d2:	c0 74       	brge	800002e0 <_ZN6Segway13timerFunctionEv+0x218>
		driveSum = -ALGCFG_DRIVESUM_MAX_VALUE;
800002d4:	ee f8 ff c8 	ld.w	r8,r7[-56]
800002d8:	fe 79 29 28 	mov	r9,-55000
800002dc:	f1 49 01 5c 	st.w	r8[348],r9
	}
	
	
	// Convert driveSum to PWM value
	long driveSpeedPWM = driveSum / PWM_TO_DRIVESUM_FACTOR;
800002e0:	ee f8 ff c8 	ld.w	r8,r7[-56]
800002e4:	f0 f8 01 5c 	ld.w	r8,r8[348]
800002e8:	10 9c       	mov	r12,r8
800002ea:	f0 1f 01 12 	mcall	80000730 <_ZN6Segway13timerFunctionEv+0x668>
800002ee:	18 98       	mov	r8,r12
800002f0:	e0 6b 80 00 	mov	r11,32768
800002f4:	ea 1b 43 b3 	orh	r11,0x43b3
800002f8:	10 9c       	mov	r12,r8
800002fa:	f0 1f 01 14 	mcall	80000748 <_ZN6Segway13timerFunctionEv+0x680>
800002fe:	18 98       	mov	r8,r12
80000300:	10 9c       	mov	r12,r8
80000302:	f0 1f 01 16 	mcall	80000758 <_ZN6Segway13timerFunctionEv+0x690>
80000306:	18 98       	mov	r8,r12
80000308:	ef 48 ff f0 	st.w	r7[-16],r8
	
	// Calculate steering PWM if not blocked.
	long steeringPWM = 0;
8000030c:	30 08       	mov	r8,0
8000030e:	ef 48 ff f4 	st.w	r7[-12],r8
	if( !steeringBlocked ) {
80000312:	ee f8 ff c8 	ld.w	r8,r7[-56]
80000316:	f1 38 04 94 	ld.ub	r8,r8[1172]
8000031a:	ec 18 00 01 	eorl	r8,0x1
8000031e:	5c 58       	castu.b	r8
80000320:	c0 f0       	breq	8000033e <_ZN6Segway13timerFunctionEv+0x276>
		steeringPWM = limitSteeringPWM( steeringPotentiometerValue, driveSum );
80000322:	ee f8 ff c8 	ld.w	r8,r7[-56]
80000326:	f0 f8 01 5c 	ld.w	r8,r8[348]
8000032a:	10 9a       	mov	r10,r8
8000032c:	ee fb ff d8 	ld.w	r11,r7[-40]
80000330:	ee fc ff c8 	ld.w	r12,r7[-56]
80000334:	f0 1f 01 0a 	mcall	8000075c <_ZN6Segway13timerFunctionEv+0x694>
80000338:	18 98       	mov	r8,r12
8000033a:	ef 48 ff f4 	st.w	r7[-12],r8
	}
		
	long leftSpeed = driveSpeedPWM;
8000033e:	ee f8 ff f0 	ld.w	r8,r7[-16]
80000342:	ef 48 ff f8 	st.w	r7[-8],r8
	long rightSpeed = driveSpeedPWM;
80000346:	ee f8 ff f0 	ld.w	r8,r7[-16]
8000034a:	ef 48 ff fc 	st.w	r7[-4],r8
	
	
	if( operationMode == _standby ) {
8000034e:	ee f8 ff c8 	ld.w	r8,r7[-56]
80000352:	f0 f8 04 98 	ld.w	r8,r8[1176]
80000356:	58 08       	cp.w	r8,0
80000358:	c4 e1       	brne	800003f4 <_ZN6Segway13timerFunctionEv+0x32c>
		// If in standby mode, don't move
		driveSum = 0;
8000035a:	ee f8 ff c8 	ld.w	r8,r7[-56]
8000035e:	30 09       	mov	r9,0
80000360:	f1 49 01 5c 	st.w	r8[348],r9
		leftSpeed = 0;
80000364:	30 08       	mov	r8,0
80000366:	ef 48 ff f8 	st.w	r7[-8],r8
		rightSpeed = 0;
8000036a:	30 08       	mov	r8,0
8000036c:	ef 48 ff fc 	st.w	r7[-4],r8
		
		if( footSwitchPressed ) {
80000370:	ef 39 ff cf 	ld.ub	r9,r7[-49]
80000374:	30 08       	mov	r8,0
80000376:	f0 09 18 00 	cp.b	r9,r8
8000037a:	c3 d0       	breq	800003f4 <_ZN6Segway13timerFunctionEv+0x32c>
			// If foot switch is pressed in standby mode, take current position as zero position, set up blocking
			// of the steering for 5 seconds, do a battery check and then enter run mode.
			
			setCurrentOrientationAsZero();
8000037c:	ee fc ff c8 	ld.w	r12,r7[-56]
80000380:	f0 1f 00 f8 	mcall	80000760 <_ZN6Segway13timerFunctionEv+0x698>
			setCurrentSteeringPositionAsZero();
80000384:	ee fc ff c8 	ld.w	r12,r7[-56]
80000388:	f0 1f 00 f7 	mcall	80000764 <_ZN6Segway13timerFunctionEv+0x69c>
			footSwitchTimeout = 0;
8000038c:	ee f8 ff c8 	ld.w	r8,r7[-56]
80000390:	30 09       	mov	r9,0
80000392:	f1 49 04 84 	st.w	r8[1156],r9
			CFTiltAngle = 0;
80000396:	ee f8 ff c8 	ld.w	r8,r7[-56]
8000039a:	30 09       	mov	r9,0
8000039c:	f1 49 04 90 	st.w	r8[1168],r9
			AVGSpeedLimitDriveSumArray = {0};
800003a0:	ee f8 ff c8 	ld.w	r8,r7[-56]
800003a4:	f0 c8 fe a0 	sub	r8,r8,-352
800003a8:	e0 69 03 20 	mov	r9,800
800003ac:	12 9a       	mov	r10,r9
800003ae:	30 0b       	mov	r11,0
800003b0:	10 9c       	mov	r12,r8
800003b2:	f0 1f 00 ee 	mcall	80000768 <_ZN6Segway13timerFunctionEv+0x6a0>
			AVGSpeedLimitDriveSumArray_index = 0;
800003b6:	ee f8 ff c8 	ld.w	r8,r7[-56]
800003ba:	30 09       	mov	r9,0
800003bc:	f1 49 04 80 	st.w	r8[1152],r9
			
			// prevent Steering within the first 5 seconds
			blockSteeringTimeout = 500;
800003c0:	ee f8 ff c8 	ld.w	r8,r7[-56]
800003c4:	e0 69 01 f4 	mov	r9,500
800003c8:	f1 49 04 88 	st.w	r8[1160],r9
			steeringBlocked = true;
800003cc:	ee f9 ff c8 	ld.w	r9,r7[-56]
800003d0:	30 18       	mov	r8,1
800003d2:	f3 68 04 94 	st.b	r9[1172],r8
			
			// Check battery voltage, block if voltage is too low.
			doBatteryCheck();
800003d6:	ee fc ff c8 	ld.w	r12,r7[-56]
800003da:	f0 1f 00 e5 	mcall	8000076c <_ZN6Segway13timerFunctionEv+0x6a4>
			
			leftMotor.setEnabled( true );
800003de:	30 1c       	mov	r12,1
800003e0:	f0 1f 00 e4 	mcall	80000770 <_ZN6Segway13timerFunctionEv+0x6a8>
			rightMotor.setEnabled( true );
800003e4:	30 1c       	mov	r12,1
800003e6:	f0 1f 00 e3 	mcall	80000770 <_ZN6Segway13timerFunctionEv+0x6a8>
			
			operationMode = _run;
800003ea:	ee f8 ff c8 	ld.w	r8,r7[-56]
800003ee:	30 19       	mov	r9,1
800003f0:	f1 49 04 98 	st.w	r8[1176],r9
		}
	}
	
	if( operationMode == _run ) {
800003f4:	ee f8 ff c8 	ld.w	r8,r7[-56]
800003f8:	f0 f8 04 98 	ld.w	r8,r8[1176]
800003fc:	58 18       	cp.w	r8,1
800003fe:	c6 c1       	brne	800004d6 <_ZN6Segway13timerFunctionEv+0x40e>
		// If in run mode, control motors.
		if( footSwitchPressed ) {
80000400:	ef 39 ff cf 	ld.ub	r9,r7[-49]
80000404:	30 08       	mov	r8,0
80000406:	f0 09 18 00 	cp.b	r9,r8
8000040a:	c4 90       	breq	8000049c <_ZN6Segway13timerFunctionEv+0x3d4>
			// If foot switch is pressed, continue normally.
			footSwitchTimeout = 0;
8000040c:	ee f8 ff c8 	ld.w	r8,r7[-56]
80000410:	30 09       	mov	r9,0
80000412:	f1 49 04 84 	st.w	r8[1156],r9
			
			if( !steeringBlocked ) {
80000416:	ee f8 ff c8 	ld.w	r8,r7[-56]
8000041a:	f1 38 04 94 	ld.ub	r8,r8[1172]
8000041e:	ec 18 00 01 	eorl	r8,0x1
80000422:	5c 58       	castu.b	r8
80000424:	c1 20       	breq	80000448 <_ZN6Segway13timerFunctionEv+0x380>
				// If steering is not blocked, add steering PWM to motor speeds.
				leftSpeed += steeringPWM;
80000426:	ee f9 ff f8 	ld.w	r9,r7[-8]
8000042a:	ee f8 ff f4 	ld.w	r8,r7[-12]
8000042e:	f2 08 00 08 	add	r8,r9,r8
80000432:	ef 48 ff f8 	st.w	r7[-8],r8
				rightSpeed -= steeringPWM;
80000436:	ee f9 ff fc 	ld.w	r9,r7[-4]
8000043a:	ee f8 ff f4 	ld.w	r8,r7[-12]
8000043e:	f2 08 01 08 	sub	r8,r9,r8
80000442:	ef 48 ff fc 	st.w	r7[-4],r8
80000446:	c4 88       	rjmp	800004d6 <_ZN6Segway13timerFunctionEv+0x40e>
			} else {
				// If steering is blocked, wait decrease timeout and enable the steering when the timeout value reaches zero.
				if( blockSteeringTimeout > 0 ) {
80000448:	ee f8 ff c8 	ld.w	r8,r7[-56]
8000044c:	f0 f8 04 88 	ld.w	r8,r8[1160]
80000450:	58 08       	cp.w	r8,0
80000452:	c0 c0       	breq	8000046a <_ZN6Segway13timerFunctionEv+0x3a2>
					blockSteeringTimeout--;
80000454:	ee f8 ff c8 	ld.w	r8,r7[-56]
80000458:	f0 f8 04 88 	ld.w	r8,r8[1160]
8000045c:	f0 c9 00 01 	sub	r9,r8,1
80000460:	ee f8 ff c8 	ld.w	r8,r7[-56]
80000464:	f1 49 04 88 	st.w	r8[1160],r9
80000468:	c3 78       	rjmp	800004d6 <_ZN6Segway13timerFunctionEv+0x40e>
				} else {
					if( steeringBlocked ) {
8000046a:	ee f8 ff c8 	ld.w	r8,r7[-56]
8000046e:	f1 38 04 94 	ld.ub	r8,r8[1172]
80000472:	58 08       	cp.w	r8,0
80000474:	c3 10       	breq	800004d6 <_ZN6Segway13timerFunctionEv+0x40e>
						if( steeringPWM == 0 && steeringPotentiometerValue == 0 ) {
80000476:	ee f8 ff f4 	ld.w	r8,r7[-12]
8000047a:	58 08       	cp.w	r8,0
8000047c:	c2 d1       	brne	800004d6 <_ZN6Segway13timerFunctionEv+0x40e>
8000047e:	ee f8 ff d8 	ld.w	r8,r7[-40]
80000482:	58 08       	cp.w	r8,0
80000484:	c2 91       	brne	800004d6 <_ZN6Segway13timerFunctionEv+0x40e>
							// Blocking time elapsed and steeringPWM is zero => activate steering
							steeringBlocked = false;
80000486:	ee f9 ff c8 	ld.w	r9,r7[-56]
8000048a:	30 08       	mov	r8,0
8000048c:	f3 68 04 94 	st.b	r9[1172],r8
							blockSteeringTimeout = 0;
80000490:	ee f8 ff c8 	ld.w	r8,r7[-56]
80000494:	30 09       	mov	r9,0
80000496:	f1 49 04 88 	st.w	r8[1160],r9
8000049a:	c1 e8       	rjmp	800004d6 <_ZN6Segway13timerFunctionEv+0x40e>
					}
				}
			}
		} else {
			// If foot switch is not pressed, start timeout.
			footSwitchTimeout++;
8000049c:	ee f8 ff c8 	ld.w	r8,r7[-56]
800004a0:	f0 f8 04 84 	ld.w	r8,r8[1156]
800004a4:	f0 c9 ff ff 	sub	r9,r8,-1
800004a8:	ee f8 ff c8 	ld.w	r8,r7[-56]
800004ac:	f1 49 04 84 	st.w	r8[1156],r9
			if( footSwitchTimeout >= ALGCFG_FOOTSWITCHTIMEOUT_CRITICAL ) {
800004b0:	ee f8 ff c8 	ld.w	r8,r7[-56]
800004b4:	f0 f8 04 84 	ld.w	r8,r8[1156]
800004b8:	e0 48 00 63 	cp.w	r8,99
800004bc:	e0 88 00 0d 	brls	800004d6 <_ZN6Segway13timerFunctionEv+0x40e>
				// Foot switch released too long -> go to standby
				leftMotor.setEnabled( false );
800004c0:	30 0c       	mov	r12,0
800004c2:	f0 1f 00 ac 	mcall	80000770 <_ZN6Segway13timerFunctionEv+0x6a8>
				rightMotor.setEnabled( false );
800004c6:	30 0c       	mov	r12,0
800004c8:	f0 1f 00 aa 	mcall	80000770 <_ZN6Segway13timerFunctionEv+0x6a8>
				
				operationMode = _standby;
800004cc:	ee f8 ff c8 	ld.w	r8,r7[-56]
800004d0:	30 09       	mov	r9,0
800004d2:	f1 49 04 98 	st.w	r8[1176],r9
	
	// Apply an offset to the motor speeds to face the problem that the wheels - when standing still - won't start
	// turning until a PWM of about 12 (of 255) is reached.
	// If the target speed is lower than 5, set it to zero. Otherwise add/subtract 3 according to the direction to
	// get closer towards 12.
	if( leftSpeed > -5 && leftSpeed < 5 ) {
800004d6:	ee f8 ff f8 	ld.w	r8,r7[-8]
800004da:	5b c8       	cp.w	r8,-4
800004dc:	c0 a5       	brlt	800004f0 <_ZN6Segway13timerFunctionEv+0x428>
800004de:	ee f8 ff f8 	ld.w	r8,r7[-8]
800004e2:	58 48       	cp.w	r8,4
800004e4:	e0 89 00 06 	brgt	800004f0 <_ZN6Segway13timerFunctionEv+0x428>
		leftSpeed = 0;
800004e8:	30 08       	mov	r8,0
800004ea:	ef 48 ff f8 	st.w	r7[-8],r8
	
	// Apply an offset to the motor speeds to face the problem that the wheels - when standing still - won't start
	// turning until a PWM of about 12 (of 255) is reached.
	// If the target speed is lower than 5, set it to zero. Otherwise add/subtract 3 according to the direction to
	// get closer towards 12.
	if( leftSpeed > -5 && leftSpeed < 5 ) {
800004ee:	c1 18       	rjmp	80000510 <_ZN6Segway13timerFunctionEv+0x448>
		leftSpeed = 0;
	} else {
		if( leftSpeed > 0 ) {
800004f0:	ee f8 ff f8 	ld.w	r8,r7[-8]
800004f4:	58 08       	cp.w	r8,0
800004f6:	e0 8a 00 08 	brle	80000506 <_ZN6Segway13timerFunctionEv+0x43e>
			leftSpeed += 3;
800004fa:	ee f8 ff f8 	ld.w	r8,r7[-8]
800004fe:	2f d8       	sub	r8,-3
80000500:	ef 48 ff f8 	st.w	r7[-8],r8
80000504:	c0 68       	rjmp	80000510 <_ZN6Segway13timerFunctionEv+0x448>
		} else {
			leftSpeed -= 3;
80000506:	ee f8 ff f8 	ld.w	r8,r7[-8]
8000050a:	20 38       	sub	r8,3
8000050c:	ef 48 ff f8 	st.w	r7[-8],r8
		}
	}
	if( rightSpeed > -5 && rightSpeed < 5 ) {
80000510:	ee f8 ff fc 	ld.w	r8,r7[-4]
80000514:	5b c8       	cp.w	r8,-4
80000516:	c0 a5       	brlt	8000052a <_ZN6Segway13timerFunctionEv+0x462>
80000518:	ee f8 ff fc 	ld.w	r8,r7[-4]
8000051c:	58 48       	cp.w	r8,4
8000051e:	e0 89 00 06 	brgt	8000052a <_ZN6Segway13timerFunctionEv+0x462>
		rightSpeed = 0;
80000522:	30 08       	mov	r8,0
80000524:	ef 48 ff fc 	st.w	r7[-4],r8
			leftSpeed += 3;
		} else {
			leftSpeed -= 3;
		}
	}
	if( rightSpeed > -5 && rightSpeed < 5 ) {
80000528:	c1 18       	rjmp	8000054a <_ZN6Segway13timerFunctionEv+0x482>
		rightSpeed = 0;
	} else {
		if( rightSpeed > 0 ) {
8000052a:	ee f8 ff fc 	ld.w	r8,r7[-4]
8000052e:	58 08       	cp.w	r8,0
80000530:	e0 8a 00 08 	brle	80000540 <_ZN6Segway13timerFunctionEv+0x478>
			rightSpeed += 3;
80000534:	ee f8 ff fc 	ld.w	r8,r7[-4]
80000538:	2f d8       	sub	r8,-3
8000053a:	ef 48 ff fc 	st.w	r7[-4],r8
8000053e:	c0 68       	rjmp	8000054a <_ZN6Segway13timerFunctionEv+0x482>
		} else {
			rightSpeed -= 3;
80000540:	ee f8 ff fc 	ld.w	r8,r7[-4]
80000544:	20 38       	sub	r8,3
80000546:	ef 48 ff fc 	st.w	r7[-4],r8
	}

	// Set the motor's speed.
	// 1.741 is a correction factor resulting from fixing a rounding error in the PWM class as the
	// other parameters of the control algorithm were adjusted to the erroneous PWM class.
	setMotorSpeed( &leftMotor, ( float(leftSpeed) / 1.741 ));
8000054a:	ee fc ff f8 	ld.w	r12,r7[-8]
8000054e:	f0 1f 00 79 	mcall	80000730 <_ZN6Segway13timerFunctionEv+0x668>
80000552:	18 98       	mov	r8,r12
80000554:	10 9c       	mov	r12,r8
80000556:	f0 1f 00 78 	mcall	80000734 <_ZN6Segway13timerFunctionEv+0x66c>
8000055a:	e0 68 60 42 	mov	r8,24642
8000055e:	ea 18 d0 e5 	orh	r8,0xd0e5
80000562:	e0 69 db 22 	mov	r9,56098
80000566:	ea 19 3f fb 	orh	r9,0x3ffb
8000056a:	f0 1f 00 75 	mcall	8000073c <_ZN6Segway13timerFunctionEv+0x674>
8000056e:	14 98       	mov	r8,r10
80000570:	16 99       	mov	r9,r11
80000572:	10 9a       	mov	r10,r8
80000574:	12 9b       	mov	r11,r9
80000576:	f0 1f 00 80 	mcall	80000774 <_ZN6Segway13timerFunctionEv+0x6ac>
8000057a:	18 99       	mov	r9,r12
8000057c:	ee f8 ff c8 	ld.w	r8,r7[-56]
80000580:	f0 c8 fe cc 	sub	r8,r8,-308
80000584:	12 9a       	mov	r10,r9
80000586:	10 9b       	mov	r11,r8
80000588:	ee fc ff c8 	ld.w	r12,r7[-56]
8000058c:	f0 1f 00 7b 	mcall	80000778 <_ZN6Segway13timerFunctionEv+0x6b0>
	setMotorSpeed( &rightMotor, ( float(rightSpeed) / 1.741 ));
80000590:	ee fc ff fc 	ld.w	r12,r7[-4]
80000594:	f0 1f 00 67 	mcall	80000730 <_ZN6Segway13timerFunctionEv+0x668>
80000598:	18 98       	mov	r8,r12
8000059a:	10 9c       	mov	r12,r8
8000059c:	f0 1f 00 66 	mcall	80000734 <_ZN6Segway13timerFunctionEv+0x66c>
800005a0:	e0 68 60 42 	mov	r8,24642
800005a4:	ea 18 d0 e5 	orh	r8,0xd0e5
800005a8:	e0 69 db 22 	mov	r9,56098
800005ac:	ea 19 3f fb 	orh	r9,0x3ffb
800005b0:	f0 1f 00 63 	mcall	8000073c <_ZN6Segway13timerFunctionEv+0x674>
800005b4:	14 98       	mov	r8,r10
800005b6:	16 99       	mov	r9,r11
800005b8:	10 9a       	mov	r10,r8
800005ba:	12 9b       	mov	r11,r9
800005bc:	f0 1f 00 6e 	mcall	80000774 <_ZN6Segway13timerFunctionEv+0x6ac>
800005c0:	18 99       	mov	r9,r12
800005c2:	ee f8 ff c8 	ld.w	r8,r7[-56]
800005c6:	f0 c8 fe bc 	sub	r8,r8,-324
800005ca:	12 9a       	mov	r10,r9
800005cc:	10 9b       	mov	r11,r8
800005ce:	ee fc ff c8 	ld.w	r12,r7[-56]
800005d2:	f0 1f 00 6a 	mcall	80000778 <_ZN6Segway13timerFunctionEv+0x6b0>
	
	
	// Every 20 cycles, store debug data.
	debugDataCounter++;
800005d6:	ee f8 ff c8 	ld.w	r8,r7[-56]
800005da:	f0 f8 04 8c 	ld.w	r8,r8[1164]
800005de:	f0 c9 ff ff 	sub	r9,r8,-1
800005e2:	ee f8 ff c8 	ld.w	r8,r7[-56]
800005e6:	f1 49 04 8c 	st.w	r8[1164],r9
	if( debugDataCounter >= 20 ) {
800005ea:	ee f8 ff c8 	ld.w	r8,r7[-56]
800005ee:	f0 f8 04 8c 	ld.w	r8,r8[1164]
800005f2:	59 38       	cp.w	r8,19
800005f4:	e0 88 00 97 	brls	80000722 <_ZN6Segway13timerFunctionEv+0x65a>
		debugDataCounter = 0;
800005f8:	ee f8 ff c8 	ld.w	r8,r7[-56]
800005fc:	30 09       	mov	r9,0
800005fe:	f1 49 04 8c 	st.w	r8[1164],r9
		
		if( !debugData.doNotRefresh ) {
80000602:	ee f8 ff c8 	ld.w	r8,r7[-56]
80000606:	f1 38 04 9c 	ld.ub	r8,r8[1180]
8000060a:	ec 18 00 01 	eorl	r8,0x1
8000060e:	5c 58       	castu.b	r8
80000610:	e0 80 00 89 	breq	80000722 <_ZN6Segway13timerFunctionEv+0x65a>
			debugData.leftPWM = leftSpeed;
80000614:	ee f8 ff c8 	ld.w	r8,r7[-56]
80000618:	ee f9 ff f8 	ld.w	r9,r7[-8]
8000061c:	f1 49 04 a0 	st.w	r8[1184],r9
			debugData.rightPWM = rightSpeed;
80000620:	ee f8 ff c8 	ld.w	r8,r7[-56]
80000624:	ee f9 ff fc 	ld.w	r9,r7[-4]
80000628:	f1 49 04 a4 	st.w	r8[1188],r9
			
			debugData.orientationAccelerometerValue = orientationAccelerometerValue;
8000062c:	ee f8 ff c8 	ld.w	r8,r7[-56]
80000630:	ee f9 ff d4 	ld.w	r9,r7[-44]
80000634:	f1 49 04 a8 	st.w	r8[1192],r9
			debugData.orientationGyrometerValue = orientationGyrometerValue;
80000638:	ee f8 ff c8 	ld.w	r8,r7[-56]
8000063c:	ee f9 ff d0 	ld.w	r9,r7[-48]
80000640:	f1 49 04 ac 	st.w	r8[1196],r9
			debugData.steeringPotentiometerValue = steeringPotentiometerValue;
80000644:	ee f8 ff c8 	ld.w	r8,r7[-56]
80000648:	ee f9 ff d8 	ld.w	r9,r7[-40]
8000064c:	f1 49 04 b0 	st.w	r8[1200],r9
			debugData.footSwitchPressed = footSwitchPressed;
80000650:	ee f9 ff c8 	ld.w	r9,r7[-56]
80000654:	ef 38 ff cf 	ld.ub	r8,r7[-49]
80000658:	f3 68 04 9e 	st.b	r9[1182],r8
			
			debugData.batteryVoltage = batteryVoltageSensor.getIntegerValue() * MULTIPLEXSENSOR_BATTERYVOLTAGE_FACTOR_MV; //in mV
8000065c:	ee f8 ff c8 	ld.w	r8,r7[-56]
80000660:	f0 c8 ff 00 	sub	r8,r8,-256
80000664:	30 0a       	mov	r10,0
80000666:	30 0b       	mov	r11,0
80000668:	10 9c       	mov	r12,r8
8000066a:	f0 1f 00 31 	mcall	8000072c <_ZN6Segway13timerFunctionEv+0x664>
8000066e:	18 98       	mov	r8,r12
80000670:	10 9c       	mov	r12,r8
80000672:	f0 1f 00 30 	mcall	80000730 <_ZN6Segway13timerFunctionEv+0x668>
80000676:	18 98       	mov	r8,r12
80000678:	30 0b       	mov	r11,0
8000067a:	ea 1b 42 00 	orh	r11,0x4200
8000067e:	10 9c       	mov	r12,r8
80000680:	f0 1f 00 33 	mcall	8000074c <_ZN6Segway13timerFunctionEv+0x684>
80000684:	18 98       	mov	r8,r12
80000686:	10 9c       	mov	r12,r8
80000688:	f0 1f 00 34 	mcall	80000758 <_ZN6Segway13timerFunctionEv+0x690>
8000068c:	18 99       	mov	r9,r12
8000068e:	ee f8 ff c8 	ld.w	r8,r7[-56]
80000692:	f1 49 04 b4 	st.w	r8[1204],r9
			
			debugData.driveSum = driveSum;
80000696:	ee f8 ff c8 	ld.w	r8,r7[-56]
8000069a:	f0 f9 01 5c 	ld.w	r9,r8[348]
8000069e:	ee f8 ff c8 	ld.w	r8,r7[-56]
800006a2:	f1 49 04 b8 	st.w	r8[1208],r9
			debugData.steeringPWM = steeringPWM;
800006a6:	ee f8 ff c8 	ld.w	r8,r7[-56]
800006aa:	ee f9 ff f4 	ld.w	r9,r7[-12]
800006ae:	f1 49 04 bc 	st.w	r8[1212],r9
			debugData.leftSpeed = leftSpeed;
800006b2:	ee f8 ff c8 	ld.w	r8,r7[-56]
800006b6:	ee f9 ff f8 	ld.w	r9,r7[-8]
800006ba:	f1 49 04 c0 	st.w	r8[1216],r9
			debugData.rightSpeed = rightSpeed;
800006be:	ee f8 ff c8 	ld.w	r8,r7[-56]
800006c2:	ee f9 ff fc 	ld.w	r9,r7[-4]
800006c6:	f1 49 04 c4 	st.w	r8[1220],r9
			
			debugData.CFTiltAngle = CFTiltAngle;
800006ca:	ee f8 ff c8 	ld.w	r8,r7[-56]
800006ce:	f0 f8 04 90 	ld.w	r8,r8[1168]
800006d2:	10 9c       	mov	r12,r8
800006d4:	f0 1f 00 21 	mcall	80000758 <_ZN6Segway13timerFunctionEv+0x690>
800006d8:	18 99       	mov	r9,r12
800006da:	ee f8 ff c8 	ld.w	r8,r7[-56]
800006de:	f1 49 04 c8 	st.w	r8[1224],r9
			debugData.speedLimitTiltAngle = speedLimitTiltAngle;
800006e2:	ee fc ff e8 	ld.w	r12,r7[-24]
800006e6:	f0 1f 00 1d 	mcall	80000758 <_ZN6Segway13timerFunctionEv+0x690>
800006ea:	18 99       	mov	r9,r12
800006ec:	ee f8 ff c8 	ld.w	r8,r7[-56]
800006f0:	f1 49 04 d4 	st.w	r8[1236],r9
			
			debugData.accelerometerAngle = accelerometerAngle;
800006f4:	ee fc ff e4 	ld.w	r12,r7[-28]
800006f8:	f0 1f 00 18 	mcall	80000758 <_ZN6Segway13timerFunctionEv+0x690>
800006fc:	18 99       	mov	r9,r12
800006fe:	ee f8 ff c8 	ld.w	r8,r7[-56]
80000702:	f1 49 04 cc 	st.w	r8[1228],r9
			debugData.realAngleRate = realAngleRate;
80000706:	ee fc ff dc 	ld.w	r12,r7[-36]
8000070a:	f0 1f 00 14 	mcall	80000758 <_ZN6Segway13timerFunctionEv+0x690>
8000070e:	18 99       	mov	r9,r12
80000710:	ee f8 ff c8 	ld.w	r8,r7[-56]
80000714:	f1 49 04 d0 	st.w	r8[1232],r9
			
			debugData.newDataAvailable = true;
80000718:	ee f9 ff c8 	ld.w	r9,r7[-56]
8000071c:	30 18       	mov	r8,1
8000071e:	f3 68 04 9d 	st.b	r9[1181],r8
		}
	}
}
80000722:	2f 2d       	sub	sp,-56
80000724:	e3 cd 80 c0 	ldm	sp++,r6-r7,pc
80000728:	80 00       	ld.sh	r0,r0[0x0]
8000072a:	1f 8c       	ld.ub	r12,pc[0x0]
8000072c:	80 00       	ld.sh	r0,r0[0x0]
8000072e:	1c 40       	or	r0,lr
80000730:	80 00       	ld.sh	r0,r0[0x0]
80000732:	71 24       	ld.w	r4,r8[0x48]
80000734:	80 00       	ld.sh	r0,r0[0x0]
80000736:	71 b6       	ld.w	r6,r8[0x6c]
80000738:	80 00       	ld.sh	r0,r0[0x0]
8000073a:	65 50       	ld.w	r0,r2[0x54]
8000073c:	80 00       	ld.sh	r0,r0[0x0]
8000073e:	6a 34       	ld.w	r4,r5[0xc]
80000740:	80 00       	ld.sh	r0,r0[0x0]
80000742:	68 c4       	ld.w	r4,r4[0x30]
80000744:	80 00       	ld.sh	r0,r0[0x0]
80000746:	72 18       	ld.w	r8,r9[0x4]
80000748:	80 00       	ld.sh	r0,r0[0x0]
8000074a:	6d 50       	ld.w	r0,r6[0x54]
8000074c:	80 00       	ld.sh	r0,r0[0x0]
8000074e:	70 40       	ld.w	r0,r8[0x10]
80000750:	80 00       	ld.sh	r0,r0[0x0]
80000752:	6f 94       	ld.w	r4,r7[0x64]
80000754:	80 00       	ld.sh	r0,r0[0x0]
80000756:	09 a4       	ld.ub	r4,r4[0x2]
80000758:	80 00       	ld.sh	r0,r0[0x0]
8000075a:	71 98       	ld.w	r8,r8[0x64]
8000075c:	80 00       	ld.sh	r0,r0[0x0]
8000075e:	08 00       	add	r0,r4
80000760:	80 00       	ld.sh	r0,r0[0x0]
80000762:	0d 84       	ld.ub	r4,r6[0x0]
80000764:	80 00       	ld.sh	r0,r0[0x0]
80000766:	0c fc       	st.b	--r6,r12
80000768:	80 00       	ld.sh	r0,r0[0x0]
8000076a:	80 0e       	ld.sh	lr,r0[0x0]
8000076c:	80 00       	ld.sh	r0,r0[0x0]
8000076e:	0c 84       	andn	r4,r6
80000770:	80 00       	ld.sh	r0,r0[0x0]
80000772:	11 c0       	ld.ub	r0,r8[0x4]
80000774:	80 00       	ld.sh	r0,r0[0x0]
80000776:	69 d8       	ld.w	r8,r4[0x74]
80000778:	80 00       	ld.sh	r0,r0[0x0]
8000077a:	0c 1c       	sub	r12,r6

8000077c <_ZN6Segway16expMovingAverageEffh>:
	\param	oldVal	[in] old/current average
	\param	newVal	[in] measured value
	\param	weightOfNewVal_permille	[in] weight factor according to function description in permille.
	\return	Exponential moving average
*/
float Segway::expMovingAverage( float oldVal, float newVal, unsigned char weightOfNewVal_permille ) {
8000077c:	eb cd 40 c0 	pushm	r6-r7,lr
80000780:	1a 97       	mov	r7,sp
80000782:	20 4d       	sub	sp,16
80000784:	ef 4c ff fc 	st.w	r7[-4],r12
80000788:	ef 4b ff f8 	st.w	r7[-8],r11
8000078c:	ef 4a ff f4 	st.w	r7[-12],r10
80000790:	12 98       	mov	r8,r9
80000792:	ef 68 ff f0 	st.b	r7[-16],r8
	return ( float( 1000 - weightOfNewVal_permille ) * oldVal + weightOfNewVal_permille * newVal ) / 1000.0;
80000796:	ef 38 ff f0 	ld.ub	r8,r7[-16]
8000079a:	e0 69 03 e8 	mov	r9,1000
8000079e:	f2 08 01 08 	sub	r8,r9,r8
800007a2:	10 9c       	mov	r12,r8
800007a4:	f0 1f 00 13 	mcall	800007f0 <_ZN6Segway16expMovingAverageEffh+0x74>
800007a8:	18 98       	mov	r8,r12
800007aa:	ee fb ff f8 	ld.w	r11,r7[-8]
800007ae:	10 9c       	mov	r12,r8
800007b0:	f0 1f 00 11 	mcall	800007f4 <_ZN6Segway16expMovingAverageEffh+0x78>
800007b4:	18 98       	mov	r8,r12
800007b6:	10 96       	mov	r6,r8
800007b8:	ef 38 ff f0 	ld.ub	r8,r7[-16]
800007bc:	10 9c       	mov	r12,r8
800007be:	f0 1f 00 0d 	mcall	800007f0 <_ZN6Segway16expMovingAverageEffh+0x74>
800007c2:	18 98       	mov	r8,r12
800007c4:	ee fb ff f4 	ld.w	r11,r7[-12]
800007c8:	10 9c       	mov	r12,r8
800007ca:	f0 1f 00 0b 	mcall	800007f4 <_ZN6Segway16expMovingAverageEffh+0x78>
800007ce:	18 98       	mov	r8,r12
800007d0:	10 9b       	mov	r11,r8
800007d2:	0c 9c       	mov	r12,r6
800007d4:	f0 1f 00 09 	mcall	800007f8 <_ZN6Segway16expMovingAverageEffh+0x7c>
800007d8:	18 98       	mov	r8,r12
800007da:	30 0b       	mov	r11,0
800007dc:	ea 1b 44 7a 	orh	r11,0x447a
800007e0:	10 9c       	mov	r12,r8
800007e2:	f0 1f 00 07 	mcall	800007fc <_ZN6Segway16expMovingAverageEffh+0x80>
800007e6:	18 98       	mov	r8,r12
}
800007e8:	10 9c       	mov	r12,r8
800007ea:	2f cd       	sub	sp,-16
800007ec:	e3 cd 80 c0 	ldm	sp++,r6-r7,pc
800007f0:	80 00       	ld.sh	r0,r0[0x0]
800007f2:	71 24       	ld.w	r4,r8[0x48]
800007f4:	80 00       	ld.sh	r0,r0[0x0]
800007f6:	70 40       	ld.w	r0,r8[0x10]
800007f8:	80 00       	ld.sh	r0,r0[0x0]
800007fa:	6f 94       	ld.w	r4,r7[0x64]
800007fc:	80 00       	ld.sh	r0,r0[0x0]
800007fe:	6d 50       	ld.w	r0,r6[0x54]

80000800 <_ZN6Segway16limitSteeringPWMEll>:
				
	\param	steeringPotentiometerValue	[in] value returned by steering potentiometer (signed, zero means no steering)
	\param	driveSum	[in] current Speed (driveSum value in timerFunction)
	\return	steering PWM
*/
long Segway::limitSteeringPWM( long steeringPotentiometerValue, long driveSum ) {
80000800:	eb cd 40 c0 	pushm	r6-r7,lr
80000804:	1a 97       	mov	r7,sp
80000806:	20 4d       	sub	sp,16
80000808:	ef 4c ff f8 	st.w	r7[-8],r12
8000080c:	ef 4b ff f4 	st.w	r7[-12],r11
80000810:	ef 4a ff f0 	st.w	r7[-16],r10
	// Limit steering potentiometer value to what is expected at maximum (ALGCFG_STEERING_MAX_STEERINGPOTI_VALUE)
	if( steeringPotentiometerValue > ALGCFG_STEERING_MAX_STEERINGPOTI_VALUE ) {
80000814:	ee f8 ff f4 	ld.w	r8,r7[-12]
80000818:	e0 48 00 28 	cp.w	r8,40
8000081c:	e0 8a 00 06 	brle	80000828 <_ZN6Segway16limitSteeringPWMEll+0x28>
		steeringPotentiometerValue = ALGCFG_STEERING_MAX_STEERINGPOTI_VALUE;
80000820:	32 88       	mov	r8,40
80000822:	ef 48 ff f4 	st.w	r7[-12],r8
80000826:	c0 98       	rjmp	80000838 <_ZN6Segway16limitSteeringPWMEll+0x38>
	} else if( steeringPotentiometerValue < -ALGCFG_STEERING_MAX_STEERINGPOTI_VALUE ) {
80000828:	ee f8 ff f4 	ld.w	r8,r7[-12]
8000082c:	fe 58 ff d8 	cp.w	r8,-40
80000830:	c0 44       	brge	80000838 <_ZN6Segway16limitSteeringPWMEll+0x38>
		steeringPotentiometerValue = -ALGCFG_STEERING_MAX_STEERINGPOTI_VALUE;
80000832:	3d 88       	mov	r8,-40
80000834:	ef 48 ff f4 	st.w	r7[-12],r8
	}

	// Calculate the absolute value of the current drive speed.
	long absDriveSum;
	if( driveSum < 0 ) {
80000838:	ee f8 ff f0 	ld.w	r8,r7[-16]
8000083c:	58 08       	cp.w	r8,0
8000083e:	c0 74       	brge	8000084c <_ZN6Segway16limitSteeringPWMEll+0x4c>
		absDriveSum = -driveSum;
80000840:	ee f8 ff f0 	ld.w	r8,r7[-16]
80000844:	5c 38       	neg	r8
80000846:	ef 48 ff fc 	st.w	r7[-4],r8
8000084a:	c0 58       	rjmp	80000854 <_ZN6Segway16limitSteeringPWMEll+0x54>
	} else	
	{
		absDriveSum = driveSum;
8000084c:	ee f8 ff f0 	ld.w	r8,r7[-16]
80000850:	ef 48 ff fc 	st.w	r7[-4],r8
	}
	
	static float MAMaxSteeringPWM = 0;
	
	if( absDriveSum > ALGCFG_BLOCK_STEERING_PWM * PWM_TO_DRIVESUM_FACTOR ) {
80000854:	ee fc ff fc 	ld.w	r12,r7[-4]
80000858:	f0 1f 00 4b 	mcall	80000984 <_ZN6Segway16limitSteeringPWMEll+0x184>
8000085c:	18 98       	mov	r8,r12
8000085e:	30 06       	mov	r6,0
80000860:	10 9b       	mov	r11,r8
80000862:	e0 6c 3c 00 	mov	r12,15360
80000866:	ea 1c 46 0c 	orh	r12,0x460c
8000086a:	f0 1f 00 48 	mcall	80000988 <_ZN6Segway16limitSteeringPWMEll+0x188>
8000086e:	18 98       	mov	r8,r12
80000870:	58 08       	cp.w	r8,0
80000872:	c0 20       	breq	80000876 <_ZN6Segway16limitSteeringPWMEll+0x76>
80000874:	30 16       	mov	r6,1
80000876:	f1 d6 c0 08 	bfextu	r8,r6,0x0,0x8
8000087a:	c0 30       	breq	80000880 <_ZN6Segway16limitSteeringPWMEll+0x80>
		// If drive speed PWM exceeds ALGCFG_BLOCK_STEERING_PWM, block steering.
		return 0;
8000087c:	30 08       	mov	r8,0
8000087e:	c7 e8       	rjmp	8000097a <_ZN6Segway16limitSteeringPWMEll+0x17a>
	} else if( absDriveSum > ALGCFG_DYNAMIC_STEERING_MAX_PWM * PWM_TO_DRIVESUM_FACTOR ) {
80000880:	ee fc ff fc 	ld.w	r12,r7[-4]
80000884:	f0 1f 00 40 	mcall	80000984 <_ZN6Segway16limitSteeringPWMEll+0x184>
80000888:	18 98       	mov	r8,r12
8000088a:	30 06       	mov	r6,0
8000088c:	10 9b       	mov	r11,r8
8000088e:	e0 6c 48 00 	mov	r12,18432
80000892:	ea 1c 45 a8 	orh	r12,0x45a8
80000896:	f0 1f 00 3d 	mcall	80000988 <_ZN6Segway16limitSteeringPWMEll+0x188>
8000089a:	18 98       	mov	r8,r12
8000089c:	58 08       	cp.w	r8,0
8000089e:	c0 20       	breq	800008a2 <_ZN6Segway16limitSteeringPWMEll+0xa2>
800008a0:	30 16       	mov	r6,1
800008a2:	f1 d6 c0 08 	bfextu	r8,r6,0x0,0x8
800008a6:	c1 00       	breq	800008c6 <_ZN6Segway16limitSteeringPWMEll+0xc6>
		// If drive speed PWM is lower than ALGCFG_BLOCK_STEERING_PWM but over ALGCFG_DYNAMIC_STEERING_MAX_PWM,
		// allow minimal steering.
		MAMaxSteeringPWM = expMovingAverage( MAMaxSteeringPWM, float( ALGCFG_DYNAMIC_STEERING_AT_MAX_PWM ), 20 );
800008a8:	4b 98       	lddpc	r8,8000098c <_ZN6Segway16limitSteeringPWMEll+0x18c>
800008aa:	70 08       	ld.w	r8,r8[0x0]
800008ac:	31 49       	mov	r9,20
800008ae:	30 0a       	mov	r10,0
800008b0:	ea 1a 40 80 	orh	r10,0x4080
800008b4:	10 9b       	mov	r11,r8
800008b6:	ee fc ff f8 	ld.w	r12,r7[-8]
800008ba:	f0 1f 00 36 	mcall	80000990 <_ZN6Segway16limitSteeringPWMEll+0x190>
800008be:	18 99       	mov	r9,r12
800008c0:	4b 38       	lddpc	r8,8000098c <_ZN6Segway16limitSteeringPWMEll+0x18c>
800008c2:	91 09       	st.w	r8[0x0],r9
800008c4:	c2 f8       	rjmp	80000922 <_ZN6Segway16limitSteeringPWMEll+0x122>
	} else {
		// steeringSpeed decreases from ALGCFG_DYNAMIC_STEERING_AT_NO_SPEED to ALGCFG_DYNAMIC_STEERING_AT_MAX_PWM with increasing PWM from 0 to ALGCFG_DYNAMIC_STEERING_MAX_PWM
		MAMaxSteeringPWM = expMovingAverage( MAMaxSteeringPWM, float( ALGCFG_DYNAMIC_STEERING_AT_MAX_PWM + ( ALGCFG_DYNAMIC_STEERING_AT_NO_SPEED - ALGCFG_DYNAMIC_STEERING_AT_MAX_PWM ) * ( 1 - absDriveSum / ( ALGCFG_DYNAMIC_STEERING_MAX_PWM * PWM_TO_DRIVESUM_FACTOR ))), 20 );
800008c6:	ee fc ff fc 	ld.w	r12,r7[-4]
800008ca:	f0 1f 00 2f 	mcall	80000984 <_ZN6Segway16limitSteeringPWMEll+0x184>
800008ce:	18 98       	mov	r8,r12
800008d0:	e0 6b 48 00 	mov	r11,18432
800008d4:	ea 1b c5 a8 	orh	r11,0xc5a8
800008d8:	10 9c       	mov	r12,r8
800008da:	f0 1f 00 2f 	mcall	80000994 <_ZN6Segway16limitSteeringPWMEll+0x194>
800008de:	18 98       	mov	r8,r12
800008e0:	30 0b       	mov	r11,0
800008e2:	ea 1b 3f 80 	orh	r11,0x3f80
800008e6:	10 9c       	mov	r12,r8
800008e8:	f0 1f 00 2c 	mcall	80000998 <_ZN6Segway16limitSteeringPWMEll+0x198>
800008ec:	18 98       	mov	r8,r12
800008ee:	30 0b       	mov	r11,0
800008f0:	ea 1b 41 80 	orh	r11,0x4180
800008f4:	10 9c       	mov	r12,r8
800008f6:	f0 1f 00 2a 	mcall	8000099c <_ZN6Segway16limitSteeringPWMEll+0x19c>
800008fa:	18 98       	mov	r8,r12
800008fc:	30 0b       	mov	r11,0
800008fe:	ea 1b 40 80 	orh	r11,0x4080
80000902:	10 9c       	mov	r12,r8
80000904:	f0 1f 00 25 	mcall	80000998 <_ZN6Segway16limitSteeringPWMEll+0x198>
80000908:	18 98       	mov	r8,r12
8000090a:	10 9a       	mov	r10,r8
8000090c:	4a 08       	lddpc	r8,8000098c <_ZN6Segway16limitSteeringPWMEll+0x18c>
8000090e:	70 08       	ld.w	r8,r8[0x0]
80000910:	31 49       	mov	r9,20
80000912:	10 9b       	mov	r11,r8
80000914:	ee fc ff f8 	ld.w	r12,r7[-8]
80000918:	f0 1f 00 1e 	mcall	80000990 <_ZN6Segway16limitSteeringPWMEll+0x190>
8000091c:	18 99       	mov	r9,r12
8000091e:	49 c8       	lddpc	r8,8000098c <_ZN6Segway16limitSteeringPWMEll+0x18c>
80000920:	91 09       	st.w	r8[0x0],r9
	}
	
	// If the maximum Steering PWM exceeds ALGCFG_DYNAMIC_STEERING_AT_NO_SPEED (should not happen ), limit it to that.
	if( MAMaxSteeringPWM > ALGCFG_DYNAMIC_STEERING_AT_NO_SPEED ) {
80000922:	49 b8       	lddpc	r8,8000098c <_ZN6Segway16limitSteeringPWMEll+0x18c>
80000924:	70 08       	ld.w	r8,r8[0x0]
80000926:	30 06       	mov	r6,0
80000928:	10 9b       	mov	r11,r8
8000092a:	30 0c       	mov	r12,0
8000092c:	ea 1c 41 a0 	orh	r12,0x41a0
80000930:	f0 1f 00 16 	mcall	80000988 <_ZN6Segway16limitSteeringPWMEll+0x188>
80000934:	18 98       	mov	r8,r12
80000936:	58 08       	cp.w	r8,0
80000938:	c0 20       	breq	8000093c <_ZN6Segway16limitSteeringPWMEll+0x13c>
8000093a:	30 16       	mov	r6,1
8000093c:	f1 d6 c0 08 	bfextu	r8,r6,0x0,0x8
80000940:	c0 60       	breq	8000094c <_ZN6Segway16limitSteeringPWMEll+0x14c>
		MAMaxSteeringPWM = ALGCFG_DYNAMIC_STEERING_AT_NO_SPEED;
80000942:	49 38       	lddpc	r8,8000098c <_ZN6Segway16limitSteeringPWMEll+0x18c>
80000944:	30 09       	mov	r9,0
80000946:	ea 19 41 a0 	orh	r9,0x41a0
8000094a:	91 09       	st.w	r8[0x0],r9
	}
	
	return ( MAMaxSteeringPWM * steeringPotentiometerValue ) / float( ALGCFG_STEERING_MAX_STEERINGPOTI_VALUE );
8000094c:	ee fc ff f4 	ld.w	r12,r7[-12]
80000950:	f0 1f 00 0d 	mcall	80000984 <_ZN6Segway16limitSteeringPWMEll+0x184>
80000954:	18 98       	mov	r8,r12
80000956:	48 e9       	lddpc	r9,8000098c <_ZN6Segway16limitSteeringPWMEll+0x18c>
80000958:	72 09       	ld.w	r9,r9[0x0]
8000095a:	12 9b       	mov	r11,r9
8000095c:	10 9c       	mov	r12,r8
8000095e:	f0 1f 00 10 	mcall	8000099c <_ZN6Segway16limitSteeringPWMEll+0x19c>
80000962:	18 98       	mov	r8,r12
80000964:	30 0b       	mov	r11,0
80000966:	ea 1b 42 20 	orh	r11,0x4220
8000096a:	10 9c       	mov	r12,r8
8000096c:	f0 1f 00 0a 	mcall	80000994 <_ZN6Segway16limitSteeringPWMEll+0x194>
80000970:	18 98       	mov	r8,r12
80000972:	10 9c       	mov	r12,r8
80000974:	f0 1f 00 0b 	mcall	800009a0 <_ZN6Segway16limitSteeringPWMEll+0x1a0>
80000978:	18 98       	mov	r8,r12
}
8000097a:	10 9c       	mov	r12,r8
8000097c:	2f cd       	sub	sp,-16
8000097e:	e3 cd 80 c0 	ldm	sp++,r6-r7,pc
80000982:	00 00       	add	r0,r0
80000984:	80 00       	ld.sh	r0,r0[0x0]
80000986:	71 24       	ld.w	r4,r8[0x48]
80000988:	80 00       	ld.sh	r0,r0[0x0]
8000098a:	69 fe       	ld.w	lr,r4[0x7c]
8000098c:	00 00       	add	r0,r0
8000098e:	05 d8       	ld.ub	r8,r2[0x5]
80000990:	80 00       	ld.sh	r0,r0[0x0]
80000992:	07 7c       	ld.ub	r12,--r3
80000994:	80 00       	ld.sh	r0,r0[0x0]
80000996:	6d 50       	ld.w	r0,r6[0x54]
80000998:	80 00       	ld.sh	r0,r0[0x0]
8000099a:	6f 94       	ld.w	r4,r7[0x64]
8000099c:	80 00       	ld.sh	r0,r0[0x0]
8000099e:	70 40       	ld.w	r0,r8[0x10]
800009a0:	80 00       	ld.sh	r0,r0[0x0]
800009a2:	71 98       	ld.w	r8,r8[0x64]

800009a4 <_ZN6Segway14limitSpeedSoftEl>:
		speed, the angle remains at ALGCFG_SPEEDLIMIT_LEAN_BACK_MAX_DEGREES.
				
	\param	driveSum	[in] current Speed (driveSum value in timerFunction)
	\return	correction angle for the speed limit
*/
float Segway::limitSpeedSoft( long driveSum ) {
800009a4:	eb cd 40 c0 	pushm	r6-r7,lr
800009a8:	1a 97       	mov	r7,sp
800009aa:	20 4d       	sub	sp,16
800009ac:	ef 4c ff f4 	st.w	r7[-12],r12
800009b0:	ef 4b ff f0 	st.w	r7[-16],r11
	// Store current driveSum in an array for averaging.
	if( AVGSpeedLimitDriveSumArray_index >= 200 ) {
800009b4:	ee f8 ff f4 	ld.w	r8,r7[-12]
800009b8:	f0 f8 04 80 	ld.w	r8,r8[1152]
800009bc:	e0 48 00 c7 	cp.w	r8,199
800009c0:	e0 8a 00 07 	brle	800009ce <_ZN6Segway14limitSpeedSoftEl+0x2a>
		AVGSpeedLimitDriveSumArray_index = 0;
800009c4:	ee f8 ff f4 	ld.w	r8,r7[-12]
800009c8:	30 09       	mov	r9,0
800009ca:	f1 49 04 80 	st.w	r8[1152],r9
	}
	AVGSpeedLimitDriveSumArray[AVGSpeedLimitDriveSumArray_index] = driveSum;
800009ce:	ee f8 ff f4 	ld.w	r8,r7[-12]
800009d2:	f0 f9 04 80 	ld.w	r9,r8[1152]
800009d6:	ee f8 ff f4 	ld.w	r8,r7[-12]
800009da:	2a 89       	sub	r9,-88
800009dc:	ee fa ff f0 	ld.w	r10,r7[-16]
800009e0:	f0 09 09 2a 	st.w	r8[r9<<0x2],r10
	AVGSpeedLimitDriveSumArray_index++;
800009e4:	ee f8 ff f4 	ld.w	r8,r7[-12]
800009e8:	f0 f8 04 80 	ld.w	r8,r8[1152]
800009ec:	f0 c9 ff ff 	sub	r9,r8,-1
800009f0:	ee f8 ff f4 	ld.w	r8,r7[-12]
800009f4:	f1 49 04 80 	st.w	r8[1152],r9
	
	// If speed is low, reset speed limit array data
	if( driveSum < 2 * PWM_TO_DRIVESUM_FACTOR && driveSum > -2 * PWM_TO_DRIVESUM_FACTOR ) {
800009f8:	ee fc ff f0 	ld.w	r12,r7[-16]
800009fc:	f0 1f 00 80 	mcall	80000bfc <_ZN6Segway14limitSpeedSoftEl+0x258>
80000a00:	18 98       	mov	r8,r12
80000a02:	30 06       	mov	r6,0
80000a04:	e0 6b 80 00 	mov	r11,32768
80000a08:	ea 1b 44 33 	orh	r11,0x4433
80000a0c:	10 9c       	mov	r12,r8
80000a0e:	f0 1f 00 7d 	mcall	80000c00 <_ZN6Segway14limitSpeedSoftEl+0x25c>
80000a12:	18 98       	mov	r8,r12
80000a14:	58 08       	cp.w	r8,0
80000a16:	c0 20       	breq	80000a1a <_ZN6Segway14limitSpeedSoftEl+0x76>
80000a18:	30 16       	mov	r6,1
80000a1a:	f1 d6 c0 08 	bfextu	r8,r6,0x0,0x8
80000a1e:	c2 50       	breq	80000a68 <_ZN6Segway14limitSpeedSoftEl+0xc4>
80000a20:	ee fc ff f0 	ld.w	r12,r7[-16]
80000a24:	f0 1f 00 76 	mcall	80000bfc <_ZN6Segway14limitSpeedSoftEl+0x258>
80000a28:	18 98       	mov	r8,r12
80000a2a:	30 06       	mov	r6,0
80000a2c:	10 9b       	mov	r11,r8
80000a2e:	e0 6c 80 00 	mov	r12,32768
80000a32:	ea 1c c4 33 	orh	r12,0xc433
80000a36:	f0 1f 00 73 	mcall	80000c00 <_ZN6Segway14limitSpeedSoftEl+0x25c>
80000a3a:	18 98       	mov	r8,r12
80000a3c:	58 08       	cp.w	r8,0
80000a3e:	c0 20       	breq	80000a42 <_ZN6Segway14limitSpeedSoftEl+0x9e>
80000a40:	30 16       	mov	r6,1
80000a42:	f1 d6 c0 08 	bfextu	r8,r6,0x0,0x8
80000a46:	c1 10       	breq	80000a68 <_ZN6Segway14limitSpeedSoftEl+0xc4>
		AVGSpeedLimitDriveSumArray = {0};
80000a48:	ee f8 ff f4 	ld.w	r8,r7[-12]
80000a4c:	f0 c8 fe a0 	sub	r8,r8,-352
80000a50:	e0 69 03 20 	mov	r9,800
80000a54:	12 9a       	mov	r10,r9
80000a56:	30 0b       	mov	r11,0
80000a58:	10 9c       	mov	r12,r8
80000a5a:	f0 1f 00 6b 	mcall	80000c04 <_ZN6Segway14limitSpeedSoftEl+0x260>
		AVGSpeedLimitDriveSumArray_index = 0;
80000a5e:	ee f8 ff f4 	ld.w	r8,r7[-12]
80000a62:	30 09       	mov	r9,0
80000a64:	f1 49 04 80 	st.w	r8[1152],r9
	}

	// Calculate average driveSum using the array values.
	long AVGSpeedLimitDriveSum = 0;
80000a68:	30 08       	mov	r8,0
80000a6a:	ef 48 ff f8 	st.w	r7[-8],r8
	for( int i = 0; i < 200; i++ ) {
80000a6e:	30 08       	mov	r8,0
80000a70:	ef 48 ff fc 	st.w	r7[-4],r8
80000a74:	c1 38       	rjmp	80000a9a <_ZN6Segway14limitSpeedSoftEl+0xf6>
		AVGSpeedLimitDriveSum += AVGSpeedLimitDriveSumArray[i];
80000a76:	ee f9 ff fc 	ld.w	r9,r7[-4]
80000a7a:	ee f8 ff f4 	ld.w	r8,r7[-12]
80000a7e:	2a 89       	sub	r9,-88
80000a80:	f0 09 03 28 	ld.w	r8,r8[r9<<0x2]
80000a84:	ee f9 ff f8 	ld.w	r9,r7[-8]
80000a88:	f2 08 00 08 	add	r8,r9,r8
80000a8c:	ef 48 ff f8 	st.w	r7[-8],r8
		AVGSpeedLimitDriveSumArray_index = 0;
	}

	// Calculate average driveSum using the array values.
	long AVGSpeedLimitDriveSum = 0;
	for( int i = 0; i < 200; i++ ) {
80000a90:	ee f8 ff fc 	ld.w	r8,r7[-4]
80000a94:	2f f8       	sub	r8,-1
80000a96:	ef 48 ff fc 	st.w	r7[-4],r8
80000a9a:	ee f8 ff fc 	ld.w	r8,r7[-4]
80000a9e:	e0 48 00 c7 	cp.w	r8,199
80000aa2:	5f a8       	srle	r8
80000aa4:	5c 58       	castu.b	r8
80000aa6:	ce 81       	brne	80000a76 <_ZN6Segway14limitSpeedSoftEl+0xd2>
		AVGSpeedLimitDriveSum += AVGSpeedLimitDriveSumArray[i];
	}
	AVGSpeedLimitDriveSum /= 200;
80000aa8:	ee fa ff f8 	ld.w	r10,r7[-8]
80000aac:	e0 68 85 1f 	mov	r8,34079
80000ab0:	ea 18 51 eb 	orh	r8,0x51eb
80000ab4:	f4 08 04 48 	muls.d	r8,r10,r8
80000ab8:	a7 49       	asr	r9,0x6
80000aba:	f4 08 14 1f 	asr	r8,r10,0x1f
80000abe:	f2 08 01 08 	sub	r8,r9,r8
80000ac2:	ef 48 ff f8 	st.w	r7[-8],r8

	if( AVGSpeedLimitDriveSum > SPEEDLIMIT_END_DRIVESUM ) {
80000ac6:	ee fc ff f8 	ld.w	r12,r7[-8]
80000aca:	f0 1f 00 4d 	mcall	80000bfc <_ZN6Segway14limitSpeedSoftEl+0x258>
80000ace:	18 98       	mov	r8,r12
80000ad0:	30 06       	mov	r6,0
80000ad2:	10 9b       	mov	r11,r8
80000ad4:	e0 6c 0a 00 	mov	r12,2560
80000ad8:	ea 1c 46 8f 	orh	r12,0x468f
80000adc:	f0 1f 00 49 	mcall	80000c00 <_ZN6Segway14limitSpeedSoftEl+0x25c>
80000ae0:	18 98       	mov	r8,r12
80000ae2:	58 08       	cp.w	r8,0
80000ae4:	c0 20       	breq	80000ae8 <_ZN6Segway14limitSpeedSoftEl+0x144>
80000ae6:	30 16       	mov	r6,1
80000ae8:	f1 d6 c0 08 	bfextu	r8,r6,0x0,0x8
80000aec:	c0 50       	breq	80000af6 <_ZN6Segway14limitSpeedSoftEl+0x152>
		// maximum leaning back
		return ALGCFG_SPEEDLIMIT_LEAN_BACK_MAX_DEGREES;
80000aee:	30 08       	mov	r8,0
80000af0:	ea 18 42 34 	orh	r8,0x4234
80000af4:	c8 08       	rjmp	80000bf4 <_ZN6Segway14limitSpeedSoftEl+0x250>
	} else if( AVGSpeedLimitDriveSum > SPEEDLIMIT_START_DRIVESUM ) {
80000af6:	ee fc ff f8 	ld.w	r12,r7[-8]
80000afa:	f0 1f 00 41 	mcall	80000bfc <_ZN6Segway14limitSpeedSoftEl+0x258>
80000afe:	18 98       	mov	r8,r12
80000b00:	30 06       	mov	r6,0
80000b02:	10 9b       	mov	r11,r8
80000b04:	e0 6c 0a 00 	mov	r12,2560
80000b08:	ea 1c 46 0f 	orh	r12,0x460f
80000b0c:	f0 1f 00 3d 	mcall	80000c00 <_ZN6Segway14limitSpeedSoftEl+0x25c>
80000b10:	18 98       	mov	r8,r12
80000b12:	58 08       	cp.w	r8,0
80000b14:	c0 20       	breq	80000b18 <_ZN6Segway14limitSpeedSoftEl+0x174>
80000b16:	30 16       	mov	r6,1
80000b18:	f1 d6 c0 08 	bfextu	r8,r6,0x0,0x8
80000b1c:	c1 e0       	breq	80000b58 <_ZN6Segway14limitSpeedSoftEl+0x1b4>
		// leaning back according to the speed
		return ALGCFG_SPEEDLIMIT_LEAN_BACK_MAX_DEGREES * ( AVGSpeedLimitDriveSum - SPEEDLIMIT_START_DRIVESUM ) / ( SPEEDLIMIT_END_DRIVESUM-SPEEDLIMIT_START_DRIVESUM );
80000b1e:	ee fc ff f8 	ld.w	r12,r7[-8]
80000b22:	f0 1f 00 37 	mcall	80000bfc <_ZN6Segway14limitSpeedSoftEl+0x258>
80000b26:	18 98       	mov	r8,r12
80000b28:	e0 6b 0a 00 	mov	r11,2560
80000b2c:	ea 1b 46 0f 	orh	r11,0x460f
80000b30:	10 9c       	mov	r12,r8
80000b32:	f0 1f 00 36 	mcall	80000c08 <_ZN6Segway14limitSpeedSoftEl+0x264>
80000b36:	18 98       	mov	r8,r12
80000b38:	30 0b       	mov	r11,0
80000b3a:	ea 1b 42 34 	orh	r11,0x4234
80000b3e:	10 9c       	mov	r12,r8
80000b40:	f0 1f 00 33 	mcall	80000c0c <_ZN6Segway14limitSpeedSoftEl+0x268>
80000b44:	18 98       	mov	r8,r12
80000b46:	e0 6b 0a 00 	mov	r11,2560
80000b4a:	ea 1b 46 0f 	orh	r11,0x460f
80000b4e:	10 9c       	mov	r12,r8
80000b50:	f0 1f 00 30 	mcall	80000c10 <_ZN6Segway14limitSpeedSoftEl+0x26c>
80000b54:	18 98       	mov	r8,r12
80000b56:	c4 f8       	rjmp	80000bf4 <_ZN6Segway14limitSpeedSoftEl+0x250>
	} else if( AVGSpeedLimitDriveSum < -SPEEDLIMIT_END_DRIVESUM ) {
80000b58:	ee fc ff f8 	ld.w	r12,r7[-8]
80000b5c:	f0 1f 00 28 	mcall	80000bfc <_ZN6Segway14limitSpeedSoftEl+0x258>
80000b60:	18 98       	mov	r8,r12
80000b62:	4a d9       	lddpc	r9,80000c14 <_ZN6Segway14limitSpeedSoftEl+0x270>
80000b64:	72 09       	ld.w	r9,r9[0x0]
80000b66:	ee 19 80 00 	eorh	r9,0x8000
80000b6a:	30 06       	mov	r6,0
80000b6c:	12 9b       	mov	r11,r9
80000b6e:	10 9c       	mov	r12,r8
80000b70:	f0 1f 00 24 	mcall	80000c00 <_ZN6Segway14limitSpeedSoftEl+0x25c>
80000b74:	18 98       	mov	r8,r12
80000b76:	58 08       	cp.w	r8,0
80000b78:	c0 20       	breq	80000b7c <_ZN6Segway14limitSpeedSoftEl+0x1d8>
80000b7a:	30 16       	mov	r6,1
80000b7c:	f1 d6 c0 08 	bfextu	r8,r6,0x0,0x8
80000b80:	c0 50       	breq	80000b8a <_ZN6Segway14limitSpeedSoftEl+0x1e6>
		// maximum leaning ahead
		return -ALGCFG_SPEEDLIMIT_LEAN_BACK_MAX_DEGREES;
80000b82:	30 08       	mov	r8,0
80000b84:	ea 18 c2 34 	orh	r8,0xc234
80000b88:	c3 68       	rjmp	80000bf4 <_ZN6Segway14limitSpeedSoftEl+0x250>
	} else if( AVGSpeedLimitDriveSum < -SPEEDLIMIT_START_DRIVESUM ) {
80000b8a:	ee fc ff f8 	ld.w	r12,r7[-8]
80000b8e:	f0 1f 00 1c 	mcall	80000bfc <_ZN6Segway14limitSpeedSoftEl+0x258>
80000b92:	18 98       	mov	r8,r12
80000b94:	4a 19       	lddpc	r9,80000c18 <_ZN6Segway14limitSpeedSoftEl+0x274>
80000b96:	72 09       	ld.w	r9,r9[0x0]
80000b98:	ee 19 80 00 	eorh	r9,0x8000
80000b9c:	30 06       	mov	r6,0
80000b9e:	12 9b       	mov	r11,r9
80000ba0:	10 9c       	mov	r12,r8
80000ba2:	f0 1f 00 18 	mcall	80000c00 <_ZN6Segway14limitSpeedSoftEl+0x25c>
80000ba6:	18 98       	mov	r8,r12
80000ba8:	58 08       	cp.w	r8,0
80000baa:	c0 20       	breq	80000bae <_ZN6Segway14limitSpeedSoftEl+0x20a>
80000bac:	30 16       	mov	r6,1
80000bae:	f1 d6 c0 08 	bfextu	r8,r6,0x0,0x8
80000bb2:	c2 00       	breq	80000bf2 <_ZN6Segway14limitSpeedSoftEl+0x24e>
		// leaning ahead according to the speed
		return -ALGCFG_SPEEDLIMIT_LEAN_BACK_MAX_DEGREES * ( -AVGSpeedLimitDriveSum - SPEEDLIMIT_START_DRIVESUM ) / ( SPEEDLIMIT_END_DRIVESUM-SPEEDLIMIT_START_DRIVESUM );
80000bb4:	ee f8 ff f8 	ld.w	r8,r7[-8]
80000bb8:	5c 38       	neg	r8
80000bba:	10 9c       	mov	r12,r8
80000bbc:	f0 1f 00 10 	mcall	80000bfc <_ZN6Segway14limitSpeedSoftEl+0x258>
80000bc0:	18 98       	mov	r8,r12
80000bc2:	e0 6b 0a 00 	mov	r11,2560
80000bc6:	ea 1b 46 0f 	orh	r11,0x460f
80000bca:	10 9c       	mov	r12,r8
80000bcc:	f0 1f 00 0f 	mcall	80000c08 <_ZN6Segway14limitSpeedSoftEl+0x264>
80000bd0:	18 98       	mov	r8,r12
80000bd2:	30 0b       	mov	r11,0
80000bd4:	ea 1b c2 34 	orh	r11,0xc234
80000bd8:	10 9c       	mov	r12,r8
80000bda:	f0 1f 00 0d 	mcall	80000c0c <_ZN6Segway14limitSpeedSoftEl+0x268>
80000bde:	18 98       	mov	r8,r12
80000be0:	e0 6b 0a 00 	mov	r11,2560
80000be4:	ea 1b 46 0f 	orh	r11,0x460f
80000be8:	10 9c       	mov	r12,r8
80000bea:	f0 1f 00 0a 	mcall	80000c10 <_ZN6Segway14limitSpeedSoftEl+0x26c>
80000bee:	18 98       	mov	r8,r12
80000bf0:	c0 28       	rjmp	80000bf4 <_ZN6Segway14limitSpeedSoftEl+0x250>
	}
	
	return 0;
80000bf2:	30 08       	mov	r8,0
}
80000bf4:	10 9c       	mov	r12,r8
80000bf6:	2f cd       	sub	sp,-16
80000bf8:	e3 cd 80 c0 	ldm	sp++,r6-r7,pc
80000bfc:	80 00       	ld.sh	r0,r0[0x0]
80000bfe:	71 24       	ld.w	r4,r8[0x48]
80000c00:	80 00       	ld.sh	r0,r0[0x0]
80000c02:	69 fe       	ld.w	lr,r4[0x7c]
80000c04:	80 00       	ld.sh	r0,r0[0x0]
80000c06:	80 0e       	ld.sh	lr,r0[0x0]
80000c08:	80 00       	ld.sh	r0,r0[0x0]
80000c0a:	6e c0       	ld.w	r0,r7[0x30]
80000c0c:	80 00       	ld.sh	r0,r0[0x0]
80000c0e:	70 40       	ld.w	r0,r8[0x10]
80000c10:	80 00       	ld.sh	r0,r0[0x0]
80000c12:	6d 50       	ld.w	r0,r6[0x54]
80000c14:	80 00       	ld.sh	r0,r0[0x0]
80000c16:	00 38       	cp.w	r8,r0
80000c18:	80 00       	ld.sh	r0,r0[0x0]
80000c1a:	00 34       	cp.w	r4,r0

80000c1c <_ZN6Segway13setMotorSpeedEP5Motorl>:

/*! \brief	Sets the motor's direction and speed to a given PWM value.
	\param	motor	[in] pointer to the motor object
	\param	speed	[in] signed PWM value (-255 to 255) representing the motor speed
*/
void Segway::setMotorSpeed( Motor* motor, long speed ) {
80000c1c:	eb cd 40 80 	pushm	r7,lr
80000c20:	1a 97       	mov	r7,sp
80000c22:	20 3d       	sub	sp,12
80000c24:	ef 4c ff fc 	st.w	r7[-4],r12
80000c28:	ef 4b ff f8 	st.w	r7[-8],r11
80000c2c:	ef 4a ff f4 	st.w	r7[-12],r10
	if( speed < 0 ) {
80000c30:	ee f8 ff f4 	ld.w	r8,r7[-12]
80000c34:	58 08       	cp.w	r8,0
80000c36:	c1 24       	brge	80000c5a <_ZN6Segway13setMotorSpeedEP5Motorl+0x3e>
		motor->setDirection( false );
80000c38:	30 0b       	mov	r11,0
80000c3a:	ee fc ff f8 	ld.w	r12,r7[-8]
80000c3e:	f0 1f 00 10 	mcall	80000c7c <_ZN6Segway13setMotorSpeedEP5Motorl+0x60>
		motor->setSpeed( -speed );
80000c42:	ee f8 ff f4 	ld.w	r8,r7[-12]
80000c46:	5c 58       	castu.b	r8
80000c48:	5c 38       	neg	r8
80000c4a:	5c 58       	castu.b	r8
80000c4c:	5c 58       	castu.b	r8
80000c4e:	10 9b       	mov	r11,r8
80000c50:	ee fc ff f8 	ld.w	r12,r7[-8]
80000c54:	f0 1f 00 0b 	mcall	80000c80 <_ZN6Segway13setMotorSpeedEP5Motorl+0x64>
80000c58:	c0 e8       	rjmp	80000c74 <_ZN6Segway13setMotorSpeedEP5Motorl+0x58>
	} else {
		motor->setDirection( true );
80000c5a:	30 1b       	mov	r11,1
80000c5c:	ee fc ff f8 	ld.w	r12,r7[-8]
80000c60:	f0 1f 00 07 	mcall	80000c7c <_ZN6Segway13setMotorSpeedEP5Motorl+0x60>
		motor->setSpeed( speed );
80000c64:	ee f8 ff f4 	ld.w	r8,r7[-12]
80000c68:	5c 58       	castu.b	r8
80000c6a:	10 9b       	mov	r11,r8
80000c6c:	ee fc ff f8 	ld.w	r12,r7[-8]
80000c70:	f0 1f 00 04 	mcall	80000c80 <_ZN6Segway13setMotorSpeedEP5Motorl+0x64>
	}
}
80000c74:	2f dd       	sub	sp,-12
80000c76:	e3 cd 80 80 	ldm	sp++,r7,pc
80000c7a:	00 00       	add	r0,r0
80000c7c:	80 00       	ld.sh	r0,r0[0x0]
80000c7e:	11 4c       	ld.w	r12,--r8
80000c80:	80 00       	ld.sh	r0,r0[0x0]
80000c82:	11 18       	ld.sh	r8,r8++

80000c84 <_ZN6Segway14doBatteryCheckEv>:

/*! \brief	Checks the battery voltage and blocks execution if it is lower then MIN_BATTERY_VOLTAGE.

		Blocking is done via displayError.
*/
void Segway::doBatteryCheck() {
80000c84:	eb cd 40 c0 	pushm	r6-r7,lr
80000c88:	1a 97       	mov	r7,sp
80000c8a:	20 1d       	sub	sp,4
80000c8c:	ef 4c ff fc 	st.w	r7[-4],r12
	// Check battery voltage
	if( batteryVoltageSensor.getIntegerValue() * MULTIPLEXSENSOR_BATTERYVOLTAGE_FACTOR_MV < MIN_BATTERY_VOLTAGE ) {
80000c90:	ee f8 ff fc 	ld.w	r8,r7[-4]
80000c94:	f0 c8 ff 00 	sub	r8,r8,-256
80000c98:	30 0a       	mov	r10,0
80000c9a:	30 0b       	mov	r11,0
80000c9c:	10 9c       	mov	r12,r8
80000c9e:	f0 1f 00 13 	mcall	80000ce8 <_ZN6Segway14doBatteryCheckEv+0x64>
80000ca2:	18 98       	mov	r8,r12
80000ca4:	10 9c       	mov	r12,r8
80000ca6:	f0 1f 00 12 	mcall	80000cec <_ZN6Segway14doBatteryCheckEv+0x68>
80000caa:	18 98       	mov	r8,r12
80000cac:	30 0b       	mov	r11,0
80000cae:	ea 1b 42 00 	orh	r11,0x4200
80000cb2:	10 9c       	mov	r12,r8
80000cb4:	f0 1f 00 0f 	mcall	80000cf0 <_ZN6Segway14doBatteryCheckEv+0x6c>
80000cb8:	18 98       	mov	r8,r12
80000cba:	30 06       	mov	r6,0
80000cbc:	e0 6b e0 00 	mov	r11,57344
80000cc0:	ea 1b 46 ab 	orh	r11,0x46ab
80000cc4:	10 9c       	mov	r12,r8
80000cc6:	f0 1f 00 0c 	mcall	80000cf4 <_ZN6Segway14doBatteryCheckEv+0x70>
80000cca:	18 98       	mov	r8,r12
80000ccc:	58 08       	cp.w	r8,0
80000cce:	c0 20       	breq	80000cd2 <_ZN6Segway14doBatteryCheckEv+0x4e>
80000cd0:	30 16       	mov	r6,1
80000cd2:	f1 d6 c0 08 	bfextu	r8,r6,0x0,0x8
80000cd6:	c0 60       	breq	80000ce2 <_ZN6Segway14doBatteryCheckEv+0x5e>
		// battery voltage too low
		displayError( ERROR_CODE_INIT_LOWBATTERY );
80000cd8:	30 1b       	mov	r11,1
80000cda:	ee fc ff fc 	ld.w	r12,r7[-4]
80000cde:	f0 1f 00 07 	mcall	80000cf8 <_ZN6Segway14doBatteryCheckEv+0x74>
	}
}
80000ce2:	2f fd       	sub	sp,-4
80000ce4:	e3 cd 80 c0 	ldm	sp++,r6-r7,pc
80000ce8:	80 00       	ld.sh	r0,r0[0x0]
80000cea:	1c 40       	or	r0,lr
80000cec:	80 00       	ld.sh	r0,r0[0x0]
80000cee:	71 24       	ld.w	r4,r8[0x48]
80000cf0:	80 00       	ld.sh	r0,r0[0x0]
80000cf2:	70 40       	ld.w	r0,r8[0x10]
80000cf4:	80 00       	ld.sh	r0,r0[0x0]
80000cf6:	69 fe       	ld.w	lr,r4[0x7c]
80000cf8:	80 00       	ld.sh	r0,r0[0x0]
80000cfa:	0e 00       	add	r0,r7

80000cfc <_ZN6Segway32setCurrentSteeringPositionAsZeroEv>:
	
		If there is no offset set currently, use the current value as the new offset value.
	
		The current value is averaged over 10 measurements.
*/
void Segway::setCurrentSteeringPositionAsZero() {
80000cfc:	eb cd 40 c0 	pushm	r6-r7,lr
80000d00:	1a 97       	mov	r7,sp
80000d02:	20 1d       	sub	sp,4
80000d04:	ef 4c ff fc 	st.w	r7[-4],r12
	steeringPotentiometer.setZeroOffset( true,
							( steeringPotentiometer.getZeroOffsetIsActive() ?
								  ( steeringPotentiometer.getIntegerValue( true, 10 ) + steeringPotentiometer.getZeroOffset())
								: steeringPotentiometer.getIntegerValue( true, 10 )));
80000d08:	ee f8 ff fc 	ld.w	r8,r7[-4]
80000d0c:	f0 c8 ff 34 	sub	r8,r8,-204
80000d10:	10 9c       	mov	r12,r8
80000d12:	f0 1f 00 19 	mcall	80000d74 <_ZN6Segway32setCurrentSteeringPositionAsZeroEv+0x78>
80000d16:	18 98       	mov	r8,r12
80000d18:	58 08       	cp.w	r8,0
80000d1a:	c1 60       	breq	80000d46 <_ZN6Segway32setCurrentSteeringPositionAsZeroEv+0x4a>
80000d1c:	ee f8 ff fc 	ld.w	r8,r7[-4]
80000d20:	f0 c8 ff 34 	sub	r8,r8,-204
80000d24:	30 aa       	mov	r10,10
80000d26:	30 1b       	mov	r11,1
80000d28:	10 9c       	mov	r12,r8
80000d2a:	f0 1f 00 14 	mcall	80000d78 <_ZN6Segway32setCurrentSteeringPositionAsZeroEv+0x7c>
80000d2e:	18 96       	mov	r6,r12
80000d30:	ee f8 ff fc 	ld.w	r8,r7[-4]
80000d34:	f0 c8 ff 34 	sub	r8,r8,-204
80000d38:	10 9c       	mov	r12,r8
80000d3a:	f0 1f 00 11 	mcall	80000d7c <_ZN6Segway32setCurrentSteeringPositionAsZeroEv+0x80>
80000d3e:	18 98       	mov	r8,r12
80000d40:	ec 08 00 08 	add	r8,r6,r8
80000d44:	c0 b8       	rjmp	80000d5a <_ZN6Segway32setCurrentSteeringPositionAsZeroEv+0x5e>
80000d46:	ee f8 ff fc 	ld.w	r8,r7[-4]
80000d4a:	f0 c8 ff 34 	sub	r8,r8,-204
80000d4e:	30 aa       	mov	r10,10
80000d50:	30 1b       	mov	r11,1
80000d52:	10 9c       	mov	r12,r8
80000d54:	f0 1f 00 09 	mcall	80000d78 <_ZN6Segway32setCurrentSteeringPositionAsZeroEv+0x7c>
80000d58:	18 98       	mov	r8,r12
80000d5a:	ee f9 ff fc 	ld.w	r9,r7[-4]
80000d5e:	f2 c9 ff 34 	sub	r9,r9,-204
80000d62:	10 9a       	mov	r10,r8
80000d64:	30 1b       	mov	r11,1
80000d66:	12 9c       	mov	r12,r9
80000d68:	f0 1f 00 06 	mcall	80000d80 <_ZN6Segway32setCurrentSteeringPositionAsZeroEv+0x84>
}
80000d6c:	2f fd       	sub	sp,-4
80000d6e:	e3 cd 80 c0 	ldm	sp++,r6-r7,pc
80000d72:	00 00       	add	r0,r0
80000d74:	80 00       	ld.sh	r0,r0[0x0]
80000d76:	1f 52       	ld.sh	r2,--pc
80000d78:	80 00       	ld.sh	r0,r0[0x0]
80000d7a:	1c 40       	or	r0,lr
80000d7c:	80 00       	ld.sh	r0,r0[0x0]
80000d7e:	1f 70       	ld.ub	r0,--pc
80000d80:	80 00       	ld.sh	r0,r0[0x0]
80000d82:	1f 1c       	ld.sh	r12,pc++

80000d84 <_ZN6Segway27setCurrentOrientationAsZeroEv>:

		If there is no offset set currently, use the current value as the new offset value.

		The current value is averaged over 10 measurements.
*/
void Segway::setCurrentOrientationAsZero() {
80000d84:	eb cd 40 c0 	pushm	r6-r7,lr
80000d88:	1a 97       	mov	r7,sp
80000d8a:	20 1d       	sub	sp,4
80000d8c:	ef 4c ff fc 	st.w	r7[-4],r12
	orientationAccelerometer.setZeroOffset( true,
							( orientationAccelerometer.getZeroOffsetIsActive() ?
								  ( orientationAccelerometer.getIntegerValue( true, 10 ) + orientationAccelerometer.getZeroOffset())
								: orientationAccelerometer.getIntegerValue( true, 10 )));
80000d90:	ee f8 ff fc 	ld.w	r8,r7[-4]
80000d94:	2d 08       	sub	r8,-48
80000d96:	10 9c       	mov	r12,r8
80000d98:	f0 1f 00 16 	mcall	80000df0 <_ZN6Segway27setCurrentOrientationAsZeroEv+0x6c>
80000d9c:	18 98       	mov	r8,r12
80000d9e:	58 08       	cp.w	r8,0
80000da0:	c1 40       	breq	80000dc8 <_ZN6Segway27setCurrentOrientationAsZeroEv+0x44>
80000da2:	ee f8 ff fc 	ld.w	r8,r7[-4]
80000da6:	2d 08       	sub	r8,-48
80000da8:	30 aa       	mov	r10,10
80000daa:	30 1b       	mov	r11,1
80000dac:	10 9c       	mov	r12,r8
80000dae:	f0 1f 00 12 	mcall	80000df4 <_ZN6Segway27setCurrentOrientationAsZeroEv+0x70>
80000db2:	18 96       	mov	r6,r12
80000db4:	ee f8 ff fc 	ld.w	r8,r7[-4]
80000db8:	2d 08       	sub	r8,-48
80000dba:	10 9c       	mov	r12,r8
80000dbc:	f0 1f 00 0f 	mcall	80000df8 <_ZN6Segway27setCurrentOrientationAsZeroEv+0x74>
80000dc0:	18 98       	mov	r8,r12
80000dc2:	ec 08 00 08 	add	r8,r6,r8
80000dc6:	c0 a8       	rjmp	80000dda <_ZN6Segway27setCurrentOrientationAsZeroEv+0x56>
80000dc8:	ee f8 ff fc 	ld.w	r8,r7[-4]
80000dcc:	2d 08       	sub	r8,-48
80000dce:	30 aa       	mov	r10,10
80000dd0:	30 1b       	mov	r11,1
80000dd2:	10 9c       	mov	r12,r8
80000dd4:	f0 1f 00 08 	mcall	80000df4 <_ZN6Segway27setCurrentOrientationAsZeroEv+0x70>
80000dd8:	18 98       	mov	r8,r12
80000dda:	ee f9 ff fc 	ld.w	r9,r7[-4]
80000dde:	2d 09       	sub	r9,-48
80000de0:	10 9a       	mov	r10,r8
80000de2:	30 1b       	mov	r11,1
80000de4:	12 9c       	mov	r12,r9
80000de6:	f0 1f 00 06 	mcall	80000dfc <_ZN6Segway27setCurrentOrientationAsZeroEv+0x78>
}
80000dea:	2f fd       	sub	sp,-4
80000dec:	e3 cd 80 c0 	ldm	sp++,r6-r7,pc
80000df0:	80 00       	ld.sh	r0,r0[0x0]
80000df2:	1f 52       	ld.sh	r2,--pc
80000df4:	80 00       	ld.sh	r0,r0[0x0]
80000df6:	1c 40       	or	r0,lr
80000df8:	80 00       	ld.sh	r0,r0[0x0]
80000dfa:	1f 70       	ld.ub	r0,--pc
80000dfc:	80 00       	ld.sh	r0,r0[0x0]
80000dfe:	1f 1c       	ld.sh	r12,pc++

80000e00 <_ZN6Segway12displayErrorEh>:

/*! \brief	Displays error code. Blocks execution.

		Green LED is off. Red LED blinks errorCode times, then stays off some time and restarts.
*/
void Segway::displayError( unsigned char errorCode ) {
80000e00:	eb cd 40 80 	pushm	r7,lr
80000e04:	1a 97       	mov	r7,sp
80000e06:	20 9d       	sub	sp,36
80000e08:	ef 4c ff e0 	st.w	r7[-32],r12
80000e0c:	16 98       	mov	r8,r11
80000e0e:	ef 68 ff dc 	st.b	r7[-36],r8
	// turn off both LEDs
	setStatusLED( &Configuration::greenStatusLEDConfig, false );
80000e12:	30 0a       	mov	r10,0
80000e14:	4d ab       	lddpc	r11,80000f7c <_ZN6Segway12displayErrorEh+0x17c>
80000e16:	ee fc ff e0 	ld.w	r12,r7[-32]
80000e1a:	f0 1f 00 5a 	mcall	80000f80 <_ZN6Segway12displayErrorEh+0x180>
	setStatusLED( &Configuration::redStatusLEDConfig, false );
80000e1e:	30 0a       	mov	r10,0
80000e20:	4d 9b       	lddpc	r11,80000f84 <_ZN6Segway12displayErrorEh+0x184>
80000e22:	ee fc ff e0 	ld.w	r12,r7[-32]
80000e26:	f0 1f 00 57 	mcall	80000f80 <_ZN6Segway12displayErrorEh+0x180>
	while( true ) {
		for( unsigned char i = 0; i < errorCode; i++ ) {
80000e2a:	30 08       	mov	r8,0
80000e2c:	ef 68 ff e7 	st.b	r7[-25],r8
80000e30:	c4 08       	rjmp	80000eb0 <_ZN6Segway12displayErrorEh+0xb0>
			// blink error code
			setStatusLED( &Configuration::greenStatusLEDConfig, true );
80000e32:	30 1a       	mov	r10,1
80000e34:	4d 2b       	lddpc	r11,80000f7c <_ZN6Segway12displayErrorEh+0x17c>
80000e36:	ee fc ff e0 	ld.w	r12,r7[-32]
80000e3a:	f0 1f 00 52 	mcall	80000f80 <_ZN6Segway12displayErrorEh+0x180>
			setStatusLED( &Configuration::redStatusLEDConfig, true );
80000e3e:	30 1a       	mov	r10,1
80000e40:	4d 1b       	lddpc	r11,80000f84 <_ZN6Segway12displayErrorEh+0x184>
80000e42:	ee fc ff e0 	ld.w	r12,r7[-32]
80000e46:	f0 1f 00 4f 	mcall	80000f80 <_ZN6Segway12displayErrorEh+0x180>
			for( unsigned long wait = 0; wait < 1000000; wait++ ) {
80000e4a:	30 08       	mov	r8,0
80000e4c:	ef 48 ff e8 	st.w	r7[-24],r8
80000e50:	c0 78       	rjmp	80000e5e <_ZN6Segway12displayErrorEh+0x5e>
				asm( "nop" );
80000e52:	d7 03       	nop
	while( true ) {
		for( unsigned char i = 0; i < errorCode; i++ ) {
			// blink error code
			setStatusLED( &Configuration::greenStatusLEDConfig, true );
			setStatusLED( &Configuration::redStatusLEDConfig, true );
			for( unsigned long wait = 0; wait < 1000000; wait++ ) {
80000e54:	ee f8 ff e8 	ld.w	r8,r7[-24]
80000e58:	2f f8       	sub	r8,-1
80000e5a:	ef 48 ff e8 	st.w	r7[-24],r8
80000e5e:	ee f8 ff e8 	ld.w	r8,r7[-24]
80000e62:	ee 58 42 3f 	cp.w	r8,999999
80000e66:	5f 88       	srls	r8
80000e68:	5c 58       	castu.b	r8
80000e6a:	cf 41       	brne	80000e52 <_ZN6Segway12displayErrorEh+0x52>
				asm( "nop" );
			}
			setStatusLED( &Configuration::greenStatusLEDConfig, false );
80000e6c:	30 0a       	mov	r10,0
80000e6e:	4c 4b       	lddpc	r11,80000f7c <_ZN6Segway12displayErrorEh+0x17c>
80000e70:	ee fc ff e0 	ld.w	r12,r7[-32]
80000e74:	f0 1f 00 43 	mcall	80000f80 <_ZN6Segway12displayErrorEh+0x180>
			setStatusLED( &Configuration::redStatusLEDConfig, false );
80000e78:	30 0a       	mov	r10,0
80000e7a:	4c 3b       	lddpc	r11,80000f84 <_ZN6Segway12displayErrorEh+0x184>
80000e7c:	ee fc ff e0 	ld.w	r12,r7[-32]
80000e80:	f0 1f 00 40 	mcall	80000f80 <_ZN6Segway12displayErrorEh+0x180>
			for( unsigned long wait = 0; wait < 1000000; wait++ ) {
80000e84:	30 08       	mov	r8,0
80000e86:	ef 48 ff ec 	st.w	r7[-20],r8
80000e8a:	c0 78       	rjmp	80000e98 <_ZN6Segway12displayErrorEh+0x98>
				asm( "nop" );
80000e8c:	d7 03       	nop
			for( unsigned long wait = 0; wait < 1000000; wait++ ) {
				asm( "nop" );
			}
			setStatusLED( &Configuration::greenStatusLEDConfig, false );
			setStatusLED( &Configuration::redStatusLEDConfig, false );
			for( unsigned long wait = 0; wait < 1000000; wait++ ) {
80000e8e:	ee f8 ff ec 	ld.w	r8,r7[-20]
80000e92:	2f f8       	sub	r8,-1
80000e94:	ef 48 ff ec 	st.w	r7[-20],r8
80000e98:	ee f8 ff ec 	ld.w	r8,r7[-20]
80000e9c:	ee 58 42 3f 	cp.w	r8,999999
80000ea0:	5f 88       	srls	r8
80000ea2:	5c 58       	castu.b	r8
80000ea4:	cf 41       	brne	80000e8c <_ZN6Segway12displayErrorEh+0x8c>
void Segway::displayError( unsigned char errorCode ) {
	// turn off both LEDs
	setStatusLED( &Configuration::greenStatusLEDConfig, false );
	setStatusLED( &Configuration::redStatusLEDConfig, false );
	while( true ) {
		for( unsigned char i = 0; i < errorCode; i++ ) {
80000ea6:	ef 38 ff e7 	ld.ub	r8,r7[-25]
80000eaa:	2f f8       	sub	r8,-1
80000eac:	ef 68 ff e7 	st.b	r7[-25],r8
80000eb0:	ef 39 ff e7 	ld.ub	r9,r7[-25]
80000eb4:	ef 38 ff dc 	ld.ub	r8,r7[-36]
80000eb8:	f0 09 18 00 	cp.b	r9,r8
80000ebc:	5f 38       	srlo	r8
80000ebe:	5c 58       	castu.b	r8
80000ec0:	cb 91       	brne	80000e32 <_ZN6Segway12displayErrorEh+0x32>
			for( unsigned long wait = 0; wait < 1000000; wait++ ) {
				asm( "nop" );
			}
		}
		// blink green led only to let the user know that the error code is over
		setStatusLED( &Configuration::greenStatusLEDConfig, true );
80000ec2:	30 1a       	mov	r10,1
80000ec4:	4a eb       	lddpc	r11,80000f7c <_ZN6Segway12displayErrorEh+0x17c>
80000ec6:	ee fc ff e0 	ld.w	r12,r7[-32]
80000eca:	f0 1f 00 2e 	mcall	80000f80 <_ZN6Segway12displayErrorEh+0x180>
		for( unsigned long wait = 0; wait < 1000000; wait++ ) {
80000ece:	30 08       	mov	r8,0
80000ed0:	ef 48 ff f0 	st.w	r7[-16],r8
80000ed4:	c0 78       	rjmp	80000ee2 <_ZN6Segway12displayErrorEh+0xe2>
			asm( "nop" );
80000ed6:	d7 03       	nop
				asm( "nop" );
			}
		}
		// blink green led only to let the user know that the error code is over
		setStatusLED( &Configuration::greenStatusLEDConfig, true );
		for( unsigned long wait = 0; wait < 1000000; wait++ ) {
80000ed8:	ee f8 ff f0 	ld.w	r8,r7[-16]
80000edc:	2f f8       	sub	r8,-1
80000ede:	ef 48 ff f0 	st.w	r7[-16],r8
80000ee2:	ee f8 ff f0 	ld.w	r8,r7[-16]
80000ee6:	ee 58 42 3f 	cp.w	r8,999999
80000eea:	5f 88       	srls	r8
80000eec:	5c 58       	castu.b	r8
80000eee:	cf 41       	brne	80000ed6 <_ZN6Segway12displayErrorEh+0xd6>
			asm( "nop" );
		}
		setStatusLED( &Configuration::greenStatusLEDConfig, false );
80000ef0:	30 0a       	mov	r10,0
80000ef2:	4a 3b       	lddpc	r11,80000f7c <_ZN6Segway12displayErrorEh+0x17c>
80000ef4:	ee fc ff e0 	ld.w	r12,r7[-32]
80000ef8:	f0 1f 00 22 	mcall	80000f80 <_ZN6Segway12displayErrorEh+0x180>
		for( unsigned long wait = 0; wait < 1000000; wait++ ) {
80000efc:	30 08       	mov	r8,0
80000efe:	ef 48 ff f4 	st.w	r7[-12],r8
80000f02:	c0 78       	rjmp	80000f10 <_ZN6Segway12displayErrorEh+0x110>
			asm( "nop" );
80000f04:	d7 03       	nop
		setStatusLED( &Configuration::greenStatusLEDConfig, true );
		for( unsigned long wait = 0; wait < 1000000; wait++ ) {
			asm( "nop" );
		}
		setStatusLED( &Configuration::greenStatusLEDConfig, false );
		for( unsigned long wait = 0; wait < 1000000; wait++ ) {
80000f06:	ee f8 ff f4 	ld.w	r8,r7[-12]
80000f0a:	2f f8       	sub	r8,-1
80000f0c:	ef 48 ff f4 	st.w	r7[-12],r8
80000f10:	ee f8 ff f4 	ld.w	r8,r7[-12]
80000f14:	ee 58 42 3f 	cp.w	r8,999999
80000f18:	5f 88       	srls	r8
80000f1a:	5c 58       	castu.b	r8
80000f1c:	cf 41       	brne	80000f04 <_ZN6Segway12displayErrorEh+0x104>
			asm( "nop" );
		}
		setStatusLED( &Configuration::greenStatusLEDConfig, true );
80000f1e:	30 1a       	mov	r10,1
80000f20:	49 7b       	lddpc	r11,80000f7c <_ZN6Segway12displayErrorEh+0x17c>
80000f22:	ee fc ff e0 	ld.w	r12,r7[-32]
80000f26:	f0 1f 00 17 	mcall	80000f80 <_ZN6Segway12displayErrorEh+0x180>
		for( unsigned long wait = 0; wait < 1000000; wait++ ) {
80000f2a:	30 08       	mov	r8,0
80000f2c:	ef 48 ff f8 	st.w	r7[-8],r8
80000f30:	c0 78       	rjmp	80000f3e <_ZN6Segway12displayErrorEh+0x13e>
			asm( "nop" );
80000f32:	d7 03       	nop
		setStatusLED( &Configuration::greenStatusLEDConfig, false );
		for( unsigned long wait = 0; wait < 1000000; wait++ ) {
			asm( "nop" );
		}
		setStatusLED( &Configuration::greenStatusLEDConfig, true );
		for( unsigned long wait = 0; wait < 1000000; wait++ ) {
80000f34:	ee f8 ff f8 	ld.w	r8,r7[-8]
80000f38:	2f f8       	sub	r8,-1
80000f3a:	ef 48 ff f8 	st.w	r7[-8],r8
80000f3e:	ee f8 ff f8 	ld.w	r8,r7[-8]
80000f42:	ee 58 42 3f 	cp.w	r8,999999
80000f46:	5f 88       	srls	r8
80000f48:	5c 58       	castu.b	r8
80000f4a:	cf 41       	brne	80000f32 <_ZN6Segway12displayErrorEh+0x132>
			asm( "nop" );
		}
		setStatusLED( &Configuration::greenStatusLEDConfig, false );
80000f4c:	30 0a       	mov	r10,0
80000f4e:	48 cb       	lddpc	r11,80000f7c <_ZN6Segway12displayErrorEh+0x17c>
80000f50:	ee fc ff e0 	ld.w	r12,r7[-32]
80000f54:	f0 1f 00 0b 	mcall	80000f80 <_ZN6Segway12displayErrorEh+0x180>
		for( unsigned long wait = 0; wait < 1000000; wait++ ) {
80000f58:	30 08       	mov	r8,0
80000f5a:	ef 48 ff fc 	st.w	r7[-4],r8
80000f5e:	c0 78       	rjmp	80000f6c <_ZN6Segway12displayErrorEh+0x16c>
			asm( "nop" );
80000f60:	d7 03       	nop
		setStatusLED( &Configuration::greenStatusLEDConfig, true );
		for( unsigned long wait = 0; wait < 1000000; wait++ ) {
			asm( "nop" );
		}
		setStatusLED( &Configuration::greenStatusLEDConfig, false );
		for( unsigned long wait = 0; wait < 1000000; wait++ ) {
80000f62:	ee f8 ff fc 	ld.w	r8,r7[-4]
80000f66:	2f f8       	sub	r8,-1
80000f68:	ef 48 ff fc 	st.w	r7[-4],r8
80000f6c:	ee f8 ff fc 	ld.w	r8,r7[-4]
80000f70:	ee 58 42 3f 	cp.w	r8,999999
80000f74:	5f 88       	srls	r8
80000f76:	5c 58       	castu.b	r8
80000f78:	cf 41       	brne	80000f60 <_ZN6Segway12displayErrorEh+0x160>
*/
void Segway::displayError( unsigned char errorCode ) {
	// turn off both LEDs
	setStatusLED( &Configuration::greenStatusLEDConfig, false );
	setStatusLED( &Configuration::redStatusLEDConfig, false );
	while( true ) {
80000f7a:	c5 8b       	rjmp	80000e2a <_ZN6Segway12displayErrorEh+0x2a>
80000f7c:	00 00       	add	r0,r0
80000f7e:	07 28       	ld.uh	r8,r3++
80000f80:	80 00       	ld.sh	r0,r0[0x0]
80000f82:	0f 88       	ld.ub	r8,r7[0x0]
80000f84:	00 00       	add	r0,r0
80000f86:	07 20       	ld.uh	r0,r3++

80000f88 <_ZN6Segway12setStatusLEDEPN13Configuration11s_StatusLEDEb>:

/*! \brief	Enables/Disables the status LEDs.
	\param	statusLEDConfig	[in] Pointer to the configuration struct for the LED to initialize.
	\param	on	[in] true = LED on, false = LED off
*/
void Segway::setStatusLED( Configuration::s_StatusLED* statusLEDConfig, bool on ) {
80000f88:	eb cd 40 80 	pushm	r7,lr
80000f8c:	1a 97       	mov	r7,sp
80000f8e:	20 3d       	sub	sp,12
80000f90:	ef 4c ff fc 	st.w	r7[-4],r12
80000f94:	ef 4b ff f8 	st.w	r7[-8],r11
80000f98:	14 98       	mov	r8,r10
80000f9a:	ef 68 ff f4 	st.b	r7[-12],r8
	if( on ) {
80000f9e:	ef 39 ff f4 	ld.ub	r9,r7[-12]
80000fa2:	30 08       	mov	r8,0
80000fa4:	f0 09 18 00 	cp.b	r9,r8
80000fa8:	c1 f0       	breq	80000fe6 <_ZN6Segway12setStatusLEDEPN13Configuration11s_StatusLEDEb+0x5e>
		//CLEAR_BIT( AVR32_GPIO.port[statusLEDConfig->port].ovr, statusLEDConfig->pin );
		CLEAR_BIT( *( volatile unsigned int* ) ( MYAVR32_GPIO_ADDRESS + statusLEDConfig->port * MYAVR32_GPIO_SIZE_PORT + MYAVR32_GPIO_OFFSET_OVR ), statusLEDConfig->pin );
80000faa:	49 f8       	lddpc	r8,80001024 <_ZN6Segway12setStatusLEDEPN13Configuration11s_StatusLEDEb+0x9c>
80000fac:	70 09       	ld.w	r9,r8[0x0]
80000fae:	ee f8 ff f8 	ld.w	r8,r7[-8]
80000fb2:	11 88       	ld.ub	r8,r8[0x0]
80000fb4:	a9 68       	lsl	r8,0x8
80000fb6:	2b 08       	sub	r8,-80
80000fb8:	f2 08 00 08 	add	r8,r9,r8
80000fbc:	49 a9       	lddpc	r9,80001024 <_ZN6Segway12setStatusLEDEPN13Configuration11s_StatusLEDEb+0x9c>
80000fbe:	72 0a       	ld.w	r10,r9[0x0]
80000fc0:	ee f9 ff f8 	ld.w	r9,r7[-8]
80000fc4:	13 89       	ld.ub	r9,r9[0x0]
80000fc6:	a9 69       	lsl	r9,0x8
80000fc8:	2b 09       	sub	r9,-80
80000fca:	f4 09 00 09 	add	r9,r10,r9
80000fce:	72 0a       	ld.w	r10,r9[0x0]
80000fd0:	ee f9 ff f8 	ld.w	r9,r7[-8]
80000fd4:	72 19       	ld.w	r9,r9[0x4]
80000fd6:	30 1b       	mov	r11,1
80000fd8:	f6 09 09 49 	lsl	r9,r11,r9
80000fdc:	5c d9       	com	r9
80000fde:	f5 e9 00 09 	and	r9,r10,r9
80000fe2:	91 09       	st.w	r8[0x0],r9
80000fe4:	c1 d8       	rjmp	8000101e <_ZN6Segway12setStatusLEDEPN13Configuration11s_StatusLEDEb+0x96>
	} else {
		//SET_BIT( AVR32_GPIO.port[statusLEDConfig->port].ovr, statusLEDConfig->pin );
		SET_BIT( *( volatile unsigned int* ) ( MYAVR32_GPIO_ADDRESS + statusLEDConfig->port * MYAVR32_GPIO_SIZE_PORT + MYAVR32_GPIO_OFFSET_OVR ), statusLEDConfig->pin );
80000fe6:	49 08       	lddpc	r8,80001024 <_ZN6Segway12setStatusLEDEPN13Configuration11s_StatusLEDEb+0x9c>
80000fe8:	70 09       	ld.w	r9,r8[0x0]
80000fea:	ee f8 ff f8 	ld.w	r8,r7[-8]
80000fee:	11 88       	ld.ub	r8,r8[0x0]
80000ff0:	a9 68       	lsl	r8,0x8
80000ff2:	2b 08       	sub	r8,-80
80000ff4:	f2 08 00 08 	add	r8,r9,r8
80000ff8:	48 b9       	lddpc	r9,80001024 <_ZN6Segway12setStatusLEDEPN13Configuration11s_StatusLEDEb+0x9c>
80000ffa:	72 0a       	ld.w	r10,r9[0x0]
80000ffc:	ee f9 ff f8 	ld.w	r9,r7[-8]
80001000:	13 89       	ld.ub	r9,r9[0x0]
80001002:	a9 69       	lsl	r9,0x8
80001004:	2b 09       	sub	r9,-80
80001006:	f4 09 00 09 	add	r9,r10,r9
8000100a:	72 0a       	ld.w	r10,r9[0x0]
8000100c:	ee f9 ff f8 	ld.w	r9,r7[-8]
80001010:	72 19       	ld.w	r9,r9[0x4]
80001012:	30 1b       	mov	r11,1
80001014:	f6 09 09 49 	lsl	r9,r11,r9
80001018:	f5 e9 10 09 	or	r9,r10,r9
8000101c:	91 09       	st.w	r8[0x0],r9
	}
}
8000101e:	2f dd       	sub	sp,-12
80001020:	e3 cd 80 80 	ldm	sp++,r7,pc
80001024:	00 00       	add	r0,r0
80001026:	00 90       	mov	r0,r0

80001028 <_ZN3ADC4initEv>:
	
	cleanUpChannel( ID );

}
 
bool ADC::init() {
80001028:	eb cd 40 80 	pushm	r7,lr
8000102c:	1a 97       	mov	r7,sp
8000102e:	20 1d       	sub	sp,4
80001030:	ef 4c ff fc 	st.w	r7[-4],r12
		
	//Channel enable
	*thisadc = ADC_BASE + CHANNEL_ENABLE_REGISTER_OFFSET;
80001034:	ee f8 ff fc 	ld.w	r8,r7[-4]
80001038:	70 08       	ld.w	r8,r8[0x0]
8000103a:	e0 69 3c 10 	mov	r9,15376
8000103e:	ea 19 0f ff 	orh	r9,0xfff
80001042:	91 09       	st.w	r8[0x0],r9
	*thisadc = *thisadc | ID;
80001044:	ee f8 ff fc 	ld.w	r8,r7[-4]
80001048:	70 08       	ld.w	r8,r8[0x0]
8000104a:	ee f9 ff fc 	ld.w	r9,r7[-4]
8000104e:	72 09       	ld.w	r9,r9[0x0]
80001050:	72 09       	ld.w	r9,r9[0x0]
80001052:	12 9a       	mov	r10,r9
80001054:	ee f9 ff fc 	ld.w	r9,r7[-4]
80001058:	72 39       	ld.w	r9,r9[0xc]
8000105a:	f5 e9 10 09 	or	r9,r10,r9
8000105e:	91 09       	st.w	r8[0x0],r9
	
	//10-bit Konvertierung einstellen
	*thisadc = ADC_BASE + MODE_REGISTER_OFFSET;
80001060:	ee f8 ff fc 	ld.w	r8,r7[-4]
80001064:	70 08       	ld.w	r8,r8[0x0]
80001066:	e0 69 3c 04 	mov	r9,15364
8000106a:	ea 19 0f ff 	orh	r9,0xfff
8000106e:	91 09       	st.w	r8[0x0],r9
	*thisadc = *thisadc & ~0b1000; 
80001070:	ee f8 ff fc 	ld.w	r8,r7[-4]
80001074:	70 08       	ld.w	r8,r8[0x0]
80001076:	ee f9 ff fc 	ld.w	r9,r7[-4]
8000107a:	72 09       	ld.w	r9,r9[0x0]
8000107c:	72 09       	ld.w	r9,r9[0x0]
8000107e:	a3 d9       	cbr	r9,0x3
80001080:	91 09       	st.w	r8[0x0],r9
	
	//Konvertierung starten
	*thisadc = ADC_BASE + CONTROL_REGISTER_OFFSET;
80001082:	ee f8 ff fc 	ld.w	r8,r7[-4]
80001086:	70 08       	ld.w	r8,r8[0x0]
80001088:	e0 69 3c 00 	mov	r9,15360
8000108c:	ea 19 0f ff 	orh	r9,0xfff
80001090:	91 09       	st.w	r8[0x0],r9
	*thisadc = *thisadc | 0b01;
80001092:	ee f8 ff fc 	ld.w	r8,r7[-4]
80001096:	70 08       	ld.w	r8,r8[0x0]
80001098:	ee f9 ff fc 	ld.w	r9,r7[-4]
8000109c:	72 09       	ld.w	r9,r9[0x0]
8000109e:	72 09       	ld.w	r9,r9[0x0]
800010a0:	a1 a9       	sbr	r9,0x0
800010a2:	91 09       	st.w	r8[0x0],r9
	
	return 1;
800010a4:	30 18       	mov	r8,1
}
800010a6:	10 9c       	mov	r12,r8
800010a8:	2f fd       	sub	sp,-4
800010aa:	e3 cd 80 80 	ldm	sp++,r7,pc

800010ae <_ZN3ADC14cleanUpChannelEh>:
	}
 
	return channelValue;
}

void ADC::cleanUpChannel( unsigned char channelID ) {
800010ae:	eb cd 40 80 	pushm	r7,lr
800010b2:	1a 97       	mov	r7,sp
800010b4:	20 3d       	sub	sp,12
800010b6:	ef 4c ff f8 	st.w	r7[-8],r12
800010ba:	16 98       	mov	r8,r11
800010bc:	ef 68 ff f4 	st.b	r7[-12],r8
	
	//Channel2 disable
	int intChannelID = ( int ) channelID;
800010c0:	ef 38 ff f4 	ld.ub	r8,r7[-12]
800010c4:	ef 48 ff fc 	st.w	r7[-4],r8
	*thisadc = ADC_BASE + CHANNEL_DISABLE_REGISTER_OFFSET;
800010c8:	ee f8 ff f8 	ld.w	r8,r7[-8]
800010cc:	70 08       	ld.w	r8,r8[0x0]
800010ce:	e0 69 3c 14 	mov	r9,15380
800010d2:	ea 19 0f ff 	orh	r9,0xfff
800010d6:	91 09       	st.w	r8[0x0],r9
	*thisadc = *thisadc | intChannelID; //respektive 0b10
800010d8:	ee f8 ff f8 	ld.w	r8,r7[-8]
800010dc:	70 08       	ld.w	r8,r8[0x0]
800010de:	ee f9 ff f8 	ld.w	r9,r7[-8]
800010e2:	72 09       	ld.w	r9,r9[0x0]
800010e4:	72 0a       	ld.w	r10,r9[0x0]
800010e6:	ee f9 ff fc 	ld.w	r9,r7[-4]
800010ea:	f5 e9 10 09 	or	r9,r10,r9
800010ee:	91 09       	st.w	r8[0x0],r9
	
	//ADC reset
	*thisadc = ADC_BASE + CONTROL_REGISTER_OFFSET;
800010f0:	ee f8 ff f8 	ld.w	r8,r7[-8]
800010f4:	70 08       	ld.w	r8,r8[0x0]
800010f6:	e0 69 3c 00 	mov	r9,15360
800010fa:	ea 19 0f ff 	orh	r9,0xfff
800010fe:	91 09       	st.w	r8[0x0],r9
	*thisadc = *thisadc | 0x00;
80001100:	ee f8 ff f8 	ld.w	r8,r7[-8]
80001104:	70 08       	ld.w	r8,r8[0x0]
80001106:	ee f9 ff f8 	ld.w	r9,r7[-8]
8000110a:	72 09       	ld.w	r9,r9[0x0]
8000110c:	72 09       	ld.w	r9,r9[0x0]
8000110e:	91 09       	st.w	r8[0x0],r9
}
80001110:	2f dd       	sub	sp,-12
80001112:	e3 cd 80 80 	ldm	sp++,r7,pc
80001116:	d7 03       	nop

80001118 <_ZN5Motor8setSpeedEh>:
    directionPinForwardValue = thisMotorConfig_->directionPinForwardValue;
    directionPinPin = thisMotorConfig_->directionPinPin;
	return true;
}

bool Motor::setSpeed( unsigned char ratioOn ) {
80001118:	eb cd 40 80 	pushm	r7,lr
8000111c:	1a 97       	mov	r7,sp
8000111e:	20 2d       	sub	sp,8
80001120:	ef 4c ff fc 	st.w	r7[-4],r12
80001124:	16 98       	mov	r8,r11
80001126:	ef 68 ff f8 	st.b	r7[-8],r8
    // forward call to PWM
    return pwm->setChannelPWMRatio(ratioOn);
8000112a:	ef 39 ff f8 	ld.ub	r9,r7[-8]
8000112e:	ee f8 ff fc 	ld.w	r8,r7[-4]
80001132:	70 08       	ld.w	r8,r8[0x0]
80001134:	30 0a       	mov	r10,0
80001136:	12 9b       	mov	r11,r9
80001138:	10 9c       	mov	r12,r8
8000113a:	f0 1f 00 04 	mcall	80001148 <_ZN5Motor8setSpeedEh+0x30>
8000113e:	18 98       	mov	r8,r12
}
80001140:	10 9c       	mov	r12,r8
80001142:	2f ed       	sub	sp,-8
80001144:	e3 cd 80 80 	ldm	sp++,r7,pc
80001148:	80 00       	ld.sh	r0,r0[0x0]
8000114a:	1b 4e       	ld.w	lr,--sp

8000114c <_ZN5Motor12setDirectionEb>:
unsigned char Motor::getSpeed() {
    // forward call to PWM
	return pwm->getChannelPWMRatio();
}

void Motor::setDirection( bool forward ) {
8000114c:	eb cd 40 80 	pushm	r7,lr
80001150:	1a 97       	mov	r7,sp
80001152:	20 2d       	sub	sp,8
80001154:	ef 4c ff fc 	st.w	r7[-4],r12
80001158:	16 98       	mov	r8,r11
8000115a:	ef 68 ff f8 	st.b	r7[-8],r8
    // set direction pin value
    if (forward == directionPinForwardValue) SET_BIT(*OVR, directionPinPin);
8000115e:	ee f8 ff fc 	ld.w	r8,r7[-4]
80001162:	f1 38 00 08 	ld.ub	r8,r8[8]
80001166:	ef 39 ff f8 	ld.ub	r9,r7[-8]
8000116a:	f0 09 18 00 	cp.b	r9,r8
8000116e:	c1 31       	brne	80001194 <_ZN5Motor12setDirectionEb+0x48>
80001170:	ee f8 ff fc 	ld.w	r8,r7[-4]
80001174:	70 18       	ld.w	r8,r8[0x4]
80001176:	ee f9 ff fc 	ld.w	r9,r7[-4]
8000117a:	72 19       	ld.w	r9,r9[0x4]
8000117c:	72 09       	ld.w	r9,r9[0x0]
8000117e:	12 9a       	mov	r10,r9
80001180:	ee f9 ff fc 	ld.w	r9,r7[-4]
80001184:	72 39       	ld.w	r9,r9[0xc]
80001186:	30 1b       	mov	r11,1
80001188:	f6 09 09 49 	lsl	r9,r11,r9
8000118c:	f5 e9 10 09 	or	r9,r10,r9
80001190:	91 09       	st.w	r8[0x0],r9
80001192:	c1 38       	rjmp	800011b8 <_ZN5Motor12setDirectionEb+0x6c>
    else CLEAR_BIT(*OVR, directionPinPin);
80001194:	ee f8 ff fc 	ld.w	r8,r7[-4]
80001198:	70 18       	ld.w	r8,r8[0x4]
8000119a:	ee f9 ff fc 	ld.w	r9,r7[-4]
8000119e:	72 19       	ld.w	r9,r9[0x4]
800011a0:	72 09       	ld.w	r9,r9[0x0]
800011a2:	12 9a       	mov	r10,r9
800011a4:	ee f9 ff fc 	ld.w	r9,r7[-4]
800011a8:	72 39       	ld.w	r9,r9[0xc]
800011aa:	30 1b       	mov	r11,1
800011ac:	f6 09 09 49 	lsl	r9,r11,r9
800011b0:	5c d9       	com	r9
800011b2:	f5 e9 00 09 	and	r9,r10,r9
800011b6:	91 09       	st.w	r8[0x0],r9
}
800011b8:	2f ed       	sub	sp,-8
800011ba:	e3 cd 80 80 	ldm	sp++,r7,pc
800011be:	d7 03       	nop

800011c0 <_ZN5Motor10setEnabledEb>:

void Motor::setEnabled( bool enabled ) {
800011c0:	eb cd 40 80 	pushm	r7,lr
800011c4:	1a 97       	mov	r7,sp
800011c6:	20 2d       	sub	sp,8
800011c8:	18 98       	mov	r8,r12
800011ca:	ef 68 ff f8 	st.b	r7[-8],r8
    // set enable value
    VINTP OVR = (int*) (GPIO_MODULE + (Configuration::Motor_enabledPinPort ? PORT_OFFSET : 0) + OVR_OFFSET);
800011ce:	49 b8       	lddpc	r8,80001238 <_ZN5Motor10setEnabledEb+0x78>
800011d0:	11 88       	ld.ub	r8,r8[0x0]
800011d2:	58 08       	cp.w	r8,0
800011d4:	c0 40       	breq	800011dc <_ZN5Motor10setEnabledEb+0x1c>
800011d6:	fe 78 11 50 	mov	r8,-61104
800011da:	c0 38       	rjmp	800011e0 <_ZN5Motor10setEnabledEb+0x20>
800011dc:	fe 78 10 50 	mov	r8,-61360
800011e0:	ef 48 ff fc 	st.w	r7[-4],r8
    if (enabled) SET_BIT(*OVR, Configuration::Motor_enabledPinPin);
800011e4:	ef 39 ff f8 	ld.ub	r9,r7[-8]
800011e8:	30 08       	mov	r8,0
800011ea:	f0 09 18 00 	cp.b	r9,r8
800011ee:	c1 10       	breq	80001210 <_ZN5Motor10setEnabledEb+0x50>
800011f0:	ee f8 ff fc 	ld.w	r8,r7[-4]
800011f4:	70 08       	ld.w	r8,r8[0x0]
800011f6:	10 99       	mov	r9,r8
800011f8:	49 18       	lddpc	r8,8000123c <_ZN5Motor10setEnabledEb+0x7c>
800011fa:	70 08       	ld.w	r8,r8[0x0]
800011fc:	30 1a       	mov	r10,1
800011fe:	f4 08 09 48 	lsl	r8,r10,r8
80001202:	f3 e8 10 08 	or	r8,r9,r8
80001206:	10 99       	mov	r9,r8
80001208:	ee f8 ff fc 	ld.w	r8,r7[-4]
8000120c:	91 09       	st.w	r8[0x0],r9
8000120e:	c1 18       	rjmp	80001230 <_ZN5Motor10setEnabledEb+0x70>
	else CLEAR_BIT(*OVR, Configuration::Motor_enabledPinPin);
80001210:	ee f8 ff fc 	ld.w	r8,r7[-4]
80001214:	70 08       	ld.w	r8,r8[0x0]
80001216:	10 99       	mov	r9,r8
80001218:	48 98       	lddpc	r8,8000123c <_ZN5Motor10setEnabledEb+0x7c>
8000121a:	70 08       	ld.w	r8,r8[0x0]
8000121c:	30 1a       	mov	r10,1
8000121e:	f4 08 09 48 	lsl	r8,r10,r8
80001222:	5c d8       	com	r8
80001224:	f3 e8 00 08 	and	r8,r9,r8
80001228:	10 99       	mov	r9,r8
8000122a:	ee f8 ff fc 	ld.w	r8,r7[-4]
8000122e:	91 09       	st.w	r8[0x0],r9
}
80001230:	2f ed       	sub	sp,-8
80001232:	e3 cd 80 80 	ldm	sp++,r7,pc
80001236:	00 00       	add	r0,r0
80001238:	00 00       	add	r0,r0
8000123a:	06 2c       	rsub	r12,r3
8000123c:	00 00       	add	r0,r0
8000123e:	06 30       	cp.w	r0,r3

80001240 <_ZN13Configuration4initEv>:
	


/*! \brief	Initializes all configuration variables.
*/
void Configuration::init() {
80001240:	eb cd 40 80 	pushm	r7,lr
80001244:	1a 97       	mov	r7,sp
	// MISC
	Oscillator_Freq = 16000000;		//Oscillator frequency in Hz
80001246:	49 38       	lddpc	r8,80001290 <_ZN13Configuration4initEv+0x50>
80001248:	e0 69 24 00 	mov	r9,9216
8000124c:	ea 19 00 f4 	orh	r9,0xf4
80001250:	91 09       	st.w	r8[0x0],r9
	CPUCLK = Oscillator_Freq;
80001252:	49 08       	lddpc	r8,80001290 <_ZN13Configuration4initEv+0x50>
80001254:	70 09       	ld.w	r9,r8[0x0]
80001256:	49 08       	lddpc	r8,80001294 <_ZN13Configuration4initEv+0x54>
80001258:	91 09       	st.w	r8[0x0],r9
	PBACLK = Oscillator_Freq;
8000125a:	48 e8       	lddpc	r8,80001290 <_ZN13Configuration4initEv+0x50>
8000125c:	70 09       	ld.w	r9,r8[0x0]
8000125e:	48 f8       	lddpc	r8,80001298 <_ZN13Configuration4initEv+0x58>
80001260:	91 09       	st.w	r8[0x0],r9
	PWMCLK = Oscillator_Freq;
80001262:	48 c8       	lddpc	r8,80001290 <_ZN13Configuration4initEv+0x50>
80001264:	70 09       	ld.w	r9,r8[0x0]
80001266:	48 e8       	lddpc	r8,8000129c <_ZN13Configuration4initEv+0x5c>
80001268:	91 09       	st.w	r8[0x0],r9
	ADCCLK = Oscillator_Freq;
8000126a:	48 a8       	lddpc	r8,80001290 <_ZN13Configuration4initEv+0x50>
8000126c:	70 09       	ld.w	r9,r8[0x0]
8000126e:	48 d8       	lddpc	r8,800012a0 <_ZN13Configuration4initEv+0x60>
80001270:	91 09       	st.w	r8[0x0],r9
	
	init_Timer();
80001272:	f0 1f 00 0d 	mcall	800012a4 <_ZN13Configuration4initEv+0x64>
	init_PWM();
80001276:	f0 1f 00 0d 	mcall	800012a8 <_ZN13Configuration4initEv+0x68>
	init_Motor();
8000127a:	f0 1f 00 0d 	mcall	800012ac <_ZN13Configuration4initEv+0x6c>
	init_Sensors();
8000127e:	f0 1f 00 0d 	mcall	800012b0 <_ZN13Configuration4initEv+0x70>
	init_UART();
80001282:	f0 1f 00 0d 	mcall	800012b4 <_ZN13Configuration4initEv+0x74>
	init_StatusLEDs();
80001286:	f0 1f 00 0d 	mcall	800012b8 <_ZN13Configuration4initEv+0x78>
}
8000128a:	e3 cd 80 80 	ldm	sp++,r7,pc
8000128e:	00 00       	add	r0,r0
80001290:	00 00       	add	r0,r0
80001292:	05 dc       	ld.ub	r12,r2[0x5]
80001294:	00 00       	add	r0,r0
80001296:	05 e0       	ld.ub	r0,r2[0x6]
80001298:	00 00       	add	r0,r0
8000129a:	05 e4       	ld.ub	r4,r2[0x6]
8000129c:	00 00       	add	r0,r0
8000129e:	05 e8       	ld.ub	r8,r2[0x6]
800012a0:	00 00       	add	r0,r0
800012a2:	05 ec       	ld.ub	r12,r2[0x6]
800012a4:	80 00       	ld.sh	r0,r0[0x0]
800012a6:	12 bc       	st.h	r9++,r12
800012a8:	80 00       	ld.sh	r0,r0[0x0]
800012aa:	12 dc       	st.w	--r9,r12
800012ac:	80 00       	ld.sh	r0,r0[0x0]
800012ae:	13 48       	ld.w	r8,--r9
800012b0:	80 00       	ld.sh	r0,r0[0x0]
800012b2:	13 b4       	ld.ub	r4,r9[0x3]
800012b4:	80 00       	ld.sh	r0,r0[0x0]
800012b6:	15 c8       	ld.ub	r8,r10[0x4]
800012b8:	80 00       	ld.sh	r0,r0[0x0]
800012ba:	16 9c       	mov	r12,r11

800012bc <_ZN13Configuration10init_TimerEv>:
/*! \brief	Initializes timer variables.

		Timer_Channel: selects which of the controller's timer channel is used.
		Timer_Clock_Connection: selects source clock and prescaler.
*/
void Configuration::init_Timer() {
800012bc:	eb cd 40 80 	pushm	r7,lr
800012c0:	1a 97       	mov	r7,sp
	Timer_Channel = 0;
800012c2:	48 59       	lddpc	r9,800012d4 <_ZN13Configuration10init_TimerEv+0x18>
800012c4:	30 08       	mov	r8,0
800012c6:	b2 88       	st.b	r9[0x0],r8
	Timer_Clock_Connection = 0x02;		// AVR32_TC_TIMER_CLOCK3 | OSC0: 16MHz, Prescaler: 8, Timer: 16 Bit => 30 Hz to 2 MHz
800012c8:	48 49       	lddpc	r9,800012d8 <_ZN13Configuration10init_TimerEv+0x1c>
800012ca:	30 28       	mov	r8,2
800012cc:	b2 88       	st.b	r9[0x0],r8
}
800012ce:	e3 cd 80 80 	ldm	sp++,r7,pc
800012d2:	00 00       	add	r0,r0
800012d4:	00 00       	add	r0,r0
800012d6:	05 f0       	ld.ub	r0,r2[0x7]
800012d8:	00 00       	add	r0,r0
800012da:	05 f1       	ld.ub	r1,r2[0x7]

800012dc <_ZN13Configuration8init_PWMEv>:
		frequency: PWM frequency.
		GPIO_port: GPIO port, at which the PWM signal is outputted.
		GPIO_pin: GPIO pin, at which the PWM signal is outputted.
		GPIO_multiplexRegisterValue: value for the GPIO port's multiplexer to select PWM as signal source.
*/
void Configuration::init_PWM() {
800012dc:	eb cd 40 80 	pushm	r7,lr
800012e0:	1a 97       	mov	r7,sp
	leftPWMConfig.channelID = 0;
800012e2:	49 89       	lddpc	r9,80001340 <_ZN13Configuration8init_PWMEv+0x64>
800012e4:	30 08       	mov	r8,0
800012e6:	b2 88       	st.b	r9[0x0],r8
	leftPWMConfig.maxPWMRatio = 100;//204;
800012e8:	49 69       	lddpc	r9,80001340 <_ZN13Configuration8init_PWMEv+0x64>
800012ea:	36 48       	mov	r8,100
800012ec:	b2 98       	st.b	r9[0x1],r8
	leftPWMConfig.frequency = 18000;
800012ee:	49 58       	lddpc	r8,80001340 <_ZN13Configuration8init_PWMEv+0x64>
800012f0:	e0 69 46 50 	mov	r9,18000
800012f4:	91 19       	st.w	r8[0x4],r9
	leftPWMConfig.GPIO_port = 0; //PA11
800012f6:	49 39       	lddpc	r9,80001340 <_ZN13Configuration8init_PWMEv+0x64>
800012f8:	30 08       	mov	r8,0
800012fa:	f3 68 00 08 	st.b	r9[8],r8
	leftPWMConfig.GPIO_pin = 11;
800012fe:	49 19       	lddpc	r9,80001340 <_ZN13Configuration8init_PWMEv+0x64>
80001300:	30 b8       	mov	r8,11
80001302:	f3 68 00 09 	st.b	r9[9],r8
	leftPWMConfig.GPIO_multiplexRegisterValue = 2; //0b10 -> C
80001306:	48 f9       	lddpc	r9,80001340 <_ZN13Configuration8init_PWMEv+0x64>
80001308:	30 28       	mov	r8,2
8000130a:	f3 68 00 0a 	st.b	r9[10],r8
	
	rightPWMConfig.channelID = 1;
8000130e:	48 e9       	lddpc	r9,80001344 <_ZN13Configuration8init_PWMEv+0x68>
80001310:	30 18       	mov	r8,1
80001312:	b2 88       	st.b	r9[0x0],r8
	rightPWMConfig.maxPWMRatio = 100;//204;
80001314:	48 c9       	lddpc	r9,80001344 <_ZN13Configuration8init_PWMEv+0x68>
80001316:	36 48       	mov	r8,100
80001318:	b2 98       	st.b	r9[0x1],r8
	rightPWMConfig.frequency = 18000;
8000131a:	48 b8       	lddpc	r8,80001344 <_ZN13Configuration8init_PWMEv+0x68>
8000131c:	e0 69 46 50 	mov	r9,18000
80001320:	91 19       	st.w	r8[0x4],r9
	rightPWMConfig.GPIO_port = 0; //PA12
80001322:	48 99       	lddpc	r9,80001344 <_ZN13Configuration8init_PWMEv+0x68>
80001324:	30 08       	mov	r8,0
80001326:	f3 68 00 08 	st.b	r9[8],r8
	rightPWMConfig.GPIO_pin = 12;
8000132a:	48 79       	lddpc	r9,80001344 <_ZN13Configuration8init_PWMEv+0x68>
8000132c:	30 c8       	mov	r8,12
8000132e:	f3 68 00 09 	st.b	r9[9],r8
	rightPWMConfig.GPIO_multiplexRegisterValue = 2; //0b10 -> C
80001332:	48 59       	lddpc	r9,80001344 <_ZN13Configuration8init_PWMEv+0x68>
80001334:	30 28       	mov	r8,2
80001336:	f3 68 00 0a 	st.b	r9[10],r8
}
8000133a:	e3 cd 80 80 	ldm	sp++,r7,pc
8000133e:	00 00       	add	r0,r0
80001340:	00 00       	add	r0,r0
80001342:	05 f4       	ld.ub	r4,r2[0x7]
80001344:	00 00       	add	r0,r0
80001346:	06 00       	add	r0,r3

80001348 <_ZN13Configuration10init_MotorEv>:
		directionPinForwardValue: 1: high output = forward, 0: low output = forward.
		directionPinPort: GPIO port, at which the direction signal is outputted.
		directionPinPin: GPIO pin, at which the direction signal is outputted.
		PWMConfig: Pointer to the motor's PWM config.
*/
void Configuration::init_Motor() {
80001348:	eb cd 40 80 	pushm	r7,lr
8000134c:	1a 97       	mov	r7,sp
	Motor_enabledPinEnabledValue = 1;
8000134e:	49 39       	lddpc	r9,80001398 <_ZN13Configuration10init_MotorEv+0x50>
80001350:	30 18       	mov	r8,1
80001352:	b2 88       	st.b	r9[0x0],r8
	Motor_enabledPinPort = 0; //PA16
80001354:	49 29       	lddpc	r9,8000139c <_ZN13Configuration10init_MotorEv+0x54>
80001356:	30 08       	mov	r8,0
80001358:	b2 88       	st.b	r9[0x0],r8
	Motor_enabledPinPin = 16;
8000135a:	49 28       	lddpc	r8,800013a0 <_ZN13Configuration10init_MotorEv+0x58>
8000135c:	31 09       	mov	r9,16
8000135e:	91 09       	st.w	r8[0x0],r9
	
	rightMotorConfig.directionPinForwardValue = 1;
80001360:	49 19       	lddpc	r9,800013a4 <_ZN13Configuration10init_MotorEv+0x5c>
80001362:	30 18       	mov	r8,1
80001364:	f3 68 00 08 	st.b	r9[8],r8
	rightMotorConfig.directionPinPort = 0; //PA14
80001368:	48 f9       	lddpc	r9,800013a4 <_ZN13Configuration10init_MotorEv+0x5c>
8000136a:	30 08       	mov	r8,0
8000136c:	b2 88       	st.b	r9[0x0],r8
	rightMotorConfig.directionPinPin = 14;
8000136e:	48 e8       	lddpc	r8,800013a4 <_ZN13Configuration10init_MotorEv+0x5c>
80001370:	30 e9       	mov	r9,14
80001372:	91 19       	st.w	r8[0x4],r9
	rightMotorConfig.PWMConfig = &leftPWMConfig;
80001374:	48 c8       	lddpc	r8,800013a4 <_ZN13Configuration10init_MotorEv+0x5c>
80001376:	48 d9       	lddpc	r9,800013a8 <_ZN13Configuration10init_MotorEv+0x60>
80001378:	91 39       	st.w	r8[0xc],r9
	
	leftMotorConfig.directionPinForwardValue = 1;
8000137a:	48 d9       	lddpc	r9,800013ac <_ZN13Configuration10init_MotorEv+0x64>
8000137c:	30 18       	mov	r8,1
8000137e:	f3 68 00 08 	st.b	r9[8],r8
	leftMotorConfig.directionPinPort = 0; //PA15
80001382:	48 b9       	lddpc	r9,800013ac <_ZN13Configuration10init_MotorEv+0x64>
80001384:	30 08       	mov	r8,0
80001386:	b2 88       	st.b	r9[0x0],r8
	leftMotorConfig.directionPinPin = 15;
80001388:	48 98       	lddpc	r8,800013ac <_ZN13Configuration10init_MotorEv+0x64>
8000138a:	30 f9       	mov	r9,15
8000138c:	91 19       	st.w	r8[0x4],r9
	leftMotorConfig.PWMConfig = &rightPWMConfig;
8000138e:	48 88       	lddpc	r8,800013ac <_ZN13Configuration10init_MotorEv+0x64>
80001390:	48 89       	lddpc	r9,800013b0 <_ZN13Configuration10init_MotorEv+0x68>
80001392:	91 39       	st.w	r8[0xc],r9
}
80001394:	e3 cd 80 80 	ldm	sp++,r7,pc
80001398:	00 00       	add	r0,r0
8000139a:	06 34       	cp.w	r4,r3
8000139c:	00 00       	add	r0,r0
8000139e:	06 2c       	rsub	r12,r3
800013a0:	00 00       	add	r0,r0
800013a2:	06 30       	cp.w	r0,r3
800013a4:	00 00       	add	r0,r0
800013a6:	06 1c       	sub	r12,r3
800013a8:	00 00       	add	r0,r0
800013aa:	05 f4       	ld.ub	r4,r2[0x7]
800013ac:	00 00       	add	r0,r0
800013ae:	06 0c       	add	r12,r3
800013b0:	00 00       	add	r0,r0
800013b2:	06 00       	add	r0,r3

800013b4 <_ZN13Configuration12init_SensorsEv>:
		ADC_Internal_Clock:	Target value for ADC internal clock (Clock used for the AD conversion).
							For 10 bit conversion this clock must not exceed 5 MHz.
							The prescaler is automatically chosen by the ADC class to set this clock
							to the closest value available, which is lower than ADC_Internal_Clock.
*/
void Configuration::init_Sensors() {
800013b4:	eb cd 40 80 	pushm	r7,lr
800013b8:	1a 97       	mov	r7,sp
	// GPIO-Sensors
	init_Sensor_FootSwitch();
800013ba:	f0 1f 00 0b 	mcall	800013e4 <_ZN13Configuration12init_SensorsEv+0x30>
	
	// ADC-Sensors
	ADC_Internal_Clock = 5000000;	
800013be:	48 b8       	lddpc	r8,800013e8 <_ZN13Configuration12init_SensorsEv+0x34>
800013c0:	e0 69 4b 40 	mov	r9,19264
800013c4:	ea 19 00 4c 	orh	r9,0x4c
800013c8:	91 09       	st.w	r8[0x0],r9
	
	init_Sensor_OrientationAccelerometer();
800013ca:	f0 1f 00 09 	mcall	800013ec <_ZN13Configuration12init_SensorsEv+0x38>
	init_Sensor_OrientationGyrometer();
800013ce:	f0 1f 00 09 	mcall	800013f0 <_ZN13Configuration12init_SensorsEv+0x3c>
	init_Sensor_OrientationGyrometerReference();
800013d2:	f0 1f 00 09 	mcall	800013f4 <_ZN13Configuration12init_SensorsEv+0x40>
	init_Sensor_SteeringPotentiometer();
800013d6:	f0 1f 00 09 	mcall	800013f8 <_ZN13Configuration12init_SensorsEv+0x44>
	init_Sensor_BatteryVoltage();
800013da:	f0 1f 00 09 	mcall	800013fc <_ZN13Configuration12init_SensorsEv+0x48>
}
800013de:	e3 cd 80 80 	ldm	sp++,r7,pc
800013e2:	00 00       	add	r0,r0
800013e4:	80 00       	ld.sh	r0,r0[0x0]
800013e6:	14 00       	add	r0,r10
800013e8:	00 00       	add	r0,r0
800013ea:	06 44       	or	r4,r3
800013ec:	80 00       	ld.sh	r0,r0[0x0]
800013ee:	14 24       	rsub	r4,r10
800013f0:	80 00       	ld.sh	r0,r0[0x0]
800013f2:	14 78       	tst	r8,r10
800013f4:	80 00       	ld.sh	r0,r0[0x0]
800013f6:	14 cc       	st.b	r10++,r12
800013f8:	80 00       	ld.sh	r0,r0[0x0]
800013fa:	15 20       	ld.uh	r0,r10++
800013fc:	80 00       	ld.sh	r0,r0[0x0]
800013fe:	15 74       	ld.ub	r4,--r10

80001400 <_ZN13Configuration22init_Sensor_FootSwitchEv>:
		
		port: GPIO port, at which the foot switch signal is measured.
		pin: GPIO pin, at which the foot switch signal is measured.
		pullupEnabled: Enable GPIO pull up resistor..
*/
void Configuration::init_Sensor_FootSwitch() {
80001400:	eb cd 40 80 	pushm	r7,lr
80001404:	1a 97       	mov	r7,sp
	footSwitchConfig.port = 1; //PB06
80001406:	48 79       	lddpc	r9,80001420 <_ZN13Configuration22init_Sensor_FootSwitchEv+0x20>
80001408:	30 18       	mov	r8,1
8000140a:	b2 88       	st.b	r9[0x0],r8
	footSwitchConfig.pin = 6;
8000140c:	48 58       	lddpc	r8,80001420 <_ZN13Configuration22init_Sensor_FootSwitchEv+0x20>
8000140e:	30 69       	mov	r9,6
80001410:	91 19       	st.w	r8[0x4],r9
	footSwitchConfig.pullupEnabled = true;
80001412:	48 49       	lddpc	r9,80001420 <_ZN13Configuration22init_Sensor_FootSwitchEv+0x20>
80001414:	30 18       	mov	r8,1
80001416:	f3 68 00 08 	st.b	r9[8],r8
}
8000141a:	e3 cd 80 80 	ldm	sp++,r7,pc
8000141e:	00 00       	add	r0,r0
80001420:	00 00       	add	r0,r0
80001422:	06 38       	cp.w	r8,r3

80001424 <_ZN13Configuration36init_Sensor_OrientationAccelerometerEv>:
		useSlopeFactor: enable multiplication of the measured value by slopeFactor.
		slopeFactor: factor to multiply the measured value with.
		useZeroOffset: enable the subtraction of zeroOffset from the measured value before slopeFactor is applied.
		zeroOffset: offset to subtract from the measured value.
*/
void Configuration::init_Sensor_OrientationAccelerometer() {
80001424:	eb cd 40 80 	pushm	r7,lr
80001428:	1a 97       	mov	r7,sp
	ADC_gpioMultiplexData[3].configured = true;
8000142a:	49 29       	lddpc	r9,80001470 <_ZN13Configuration36init_Sensor_OrientationAccelerometerEv+0x4c>
8000142c:	30 18       	mov	r8,1
8000142e:	f3 68 00 24 	st.b	r9[36],r8
	ADC_gpioMultiplexData[3].port = 0; //PA06
80001432:	49 09       	lddpc	r9,80001470 <_ZN13Configuration36init_Sensor_OrientationAccelerometerEv+0x4c>
80001434:	30 08       	mov	r8,0
80001436:	f3 68 00 25 	st.b	r9[37],r8
	ADC_gpioMultiplexData[3].pin = 6;
8000143a:	48 e8       	lddpc	r8,80001470 <_ZN13Configuration36init_Sensor_OrientationAccelerometerEv+0x4c>
8000143c:	30 69       	mov	r9,6
8000143e:	91 a9       	st.w	r8[0x28],r9
	ADC_gpioMultiplexData[3].multiplexRegisterValue = 1; //0b01 -> B
80001440:	48 c9       	lddpc	r9,80001470 <_ZN13Configuration36init_Sensor_OrientationAccelerometerEv+0x4c>
80001442:	30 18       	mov	r8,1
80001444:	f3 68 00 2c 	st.b	r9[44],r8
	
	orientationAccelerometerConfig.ADCChannelID = 3;
80001448:	48 b8       	lddpc	r8,80001474 <_ZN13Configuration36init_Sensor_OrientationAccelerometerEv+0x50>
8000144a:	30 39       	mov	r9,3
8000144c:	91 09       	st.w	r8[0x0],r9
	orientationAccelerometerConfig.useSlopeFactor = false;
8000144e:	48 a9       	lddpc	r9,80001474 <_ZN13Configuration36init_Sensor_OrientationAccelerometerEv+0x50>
80001450:	30 08       	mov	r8,0
80001452:	f3 68 00 0d 	st.b	r9[13],r8
	orientationAccelerometerConfig.slopeFactor = 0;
80001456:	48 88       	lddpc	r8,80001474 <_ZN13Configuration36init_Sensor_OrientationAccelerometerEv+0x50>
80001458:	30 09       	mov	r9,0
8000145a:	91 29       	st.w	r8[0x8],r9
	orientationAccelerometerConfig.useZeroOffset = false;
8000145c:	48 69       	lddpc	r9,80001474 <_ZN13Configuration36init_Sensor_OrientationAccelerometerEv+0x50>
8000145e:	30 08       	mov	r8,0
80001460:	f3 68 00 0c 	st.b	r9[12],r8
	orientationAccelerometerConfig.zeroOffset = 0;
80001464:	48 48       	lddpc	r8,80001474 <_ZN13Configuration36init_Sensor_OrientationAccelerometerEv+0x50>
80001466:	30 09       	mov	r9,0
80001468:	91 19       	st.w	r8[0x4],r9
}
8000146a:	e3 cd 80 80 	ldm	sp++,r7,pc
8000146e:	00 00       	add	r0,r0
80001470:	00 00       	add	r0,r0
80001472:	06 48       	or	r8,r3
80001474:	00 00       	add	r0,r0
80001476:	06 a8       	st.w	r3++,r8

80001478 <_ZN13Configuration32init_Sensor_OrientationGyrometerEv>:
		useSlopeFactor: enable multiplication of the measured value by slopeFactor.
		slopeFactor: factor to multiply the measured value with.
		useZeroOffset: enable the subtraction of zeroOffset from the measured value before slopeFactor is applied.
		zeroOffset: offset to subtract from the measured value.
*/
void Configuration::init_Sensor_OrientationGyrometer() {
80001478:	eb cd 40 80 	pushm	r7,lr
8000147c:	1a 97       	mov	r7,sp
	ADC_gpioMultiplexData[1].configured = true;
8000147e:	49 29       	lddpc	r9,800014c4 <_ZN13Configuration32init_Sensor_OrientationGyrometerEv+0x4c>
80001480:	30 18       	mov	r8,1
80001482:	f3 68 00 0c 	st.b	r9[12],r8
	ADC_gpioMultiplexData[1].port = 0;
80001486:	49 09       	lddpc	r9,800014c4 <_ZN13Configuration32init_Sensor_OrientationGyrometerEv+0x4c>
80001488:	30 08       	mov	r8,0
8000148a:	f3 68 00 0d 	st.b	r9[13],r8
	ADC_gpioMultiplexData[1].pin = 4;
8000148e:	48 e8       	lddpc	r8,800014c4 <_ZN13Configuration32init_Sensor_OrientationGyrometerEv+0x4c>
80001490:	30 49       	mov	r9,4
80001492:	91 49       	st.w	r8[0x10],r9
	ADC_gpioMultiplexData[1].multiplexRegisterValue = 0; //0b00 -> A
80001494:	48 c9       	lddpc	r9,800014c4 <_ZN13Configuration32init_Sensor_OrientationGyrometerEv+0x4c>
80001496:	30 08       	mov	r8,0
80001498:	f3 68 00 14 	st.b	r9[20],r8
	
	orientationGyrometerConfig.ADCChannelID = 1;
8000149c:	48 b8       	lddpc	r8,800014c8 <_ZN13Configuration32init_Sensor_OrientationGyrometerEv+0x50>
8000149e:	30 19       	mov	r9,1
800014a0:	91 09       	st.w	r8[0x0],r9
	orientationGyrometerConfig.useSlopeFactor = false;
800014a2:	48 a9       	lddpc	r9,800014c8 <_ZN13Configuration32init_Sensor_OrientationGyrometerEv+0x50>
800014a4:	30 08       	mov	r8,0
800014a6:	f3 68 00 0d 	st.b	r9[13],r8
	orientationGyrometerConfig.slopeFactor = 0;
800014aa:	48 88       	lddpc	r8,800014c8 <_ZN13Configuration32init_Sensor_OrientationGyrometerEv+0x50>
800014ac:	30 09       	mov	r9,0
800014ae:	91 29       	st.w	r8[0x8],r9
	orientationGyrometerConfig.useZeroOffset = false;
800014b0:	48 69       	lddpc	r9,800014c8 <_ZN13Configuration32init_Sensor_OrientationGyrometerEv+0x50>
800014b2:	30 08       	mov	r8,0
800014b4:	f3 68 00 0c 	st.b	r9[12],r8
	orientationGyrometerConfig.zeroOffset = 0;
800014b8:	48 48       	lddpc	r8,800014c8 <_ZN13Configuration32init_Sensor_OrientationGyrometerEv+0x50>
800014ba:	30 09       	mov	r9,0
800014bc:	91 19       	st.w	r8[0x4],r9
}
800014be:	e3 cd 80 80 	ldm	sp++,r7,pc
800014c2:	00 00       	add	r0,r0
800014c4:	00 00       	add	r0,r0
800014c6:	06 48       	or	r8,r3
800014c8:	00 00       	add	r0,r0
800014ca:	06 b8       	st.h	r3++,r8

800014cc <_ZN13Configuration41init_Sensor_OrientationGyrometerReferenceEv>:
		useSlopeFactor: enable multiplication of the measured value by slopeFactor.
		slopeFactor: factor to multiply the measured value with.
		useZeroOffset: enable the subtraction of zeroOffset from the measured value before slopeFactor is applied.
		zeroOffset: offset to subtract from the measured value.
*/
void Configuration::init_Sensor_OrientationGyrometerReference() {
800014cc:	eb cd 40 80 	pushm	r7,lr
800014d0:	1a 97       	mov	r7,sp
	ADC_gpioMultiplexData[2].configured = true;
800014d2:	49 29       	lddpc	r9,80001518 <_ZN13Configuration41init_Sensor_OrientationGyrometerReferenceEv+0x4c>
800014d4:	30 18       	mov	r8,1
800014d6:	f3 68 00 18 	st.b	r9[24],r8
	ADC_gpioMultiplexData[2].port = 0;
800014da:	49 09       	lddpc	r9,80001518 <_ZN13Configuration41init_Sensor_OrientationGyrometerReferenceEv+0x4c>
800014dc:	30 08       	mov	r8,0
800014de:	f3 68 00 19 	st.b	r9[25],r8
	ADC_gpioMultiplexData[2].pin = 5;
800014e2:	48 e8       	lddpc	r8,80001518 <_ZN13Configuration41init_Sensor_OrientationGyrometerReferenceEv+0x4c>
800014e4:	30 59       	mov	r9,5
800014e6:	91 79       	st.w	r8[0x1c],r9
	ADC_gpioMultiplexData[2].multiplexRegisterValue = 1; //0b01 -> B
800014e8:	48 c9       	lddpc	r9,80001518 <_ZN13Configuration41init_Sensor_OrientationGyrometerReferenceEv+0x4c>
800014ea:	30 18       	mov	r8,1
800014ec:	f3 68 00 20 	st.b	r9[32],r8
	
	orientationGyrometerReferenceConfig.ADCChannelID = 2;
800014f0:	48 b8       	lddpc	r8,8000151c <_ZN13Configuration41init_Sensor_OrientationGyrometerReferenceEv+0x50>
800014f2:	30 29       	mov	r9,2
800014f4:	91 09       	st.w	r8[0x0],r9
	orientationGyrometerReferenceConfig.useSlopeFactor = false;
800014f6:	48 a9       	lddpc	r9,8000151c <_ZN13Configuration41init_Sensor_OrientationGyrometerReferenceEv+0x50>
800014f8:	30 08       	mov	r8,0
800014fa:	f3 68 00 0d 	st.b	r9[13],r8
	orientationGyrometerReferenceConfig.slopeFactor = 0;
800014fe:	48 88       	lddpc	r8,8000151c <_ZN13Configuration41init_Sensor_OrientationGyrometerReferenceEv+0x50>
80001500:	30 09       	mov	r9,0
80001502:	91 29       	st.w	r8[0x8],r9
	orientationGyrometerReferenceConfig.useZeroOffset = false;
80001504:	48 69       	lddpc	r9,8000151c <_ZN13Configuration41init_Sensor_OrientationGyrometerReferenceEv+0x50>
80001506:	30 08       	mov	r8,0
80001508:	f3 68 00 0c 	st.b	r9[12],r8
	orientationGyrometerReferenceConfig.zeroOffset = 0;
8000150c:	48 48       	lddpc	r8,8000151c <_ZN13Configuration41init_Sensor_OrientationGyrometerReferenceEv+0x50>
8000150e:	30 09       	mov	r9,0
80001510:	91 19       	st.w	r8[0x4],r9
}
80001512:	e3 cd 80 80 	ldm	sp++,r7,pc
80001516:	00 00       	add	r0,r0
80001518:	00 00       	add	r0,r0
8000151a:	06 48       	or	r8,r3
8000151c:	00 00       	add	r0,r0
8000151e:	06 c8       	st.b	r3++,r8

80001520 <_ZN13Configuration33init_Sensor_SteeringPotentiometerEv>:
		useSlopeFactor: enable multiplication of the measured value by slopeFactor.
		slopeFactor: factor to multiply the measured value with.
		useZeroOffset: enable the subtraction of zeroOffset from the measured value before slopeFactor is applied.
		zeroOffset: offset to subtract from the measured value.
*/
void Configuration::init_Sensor_SteeringPotentiometer() {
80001520:	eb cd 40 80 	pushm	r7,lr
80001524:	1a 97       	mov	r7,sp
	ADC_gpioMultiplexData[6].configured = true;
80001526:	49 29       	lddpc	r9,8000156c <_ZN13Configuration33init_Sensor_SteeringPotentiometerEv+0x4c>
80001528:	30 18       	mov	r8,1
8000152a:	f3 68 00 48 	st.b	r9[72],r8
	ADC_gpioMultiplexData[6].port = 0;
8000152e:	49 09       	lddpc	r9,8000156c <_ZN13Configuration33init_Sensor_SteeringPotentiometerEv+0x4c>
80001530:	30 08       	mov	r8,0
80001532:	f3 68 00 49 	st.b	r9[73],r8
	ADC_gpioMultiplexData[6].pin = 30;
80001536:	48 e8       	lddpc	r8,8000156c <_ZN13Configuration33init_Sensor_SteeringPotentiometerEv+0x4c>
80001538:	31 e9       	mov	r9,30
8000153a:	f1 49 00 4c 	st.w	r8[76],r9
	ADC_gpioMultiplexData[6].multiplexRegisterValue = 0; //0b00 -> A
8000153e:	48 c9       	lddpc	r9,8000156c <_ZN13Configuration33init_Sensor_SteeringPotentiometerEv+0x4c>
80001540:	30 08       	mov	r8,0
80001542:	f3 68 00 50 	st.b	r9[80],r8
	
	steeringPotentiometerConfig.ADCChannelID = 6;
80001546:	48 b8       	lddpc	r8,80001570 <_ZN13Configuration33init_Sensor_SteeringPotentiometerEv+0x50>
80001548:	30 69       	mov	r9,6
8000154a:	91 09       	st.w	r8[0x0],r9
	steeringPotentiometerConfig.useSlopeFactor = false;
8000154c:	48 99       	lddpc	r9,80001570 <_ZN13Configuration33init_Sensor_SteeringPotentiometerEv+0x50>
8000154e:	30 08       	mov	r8,0
80001550:	f3 68 00 0d 	st.b	r9[13],r8
	steeringPotentiometerConfig.slopeFactor = 0;
80001554:	48 78       	lddpc	r8,80001570 <_ZN13Configuration33init_Sensor_SteeringPotentiometerEv+0x50>
80001556:	30 09       	mov	r9,0
80001558:	91 29       	st.w	r8[0x8],r9
	steeringPotentiometerConfig.useZeroOffset = false;
8000155a:	48 69       	lddpc	r9,80001570 <_ZN13Configuration33init_Sensor_SteeringPotentiometerEv+0x50>
8000155c:	30 08       	mov	r8,0
8000155e:	f3 68 00 0c 	st.b	r9[12],r8
	steeringPotentiometerConfig.zeroOffset = 0;
80001562:	48 48       	lddpc	r8,80001570 <_ZN13Configuration33init_Sensor_SteeringPotentiometerEv+0x50>
80001564:	30 09       	mov	r9,0
80001566:	91 19       	st.w	r8[0x4],r9
}
80001568:	e3 cd 80 80 	ldm	sp++,r7,pc
8000156c:	00 00       	add	r0,r0
8000156e:	06 48       	or	r8,r3
80001570:	00 00       	add	r0,r0
80001572:	06 d8       	st.w	--r3,r8

80001574 <_ZN13Configuration26init_Sensor_BatteryVoltageEv>:
		useSlopeFactor: enable multiplication of the measured value by slopeFactor.
		slopeFactor: factor to multiply the measured value with.
		useZeroOffset: enable the subtraction of zeroOffset from the measured value before slopeFactor is applied.
		zeroOffset: offset to subtract from the measured value.
*/
void Configuration::init_Sensor_BatteryVoltage() {
80001574:	eb cd 40 80 	pushm	r7,lr
80001578:	1a 97       	mov	r7,sp
	ADC_gpioMultiplexData[7].configured = true;
8000157a:	49 29       	lddpc	r9,800015c0 <_ZN13Configuration26init_Sensor_BatteryVoltageEv+0x4c>
8000157c:	30 18       	mov	r8,1
8000157e:	f3 68 00 54 	st.b	r9[84],r8
	ADC_gpioMultiplexData[7].port = 0;
80001582:	49 09       	lddpc	r9,800015c0 <_ZN13Configuration26init_Sensor_BatteryVoltageEv+0x4c>
80001584:	30 08       	mov	r8,0
80001586:	f3 68 00 55 	st.b	r9[85],r8
	ADC_gpioMultiplexData[7].pin = 31;
8000158a:	48 e8       	lddpc	r8,800015c0 <_ZN13Configuration26init_Sensor_BatteryVoltageEv+0x4c>
8000158c:	31 f9       	mov	r9,31
8000158e:	f1 49 00 58 	st.w	r8[88],r9
	ADC_gpioMultiplexData[7].multiplexRegisterValue = 0; //0b00 -> A
80001592:	48 c9       	lddpc	r9,800015c0 <_ZN13Configuration26init_Sensor_BatteryVoltageEv+0x4c>
80001594:	30 08       	mov	r8,0
80001596:	f3 68 00 5c 	st.b	r9[92],r8
	
	batteryVoltageSensorConfig.ADCChannelID = 7;
8000159a:	48 b8       	lddpc	r8,800015c4 <_ZN13Configuration26init_Sensor_BatteryVoltageEv+0x50>
8000159c:	30 79       	mov	r9,7
8000159e:	91 09       	st.w	r8[0x0],r9
	batteryVoltageSensorConfig.useSlopeFactor = false;
800015a0:	48 99       	lddpc	r9,800015c4 <_ZN13Configuration26init_Sensor_BatteryVoltageEv+0x50>
800015a2:	30 08       	mov	r8,0
800015a4:	f3 68 00 0d 	st.b	r9[13],r8
	batteryVoltageSensorConfig.slopeFactor = 0;
800015a8:	48 78       	lddpc	r8,800015c4 <_ZN13Configuration26init_Sensor_BatteryVoltageEv+0x50>
800015aa:	30 09       	mov	r9,0
800015ac:	91 29       	st.w	r8[0x8],r9
	batteryVoltageSensorConfig.useZeroOffset = false;
800015ae:	48 69       	lddpc	r9,800015c4 <_ZN13Configuration26init_Sensor_BatteryVoltageEv+0x50>
800015b0:	30 08       	mov	r8,0
800015b2:	f3 68 00 0c 	st.b	r9[12],r8
	batteryVoltageSensorConfig.zeroOffset = 0;
800015b6:	48 48       	lddpc	r8,800015c4 <_ZN13Configuration26init_Sensor_BatteryVoltageEv+0x50>
800015b8:	30 09       	mov	r9,0
800015ba:	91 19       	st.w	r8[0x4],r9
}
800015bc:	e3 cd 80 80 	ldm	sp++,r7,pc
800015c0:	00 00       	add	r0,r0
800015c2:	06 48       	or	r8,r3
800015c4:	00 00       	add	r0,r0
800015c6:	06 e8       	st.h	--r3,r8

800015c8 <_ZN13Configuration9init_UARTEv>:
		RX_GPIO_multiplexRegisterValue: value for the receiving GPIO port's multiplexer to select USART as destination.
		TX_GPIO_port: sending GPIO port
		TX_GPIO_pin: sending GPIO pin
		TX_GPIO_multiplexRegisterValue: value for the sending GPIO port's multiplexer to select USART as destination.
*/
void Configuration::init_UART() {
800015c8:	eb cd 40 80 	pushm	r7,lr
800015cc:	1a 97       	mov	r7,sp
	bluetoothUARTConfig.baudRate = 19200;
800015ce:	4b 28       	lddpc	r8,80001694 <_ZN13Configuration9init_UARTEv+0xcc>
800015d0:	e0 69 4b 00 	mov	r9,19200
800015d4:	91 19       	st.w	r8[0x4],r9
	bluetoothUARTConfig.channelmode = 0; // normal channel mode
800015d6:	4b 09       	lddpc	r9,80001694 <_ZN13Configuration9init_UARTEv+0xcc>
800015d8:	30 08       	mov	r8,0
800015da:	f3 68 00 0a 	st.b	r9[10],r8
	bluetoothUARTConfig.charlength = 8; // 8 bit word length
800015de:	4a e9       	lddpc	r9,80001694 <_ZN13Configuration9init_UARTEv+0xcc>
800015e0:	30 88       	mov	r8,8
800015e2:	f3 68 00 08 	st.b	r9[8],r8
	bluetoothUARTConfig.paritytype = 0x04; // AVR32_USART_PAR_NONE | no parity bits
800015e6:	4a c9       	lddpc	r9,80001694 <_ZN13Configuration9init_UARTEv+0xcc>
800015e8:	30 48       	mov	r8,4
800015ea:	f3 68 00 09 	st.b	r9[9],r8
	bluetoothUARTConfig.stopbits = 0; // 1 stop bit
800015ee:	4a a9       	lddpc	r9,80001694 <_ZN13Configuration9init_UARTEv+0xcc>
800015f0:	30 08       	mov	r8,0
800015f2:	f3 68 00 0b 	st.b	r9[11],r8
	bluetoothUARTConfig.usart_address = ( char* ) 0xFFFF1400;
800015f6:	4a 88       	lddpc	r8,80001694 <_ZN13Configuration9init_UARTEv+0xcc>
800015f8:	fe 79 14 00 	mov	r9,-60416
800015fc:	91 09       	st.w	r8[0x0],r9
	bluetoothUARTConfig.RX_GPIO_port = 1;
800015fe:	4a 69       	lddpc	r9,80001694 <_ZN13Configuration9init_UARTEv+0xcc>
80001600:	30 18       	mov	r8,1
80001602:	f3 68 00 0c 	st.b	r9[12],r8
	bluetoothUARTConfig.RX_GPIO_pin = 10;
80001606:	4a 49       	lddpc	r9,80001694 <_ZN13Configuration9init_UARTEv+0xcc>
80001608:	30 a8       	mov	r8,10
8000160a:	f3 68 00 0d 	st.b	r9[13],r8
	bluetoothUARTConfig.RX_GPIO_multiplexRegisterValue = 2; //0b10 -> C
8000160e:	4a 29       	lddpc	r9,80001694 <_ZN13Configuration9init_UARTEv+0xcc>
80001610:	30 28       	mov	r8,2
80001612:	f3 68 00 0e 	st.b	r9[14],r8
	bluetoothUARTConfig.TX_GPIO_port = 1;
80001616:	4a 09       	lddpc	r9,80001694 <_ZN13Configuration9init_UARTEv+0xcc>
80001618:	30 18       	mov	r8,1
8000161a:	f3 68 00 0f 	st.b	r9[15],r8
	bluetoothUARTConfig.TX_GPIO_pin = 11;
8000161e:	49 e9       	lddpc	r9,80001694 <_ZN13Configuration9init_UARTEv+0xcc>
80001620:	30 b8       	mov	r8,11
80001622:	f3 68 00 10 	st.b	r9[16],r8
	bluetoothUARTConfig.TX_GPIO_multiplexRegisterValue = 2; //0b10 -> C
80001626:	49 c9       	lddpc	r9,80001694 <_ZN13Configuration9init_UARTEv+0xcc>
80001628:	30 28       	mov	r8,2
8000162a:	f3 68 00 11 	st.b	r9[17],r8

	rs232UARTConfig.baudRate = 38400;
8000162e:	49 b8       	lddpc	r8,80001698 <_ZN13Configuration9init_UARTEv+0xd0>
80001630:	e0 69 96 00 	mov	r9,38400
80001634:	91 19       	st.w	r8[0x4],r9
	rs232UARTConfig.channelmode = 0; // normal channel mode
80001636:	49 99       	lddpc	r9,80001698 <_ZN13Configuration9init_UARTEv+0xd0>
80001638:	30 08       	mov	r8,0
8000163a:	f3 68 00 0a 	st.b	r9[10],r8
	rs232UARTConfig.charlength = 8; // 8 bit word length
8000163e:	49 79       	lddpc	r9,80001698 <_ZN13Configuration9init_UARTEv+0xd0>
80001640:	30 88       	mov	r8,8
80001642:	f3 68 00 08 	st.b	r9[8],r8
	rs232UARTConfig.paritytype = 0x04; // AVR32_USART_PAR_NONE | no parity bits
80001646:	49 59       	lddpc	r9,80001698 <_ZN13Configuration9init_UARTEv+0xd0>
80001648:	30 48       	mov	r8,4
8000164a:	f3 68 00 09 	st.b	r9[9],r8
	rs232UARTConfig.stopbits = 0; // 1 stop bit
8000164e:	49 39       	lddpc	r9,80001698 <_ZN13Configuration9init_UARTEv+0xd0>
80001650:	30 08       	mov	r8,0
80001652:	f3 68 00 0b 	st.b	r9[11],r8
	rs232UARTConfig.usart_address = ( char* ) 0xFFFF1C00;
80001656:	49 18       	lddpc	r8,80001698 <_ZN13Configuration9init_UARTEv+0xd0>
80001658:	fe 79 1c 00 	mov	r9,-58368
8000165c:	91 09       	st.w	r8[0x0],r9
	rs232UARTConfig.RX_GPIO_port = 0;
8000165e:	48 f9       	lddpc	r9,80001698 <_ZN13Configuration9init_UARTEv+0xd0>
80001660:	30 08       	mov	r8,0
80001662:	f3 68 00 0c 	st.b	r9[12],r8
	rs232UARTConfig.RX_GPIO_pin = 26;
80001666:	48 d9       	lddpc	r9,80001698 <_ZN13Configuration9init_UARTEv+0xd0>
80001668:	31 a8       	mov	r8,26
8000166a:	f3 68 00 0d 	st.b	r9[13],r8
	rs232UARTConfig.RX_GPIO_multiplexRegisterValue = 1; //0b01 -> B
8000166e:	48 b9       	lddpc	r9,80001698 <_ZN13Configuration9init_UARTEv+0xd0>
80001670:	30 18       	mov	r8,1
80001672:	f3 68 00 0e 	st.b	r9[14],r8
	rs232UARTConfig.TX_GPIO_port = 0;
80001676:	48 99       	lddpc	r9,80001698 <_ZN13Configuration9init_UARTEv+0xd0>
80001678:	30 08       	mov	r8,0
8000167a:	f3 68 00 0f 	st.b	r9[15],r8
	rs232UARTConfig.TX_GPIO_pin = 27;
8000167e:	48 79       	lddpc	r9,80001698 <_ZN13Configuration9init_UARTEv+0xd0>
80001680:	31 b8       	mov	r8,27
80001682:	f3 68 00 10 	st.b	r9[16],r8
	rs232UARTConfig.TX_GPIO_multiplexRegisterValue = 1; //0b10 -> B
80001686:	48 59       	lddpc	r9,80001698 <_ZN13Configuration9init_UARTEv+0xd0>
80001688:	30 18       	mov	r8,1
8000168a:	f3 68 00 11 	st.b	r9[17],r8
}
8000168e:	e3 cd 80 80 	ldm	sp++,r7,pc
80001692:	00 00       	add	r0,r0
80001694:	00 00       	add	r0,r0
80001696:	07 0c       	ld.w	r12,r3++
80001698:	00 00       	add	r0,r0
8000169a:	06 f8       	st.b	--r3,r8

8000169c <_ZN13Configuration15init_StatusLEDsEv>:
/*! \brief	Initializes status LED configuration variables.
		
		port: GPIO port
		pin: GPIO pin
*/
void Configuration::init_StatusLEDs() {
8000169c:	eb cd 40 80 	pushm	r7,lr
800016a0:	1a 97       	mov	r7,sp
	// Status LEDs
	redStatusLEDConfig.port = 1;
800016a2:	48 89       	lddpc	r9,800016c0 <_ZN13Configuration15init_StatusLEDsEv+0x24>
800016a4:	30 18       	mov	r8,1
800016a6:	b2 88       	st.b	r9[0x0],r8
	redStatusLEDConfig.pin = 0;
800016a8:	48 68       	lddpc	r8,800016c0 <_ZN13Configuration15init_StatusLEDsEv+0x24>
800016aa:	30 09       	mov	r9,0
800016ac:	91 19       	st.w	r8[0x4],r9
	greenStatusLEDConfig.port = 1;
800016ae:	48 69       	lddpc	r9,800016c4 <_ZN13Configuration15init_StatusLEDsEv+0x28>
800016b0:	30 18       	mov	r8,1
800016b2:	b2 88       	st.b	r9[0x0],r8
	greenStatusLEDConfig.pin = 1;
800016b4:	48 48       	lddpc	r8,800016c4 <_ZN13Configuration15init_StatusLEDsEv+0x28>
800016b6:	30 19       	mov	r9,1
800016b8:	91 19       	st.w	r8[0x4],r9
}
800016ba:	e3 cd 80 80 	ldm	sp++,r7,pc
800016be:	00 00       	add	r0,r0
800016c0:	00 00       	add	r0,r0
800016c2:	07 20       	ld.uh	r0,r3++
800016c4:	00 00       	add	r0,r0
800016c6:	07 28       	ld.uh	r8,r3++

800016c8 <_get_interrupt_handler>:
extern "C" void _evba(), _int0(), _int1(), _int2(), _int3();

/*! \brief	Interrupt handler, called when an interrupt occurs. Selects timer interrupts and calls timer function.
	\return	zero, so no further action is taken.
*/
extern "C" void* _get_interrupt_handler( unsigned long int_level ) {
800016c8:	eb cd 40 80 	pushm	r7,lr
800016cc:	1a 97       	mov	r7,sp
800016ce:	20 1d       	sub	sp,4
800016d0:	ef 4c ff fc 	st.w	r7[-4],r12
	if( int_level == 0 ) {
800016d4:	ee f8 ff fc 	ld.w	r8,r7[-4]
800016d8:	58 08       	cp.w	r8,0
800016da:	c0 c1       	brne	800016f2 <_get_interrupt_handler+0x2a>
		// If mySegway is present, call it's timer function.
		if( mySegway != 0 ) {
800016dc:	48 88       	lddpc	r8,800016fc <_get_interrupt_handler+0x34>
800016de:	70 08       	ld.w	r8,r8[0x0]
800016e0:	58 08       	cp.w	r8,0
800016e2:	c0 60       	breq	800016ee <_get_interrupt_handler+0x26>
			mySegway->timerFunction();
800016e4:	48 68       	lddpc	r8,800016fc <_get_interrupt_handler+0x34>
800016e6:	70 08       	ld.w	r8,r8[0x0]
800016e8:	10 9c       	mov	r12,r8
800016ea:	f0 1f 00 06 	mcall	80001700 <_get_interrupt_handler+0x38>
		}
		
		// Reset interrupt flag
		Timer::resetInterruptFlag();
800016ee:	f0 1f 00 06 	mcall	80001704 <_get_interrupt_handler+0x3c>
	}
	
	return 0;
800016f2:	30 08       	mov	r8,0
}
800016f4:	10 9c       	mov	r12,r8
800016f6:	2f fd       	sub	sp,-4
800016f8:	e3 cd 80 80 	ldm	sp++,r7,pc
800016fc:	00 00       	add	r0,r0
800016fe:	07 30       	ld.ub	r0,r3++
80001700:	80 00       	ld.sh	r0,r0[0x0]
80001702:	00 c8       	st.b	r0++,r8
80001704:	80 00       	ld.sh	r0,r0[0x0]
80001706:	1f bc       	ld.ub	r12,pc[0x3]

80001708 <_Z17init_system_clockv>:

/*! \brief	Switches system clock to external OSC0
*/
void init_system_clock() {
80001708:	eb cd 40 80 	pushm	r7,lr
8000170c:	1a 97       	mov	r7,sp
	// Set oscillator gain class "G3" (as f_OSC >= 8 MHz)
	//AVR32_PM.OSCCTRL0.mode = AVR32_PM_OSCCTRL0_MODE_CRYSTAL_G3;
	SET_BITS(*( volatile unsigned int* ) ( MYAVR32_PM_ADDRESS + MYAVR32_PM_OFFSET_OSCCTL0 ), ( 0x007 << 0 ));
8000170e:	49 b8       	lddpc	r8,80001778 <_Z17init_system_clockv+0x70>
80001710:	70 08       	ld.w	r8,r8[0x0]
80001712:	2d 88       	sub	r8,-40
80001714:	49 99       	lddpc	r9,80001778 <_Z17init_system_clockv+0x70>
80001716:	72 09       	ld.w	r9,r9[0x0]
80001718:	2d 89       	sub	r9,-40
8000171a:	72 09       	ld.w	r9,r9[0x0]
8000171c:	e8 19 00 07 	orl	r9,0x7
80001720:	91 09       	st.w	r8[0x0],r9
	// Startup time: 4096 cycles
	//AVR32_PM.OSCCTRL0.startup = AVR32_PM_OSCCTRL0_STARTUP_0_RCOSC;
	CLEAR_BITS(*( volatile unsigned int* ) ( MYAVR32_PM_ADDRESS + MYAVR32_PM_OFFSET_OSCCTL0 ), ( 0x007 << 8 ));
80001722:	49 68       	lddpc	r8,80001778 <_Z17init_system_clockv+0x70>
80001724:	70 08       	ld.w	r8,r8[0x0]
80001726:	2d 88       	sub	r8,-40
80001728:	49 49       	lddpc	r9,80001778 <_Z17init_system_clockv+0x70>
8000172a:	72 09       	ld.w	r9,r9[0x0]
8000172c:	2d 89       	sub	r9,-40
8000172e:	72 09       	ld.w	r9,r9[0x0]
80001730:	e0 19 f8 ff 	andl	r9,0xf8ff
80001734:	91 09       	st.w	r8[0x0],r9
	// Enable Oscillator 0
	//AVR32_PM.MCCTRL.osc0en = 1;
	SET_BIT(*( volatile unsigned int* ) ( MYAVR32_PM_ADDRESS + MYAVR32_PM_OFFSET_MCCTRL ), 2);
80001736:	49 18       	lddpc	r8,80001778 <_Z17init_system_clockv+0x70>
80001738:	70 08       	ld.w	r8,r8[0x0]
8000173a:	49 09       	lddpc	r9,80001778 <_Z17init_system_clockv+0x70>
8000173c:	72 09       	ld.w	r9,r9[0x0]
8000173e:	72 09       	ld.w	r9,r9[0x0]
80001740:	a3 a9       	sbr	r9,0x2
80001742:	91 09       	st.w	r8[0x0],r9
	// Wait for oscillator 0 to be ready
	//while(!AVR32_PM.POSCSR.osc0rdy);
	while( !BIT_IS_SET( *( volatile unsigned int* ) ( MYAVR32_PM_ADDRESS + MYAVR32_PM_OFFSET_POSCSR ), 7 ));
80001744:	48 d8       	lddpc	r8,80001778 <_Z17init_system_clockv+0x70>
80001746:	70 08       	ld.w	r8,r8[0x0]
80001748:	2a c8       	sub	r8,-84
8000174a:	70 08       	ld.w	r8,r8[0x0]
8000174c:	e2 18 00 80 	andl	r8,0x80,COH
80001750:	5f 08       	sreq	r8
80001752:	5c 58       	castu.b	r8
80001754:	cf 81       	brne	80001744 <_Z17init_system_clockv+0x3c>
	// Select oscillator 0 as source for the main clock
	//AVR32_PM.MCCTRL.mcsel = 1;
	CLEAR_BITS(*( volatile unsigned int* ) ( MYAVR32_PM_ADDRESS + MYAVR32_PM_OFFSET_MCCTRL ), ( 0x003 << 0 ));
80001756:	48 98       	lddpc	r8,80001778 <_Z17init_system_clockv+0x70>
80001758:	70 08       	ld.w	r8,r8[0x0]
8000175a:	48 89       	lddpc	r9,80001778 <_Z17init_system_clockv+0x70>
8000175c:	72 09       	ld.w	r9,r9[0x0]
8000175e:	72 09       	ld.w	r9,r9[0x0]
80001760:	e0 19 ff fc 	andl	r9,0xfffc
80001764:	91 09       	st.w	r8[0x0],r9
	SET_BIT(*( volatile unsigned int* ) ( MYAVR32_PM_ADDRESS + MYAVR32_PM_OFFSET_MCCTRL ), 0);
80001766:	48 58       	lddpc	r8,80001778 <_Z17init_system_clockv+0x70>
80001768:	70 08       	ld.w	r8,r8[0x0]
8000176a:	48 49       	lddpc	r9,80001778 <_Z17init_system_clockv+0x70>
8000176c:	72 09       	ld.w	r9,r9[0x0]
8000176e:	72 09       	ld.w	r9,r9[0x0]
80001770:	a1 a9       	sbr	r9,0x0
80001772:	91 09       	st.w	r8[0x0],r9
}
80001774:	e3 cd 80 80 	ldm	sp++,r7,pc
80001778:	00 00       	add	r0,r0
8000177a:	00 98       	mov	r8,r0

8000177c <_Z21init_interrupt_systemv>:

/*! \brief	Initializes the interrupt system to redirect timer interrupts to _int0(), which is implemented in assembler.
*/
void init_interrupt_system() {
8000177c:	eb cd 40 80 	pushm	r7,lr
80001780:	1a 97       	mov	r7,sp
	// Set exception handler (defined in exception.s)
	__builtin_mtsr( 0x0004, ( unsigned long )&_evba );
80001782:	49 a8       	lddpc	r8,800017e8 <_Z21init_interrupt_systemv+0x6c>
80001784:	e3 b8 00 01 	mtsr	0x4,r8

	// The timer's interrupt group is 14 for all timers.
	// Set the interrupt level of the timer's interrupt group to 0.
	//AVR32_INTC.IPR[14].intlevel = AVR32_INTC_INT0;
	CLEAR_BITS(*( volatile unsigned int* ) ( MYAVR32_INTC_ADDRESS + MYAVR32_INTC_OFFSET_IPR0 + 14 * MYAVR32_INTC_SIZE_IPR ), ( 0x003 << 30 ));
80001788:	49 98       	lddpc	r8,800017ec <_Z21init_interrupt_systemv+0x70>
8000178a:	70 08       	ld.w	r8,r8[0x0]
8000178c:	2c 88       	sub	r8,-56
8000178e:	49 89       	lddpc	r9,800017ec <_Z21init_interrupt_systemv+0x70>
80001790:	72 09       	ld.w	r9,r9[0x0]
80001792:	2c 89       	sub	r9,-56
80001794:	72 09       	ld.w	r9,r9[0x0]
80001796:	f3 d9 c0 1e 	bfextu	r9,r9,0x0,0x1e
8000179a:	91 09       	st.w	r8[0x0],r9
	
	// Set the interrupt handler offset of timer's interrupt group. => Timer interrupts will be called having int_level = 0.
	//AVR32_INTC.IPR[14].autovector = ( int )&_int0 - ( int )&_evba;
	CLEAR_BITS(*( volatile unsigned int* ) ( MYAVR32_INTC_ADDRESS + MYAVR32_INTC_OFFSET_IPR0 + 14 * MYAVR32_INTC_SIZE_IPR ), ( 0x3FFF << 0 ));
8000179c:	49 48       	lddpc	r8,800017ec <_Z21init_interrupt_systemv+0x70>
8000179e:	70 08       	ld.w	r8,r8[0x0]
800017a0:	2c 88       	sub	r8,-56
800017a2:	49 39       	lddpc	r9,800017ec <_Z21init_interrupt_systemv+0x70>
800017a4:	72 09       	ld.w	r9,r9[0x0]
800017a6:	2c 89       	sub	r9,-56
800017a8:	72 09       	ld.w	r9,r9[0x0]
800017aa:	e0 19 c0 00 	andl	r9,0xc000
800017ae:	91 09       	st.w	r8[0x0],r9
	SET_BITS(*( volatile unsigned int* ) ( MYAVR32_INTC_ADDRESS + MYAVR32_INTC_OFFSET_IPR0 + 14 * MYAVR32_INTC_SIZE_IPR ), ((( int )&_int0 - ( int )&_evba ) << 0 ));
800017b0:	48 f8       	lddpc	r8,800017ec <_Z21init_interrupt_systemv+0x70>
800017b2:	70 08       	ld.w	r8,r8[0x0]
800017b4:	2c 88       	sub	r8,-56
800017b6:	48 e9       	lddpc	r9,800017ec <_Z21init_interrupt_systemv+0x70>
800017b8:	72 09       	ld.w	r9,r9[0x0]
800017ba:	2c 89       	sub	r9,-56
800017bc:	72 0a       	ld.w	r10,r9[0x0]
800017be:	48 db       	lddpc	r11,800017f0 <_Z21init_interrupt_systemv+0x74>
800017c0:	48 a9       	lddpc	r9,800017e8 <_Z21init_interrupt_systemv+0x6c>
800017c2:	f6 09 01 09 	sub	r9,r11,r9
800017c6:	f5 e9 10 09 	or	r9,r10,r9
800017ca:	91 09       	st.w	r8[0x0],r9
	
	// Low Priority for interrupts caused by the PWM controller
	//AVR32_INTC.IPR[12].intlevel = AVR32_INTC_INT3;
	SET_BITS(*( volatile unsigned int* ) ( MYAVR32_INTC_ADDRESS + MYAVR32_INTC_OFFSET_IPR0 + 12 * MYAVR32_INTC_SIZE_IPR ), ( 0x003 << 30 ));
800017cc:	48 88       	lddpc	r8,800017ec <_Z21init_interrupt_systemv+0x70>
800017ce:	70 08       	ld.w	r8,r8[0x0]
800017d0:	2d 08       	sub	r8,-48
800017d2:	48 79       	lddpc	r9,800017ec <_Z21init_interrupt_systemv+0x70>
800017d4:	72 09       	ld.w	r9,r9[0x0]
800017d6:	2d 09       	sub	r9,-48
800017d8:	72 09       	ld.w	r9,r9[0x0]
800017da:	ea 19 c0 00 	orh	r9,0xc000
800017de:	91 09       	st.w	r8[0x0],r9
	
	// Globally enable interrupts
	cpu_irq_enable();
800017e0:	d5 03       	csrf	0x10
}
800017e2:	e3 cd 80 80 	ldm	sp++,r7,pc
800017e6:	00 00       	add	r0,r0
800017e8:	80 00       	ld.sh	r0,r0[0x0]
800017ea:	d0 00       	acall	0x0
800017ec:	00 00       	add	r0,r0
800017ee:	00 9c       	mov	r12,r0
800017f0:	80 00       	ld.sh	r0,r0[0x0]
800017f2:	d1 04       	*unknown*

800017f4 <main>:

/*! \brief	Interrupt handler, called when an interrupt occurs. Selects timer interrupts and calls timer function.
	\return	zero
*/
int main( void ) {
800017f4:	d4 31       	pushm	r0-r7,lr
800017f6:	1a 97       	mov	r7,sp
800017f8:	21 5d       	sub	sp,84
800017fa:	4b a8       	lddpc	r8,800018e0 <main+0xec>
800017fc:	ef 48 ff d4 	st.w	r7[-44],r8
80001800:	4b 98       	lddpc	r8,800018e4 <main+0xf0>
80001802:	ef 48 ff d8 	st.w	r7[-40],r8
80001806:	ee c8 00 24 	sub	r8,r7,36
8000180a:	91 07       	st.w	r8[0x0],r7
8000180c:	fe c9 ff be 	sub	r9,pc,-66
80001810:	91 19       	st.w	r8[0x4],r9
80001812:	91 2d       	st.w	r8[0x8],sp
80001814:	ee c8 00 44 	sub	r8,r7,68
80001818:	10 9c       	mov	r12,r8
8000181a:	f0 1f 00 34 	mcall	800018e8 <main+0xf4>
	// Use external OSC0
	init_system_clock();
8000181e:	f0 1f 00 34 	mcall	800018ec <main+0xf8>
	// Prepare interrupt handler (needed for the timer)
	init_interrupt_system();
80001822:	f0 1f 00 34 	mcall	800018f0 <main+0xfc>
	// Initialize configuration
	Configuration::init();
80001826:	3f f8       	mov	r8,-1
80001828:	ef 48 ff c0 	st.w	r7[-64],r8
8000182c:	f0 1f 00 32 	mcall	800018f4 <main+0x100>
	
    PWM *pwm = new PWM();
80001830:	32 cc       	mov	r12,44
80001832:	f0 1f 00 32 	mcall	800018f8 <main+0x104>
80001836:	18 98       	mov	r8,r12
80001838:	ef 48 ff b0 	st.w	r7[-80],r8
8000183c:	ee f8 ff b0 	ld.w	r8,r7[-80]
80001840:	30 19       	mov	r9,1
80001842:	ef 49 ff c0 	st.w	r7[-64],r9
80001846:	10 9c       	mov	r12,r8
80001848:	f0 1f 00 2d 	mcall	800018fc <main+0x108>
8000184c:	c1 78       	rjmp	8000187a <main+0x86>
8000184e:	ee f8 ff c4 	ld.w	r8,r7[-60]
80001852:	ee f9 ff c8 	ld.w	r9,r7[-56]
80001856:	ef 49 ff b8 	st.w	r7[-72],r9
8000185a:	ef 48 ff b4 	st.w	r7[-76],r8
8000185e:	ee fc ff b0 	ld.w	r12,r7[-80]
80001862:	f0 1f 00 28 	mcall	80001900 <main+0x10c>
80001866:	ee f8 ff b4 	ld.w	r8,r7[-76]
8000186a:	ee f9 ff b8 	ld.w	r9,r7[-72]
8000186e:	3f f9       	mov	r9,-1
80001870:	ef 49 ff c0 	st.w	r7[-64],r9
80001874:	10 9c       	mov	r12,r8
80001876:	f0 1f 00 24 	mcall	80001904 <main+0x110>
8000187a:	ee f8 ff b0 	ld.w	r8,r7[-80]
8000187e:	ef 48 ff fc 	st.w	r7[-4],r8
	Configuration::s_PWMConfig config;
	config.channelID = 5;
80001882:	30 58       	mov	r8,5
80001884:	ef 68 ff f0 	st.b	r7[-16],r8
	config.maxPWMRatio = 255;
80001888:	3f f8       	mov	r8,-1
8000188a:	ef 68 ff f1 	st.b	r7[-15],r8
	config.frequency = 1000;
8000188e:	e0 68 03 e8 	mov	r8,1000
80001892:	ef 48 ff f4 	st.w	r7[-12],r8
	config.GPIO_pin = 5;
80001896:	30 58       	mov	r8,5
80001898:	ef 68 ff f9 	st.b	r7[-7],r8
	config.GPIO_port = 1;
8000189c:	30 18       	mov	r8,1
8000189e:	ef 68 ff f8 	st.b	r7[-8],r8
	config.GPIO_multiplexRegisterValue = 2;
800018a2:	30 28       	mov	r8,2
800018a4:	ef 68 ff fa 	st.b	r7[-6],r8
	
    pwm->init(&config);
800018a8:	ee c8 00 10 	sub	r8,r7,16
800018ac:	3f f9       	mov	r9,-1
800018ae:	ef 49 ff c0 	st.w	r7[-64],r9
800018b2:	10 9b       	mov	r11,r8
800018b4:	ee fc ff fc 	ld.w	r12,r7[-4]
800018b8:	f0 1f 00 14 	mcall	80001908 <main+0x114>
    pwm->setChannelEnabled(true);
800018bc:	30 1b       	mov	r11,1
800018be:	ee fc ff fc 	ld.w	r12,r7[-4]
800018c2:	f0 1f 00 13 	mcall	8000190c <main+0x118>
    //pwm->setChannelPWMRatio(0, true);
	
	//while (true) asm("nop");
    
	return 0;
800018c6:	30 08       	mov	r8,0
800018c8:	ef 48 ff ac 	st.w	r7[-84],r8
800018cc:	ee c8 00 44 	sub	r8,r7,68
800018d0:	10 9c       	mov	r12,r8
800018d2:	f0 1f 00 10 	mcall	80001910 <main+0x11c>
}
800018d6:	ee fc ff ac 	ld.w	r12,r7[-84]
800018da:	2e bd       	sub	sp,-84
800018dc:	d8 32       	popm	r0-r7,pc
800018de:	00 00       	add	r0,r0
800018e0:	80 00       	ld.sh	r0,r0[0x0]
800018e2:	28 94       	sub	r4,-119
800018e4:	00 00       	add	r0,r0
800018e6:	00 04       	add	r4,r0
800018e8:	80 00       	ld.sh	r0,r0[0x0]
800018ea:	72 a4       	ld.w	r4,r9[0x28]
800018ec:	80 00       	ld.sh	r0,r0[0x0]
800018ee:	17 08       	ld.w	r8,r11++
800018f0:	80 00       	ld.sh	r0,r0[0x0]
800018f2:	17 7c       	ld.ub	r12,--r11
800018f4:	80 00       	ld.sh	r0,r0[0x0]
800018f6:	12 40       	or	r0,r9
800018f8:	80 00       	ld.sh	r0,r0[0x0]
800018fa:	1f e0       	ld.ub	r0,pc[0x6]
800018fc:	80 00       	ld.sh	r0,r0[0x0]
800018fe:	19 5c       	ld.sh	r12,--r12
80001900:	80 00       	ld.sh	r0,r0[0x0]
80001902:	1f d0       	ld.ub	r0,pc[0x5]
80001904:	80 00       	ld.sh	r0,r0[0x0]
80001906:	74 6c       	ld.w	r12,r10[0x18]
80001908:	80 00       	ld.sh	r0,r0[0x0]
8000190a:	19 6e       	ld.uh	lr,--r12
8000190c:	80 00       	ld.sh	r0,r0[0x0]
8000190e:	1b d2       	ld.ub	r2,sp[0x5]
80001910:	80 00       	ld.sh	r0,r0[0x0]
80001912:	72 b4       	ld.w	r4,r9[0x2c]

80001914 <_stext>:

  .global _stext
  .type _stext, @function
_stext:
  // Set initial stack pointer.
  lda.w   sp, _estack
80001914:	48 bd       	lddpc	sp,80001940 <udata_clear_loop_end+0x4>
//  // Set up EVBA so interrupts can be enabled.
//  lda.w   r0, _evba
//  mtsr    AVR32_EVBA, r0

  // Enable the exception processing.
  csrf    AVR32_SR_EM_OFFSET
80001916:	d5 53       	csrf	0x15

  // Load initialized data having a global lifetime from the data LMA.
  lda.w   r0, _data
80001918:	48 b0       	lddpc	r0,80001944 <udata_clear_loop_end+0x8>
  lda.w   r1, _edata
8000191a:	48 c1       	lddpc	r1,80001948 <udata_clear_loop_end+0xc>
  cp      r0, r1
8000191c:	02 30       	cp.w	r0,r1
  brhs    idata_load_loop_end
8000191e:	c0 62       	brcc	8000192a <idata_load_loop_end>
  lda.w   r2, _data_lma
80001920:	48 b2       	lddpc	r2,8000194c <udata_clear_loop_end+0x10>

80001922 <idata_load_loop>:
idata_load_loop:
  ld.d    r4, r2++
80001922:	a5 05       	ld.d	r4,r2++
  st.d    r0++, r4
80001924:	a1 24       	st.d	r0++,r4
  cp      r0, r1
80001926:	02 30       	cp.w	r0,r1
  brlo    idata_load_loop
80001928:	cf d3       	brcs	80001922 <idata_load_loop>

8000192a <idata_load_loop_end>:
idata_load_loop_end:

  // Clear uninitialized data having a global lifetime in the blank static storage section.
  lda.w   r0, __bss_start
8000192a:	48 a0       	lddpc	r0,80001950 <udata_clear_loop_end+0x14>
  lda.w   r1, _end
8000192c:	48 a1       	lddpc	r1,80001954 <udata_clear_loop_end+0x18>
  cp      r0, r1
8000192e:	02 30       	cp.w	r0,r1
  brhs    udata_clear_loop_end
80001930:	c0 62       	brcc	8000193c <udata_clear_loop_end>
  mov     r2, 0
80001932:	30 02       	mov	r2,0
  mov     r3, 0
80001934:	30 03       	mov	r3,0

80001936 <udata_clear_loop>:
udata_clear_loop:
  st.d    r0++, r2
80001936:	a1 22       	st.d	r0++,r2
  cp      r0, r1
80001938:	02 30       	cp.w	r0,r1
  brlo    udata_clear_loop
8000193a:	cf e3       	brcs	80001936 <udata_clear_loop>

8000193c <udata_clear_loop_end>:
  // Safety: Set the default "return" @ to the exit routine address.
  lda.w   lr, exit
#endif

  // Start the show.
  lda.w   pc, main
8000193c:	48 7f       	lddpc	pc,80001958 <udata_clear_loop_end+0x1c>
8000193e:	00 00       	add	r0,r0
80001940:	00 00       	add	r0,r0
80001942:	80 00       	ld.sh	r0,r0[0x0]
80001944:	00 00       	add	r0,r0
80001946:	00 04       	add	r4,r0
80001948:	00 00       	add	r0,r0
8000194a:	05 d8       	ld.ub	r8,r2[0x5]
8000194c:	80 00       	ld.sh	r0,r0[0x0]
8000194e:	e1 00 00 00 	ld.sh	r0,r0[0]
80001952:	05 d8       	ld.ub	r8,r2[0x5]
80001954:	00 00       	add	r0,r0
80001956:	0f 88       	ld.ub	r8,r7[0x0]
80001958:	80 00       	ld.sh	r0,r0[0x0]
8000195a:	17 f4       	ld.ub	r4,r11[0x7]

8000195c <_ZN3PWMC1Ev>:
#include "PWM.h"

PWM::PWM() {
8000195c:	eb cd 40 80 	pushm	r7,lr
80001960:	1a 97       	mov	r7,sp
80001962:	20 1d       	sub	sp,4
80001964:	ef 4c ff fc 	st.w	r7[-4],r12

}
80001968:	2f fd       	sub	sp,-4
8000196a:	e3 cd 80 80 	ldm	sp++,r7,pc

8000196e <_ZN3PWM4initEPN13Configuration11s_PWMConfigE>:

PWM::~PWM() {
	cleanUp();
}

bool PWM::init( Configuration::s_PWMConfig* thisPWMConfig_ ) {
8000196e:	eb cd 40 80 	pushm	r7,lr
80001972:	1a 97       	mov	r7,sp
80001974:	20 5d       	sub	sp,20
80001976:	ef 4c ff f0 	st.w	r7[-16],r12
8000197a:	ef 4b ff ec 	st.w	r7[-20],r11
    pin = thisPWMConfig_->GPIO_pin;
8000197e:	ee f8 ff ec 	ld.w	r8,r7[-20]
80001982:	f1 38 00 09 	ld.ub	r8,r8[9]
80001986:	10 99       	mov	r9,r8
80001988:	ee f8 ff f0 	ld.w	r8,r7[-16]
8000198c:	91 09       	st.w	r8[0x0],r9
    // init register
    VINTP GPER = (int*) (GPIO_MODULE + (thisPWMConfig_->GPIO_port ? PORT_OFFSET : 0) + GPER_OFFSET);
8000198e:	ee f8 ff ec 	ld.w	r8,r7[-20]
80001992:	f1 38 00 08 	ld.ub	r8,r8[8]
80001996:	58 08       	cp.w	r8,0
80001998:	c0 40       	breq	800019a0 <_ZN3PWM4initEPN13Configuration11s_PWMConfigE+0x32>
8000199a:	fe 78 11 00 	mov	r8,-61184
8000199e:	c0 38       	rjmp	800019a4 <_ZN3PWM4initEPN13Configuration11s_PWMConfigE+0x36>
800019a0:	fe 78 10 00 	mov	r8,-61440
800019a4:	ef 48 ff f4 	st.w	r7[-12],r8
    VINTP PMR0 = (int*) (GPIO_MODULE + (thisPWMConfig_->GPIO_port ? PORT_OFFSET : 0) + PMR0_OFFSET);
800019a8:	ee f8 ff ec 	ld.w	r8,r7[-20]
800019ac:	f1 38 00 08 	ld.ub	r8,r8[8]
800019b0:	58 08       	cp.w	r8,0
800019b2:	c0 40       	breq	800019ba <_ZN3PWM4initEPN13Configuration11s_PWMConfigE+0x4c>
800019b4:	fe 78 11 10 	mov	r8,-61168
800019b8:	c0 38       	rjmp	800019be <_ZN3PWM4initEPN13Configuration11s_PWMConfigE+0x50>
800019ba:	fe 78 10 10 	mov	r8,-61424
800019be:	ef 48 ff f8 	st.w	r7[-8],r8
    VINTP PMR1 = (int*) (GPIO_MODULE + (thisPWMConfig_->GPIO_port ? PORT_OFFSET : 0) + PMR1_OFFSET);
800019c2:	ee f8 ff ec 	ld.w	r8,r7[-20]
800019c6:	f1 38 00 08 	ld.ub	r8,r8[8]
800019ca:	58 08       	cp.w	r8,0
800019cc:	c0 40       	breq	800019d4 <_ZN3PWM4initEPN13Configuration11s_PWMConfigE+0x66>
800019ce:	fe 78 11 20 	mov	r8,-61152
800019d2:	c0 38       	rjmp	800019d8 <_ZN3PWM4initEPN13Configuration11s_PWMConfigE+0x6a>
800019d4:	fe 78 10 20 	mov	r8,-61408
800019d8:	ef 48 ff fc 	st.w	r7[-4],r8
    // disable GPIO
    CLEAR_BIT(*GPER, pin);
800019dc:	ee f8 ff f4 	ld.w	r8,r7[-12]
800019e0:	70 08       	ld.w	r8,r8[0x0]
800019e2:	10 99       	mov	r9,r8
800019e4:	ee f8 ff f0 	ld.w	r8,r7[-16]
800019e8:	70 08       	ld.w	r8,r8[0x0]
800019ea:	30 1a       	mov	r10,1
800019ec:	f4 08 09 48 	lsl	r8,r10,r8
800019f0:	5c d8       	com	r8
800019f2:	f3 e8 00 08 	and	r8,r9,r8
800019f6:	10 99       	mov	r9,r8
800019f8:	ee f8 ff f4 	ld.w	r8,r7[-12]
800019fc:	91 09       	st.w	r8[0x0],r9
    // set peripheral function
    if (BIT_IS_SET(thisPWMConfig_->GPIO_multiplexRegisterValue, 0)) SET_BIT(*PMR0, pin);
800019fe:	ee f8 ff ec 	ld.w	r8,r7[-20]
80001a02:	f1 38 00 0a 	ld.ub	r8,r8[10]
80001a06:	f1 d8 c0 01 	bfextu	r8,r8,0x0,0x1
80001a0a:	5c 58       	castu.b	r8
80001a0c:	c1 20       	breq	80001a30 <_ZN3PWM4initEPN13Configuration11s_PWMConfigE+0xc2>
80001a0e:	ee f8 ff f8 	ld.w	r8,r7[-8]
80001a12:	70 08       	ld.w	r8,r8[0x0]
80001a14:	10 99       	mov	r9,r8
80001a16:	ee f8 ff f0 	ld.w	r8,r7[-16]
80001a1a:	70 08       	ld.w	r8,r8[0x0]
80001a1c:	30 1a       	mov	r10,1
80001a1e:	f4 08 09 48 	lsl	r8,r10,r8
80001a22:	f3 e8 10 08 	or	r8,r9,r8
80001a26:	10 99       	mov	r9,r8
80001a28:	ee f8 ff f8 	ld.w	r8,r7[-8]
80001a2c:	91 09       	st.w	r8[0x0],r9
80001a2e:	c1 28       	rjmp	80001a52 <_ZN3PWM4initEPN13Configuration11s_PWMConfigE+0xe4>
    else CLEAR_BIT(*PMR0, pin);
80001a30:	ee f8 ff f8 	ld.w	r8,r7[-8]
80001a34:	70 08       	ld.w	r8,r8[0x0]
80001a36:	10 99       	mov	r9,r8
80001a38:	ee f8 ff f0 	ld.w	r8,r7[-16]
80001a3c:	70 08       	ld.w	r8,r8[0x0]
80001a3e:	30 1a       	mov	r10,1
80001a40:	f4 08 09 48 	lsl	r8,r10,r8
80001a44:	5c d8       	com	r8
80001a46:	f3 e8 00 08 	and	r8,r9,r8
80001a4a:	10 99       	mov	r9,r8
80001a4c:	ee f8 ff f8 	ld.w	r8,r7[-8]
80001a50:	91 09       	st.w	r8[0x0],r9
    if (BIT_IS_SET(thisPWMConfig_->GPIO_multiplexRegisterValue, 1)) SET_BIT(*PMR1, pin);
80001a52:	ee f8 ff ec 	ld.w	r8,r7[-20]
80001a56:	f1 38 00 0a 	ld.ub	r8,r8[10]
80001a5a:	e2 18 00 02 	andl	r8,0x2,COH
80001a5e:	c1 20       	breq	80001a82 <_ZN3PWM4initEPN13Configuration11s_PWMConfigE+0x114>
80001a60:	ee f8 ff fc 	ld.w	r8,r7[-4]
80001a64:	70 08       	ld.w	r8,r8[0x0]
80001a66:	10 99       	mov	r9,r8
80001a68:	ee f8 ff f0 	ld.w	r8,r7[-16]
80001a6c:	70 08       	ld.w	r8,r8[0x0]
80001a6e:	30 1a       	mov	r10,1
80001a70:	f4 08 09 48 	lsl	r8,r10,r8
80001a74:	f3 e8 10 08 	or	r8,r9,r8
80001a78:	10 99       	mov	r9,r8
80001a7a:	ee f8 ff fc 	ld.w	r8,r7[-4]
80001a7e:	91 09       	st.w	r8[0x0],r9
80001a80:	c1 28       	rjmp	80001aa4 <_ZN3PWM4initEPN13Configuration11s_PWMConfigE+0x136>
    else CLEAR_BIT(*PMR1, pin);
80001a82:	ee f8 ff fc 	ld.w	r8,r7[-4]
80001a86:	70 08       	ld.w	r8,r8[0x0]
80001a88:	10 99       	mov	r9,r8
80001a8a:	ee f8 ff f0 	ld.w	r8,r7[-16]
80001a8e:	70 08       	ld.w	r8,r8[0x0]
80001a90:	30 1a       	mov	r10,1
80001a92:	f4 08 09 48 	lsl	r8,r10,r8
80001a96:	5c d8       	com	r8
80001a98:	f3 e8 00 08 	and	r8,r9,r8
80001a9c:	10 99       	mov	r9,r8
80001a9e:	ee f8 ff fc 	ld.w	r8,r7[-4]
80001aa2:	91 09       	st.w	r8[0x0],r9
    channelID = thisPWMConfig_->channelID;
80001aa4:	ee f8 ff ec 	ld.w	r8,r7[-20]
80001aa8:	11 88       	ld.ub	r8,r8[0x0]
80001aaa:	10 99       	mov	r9,r8
80001aac:	ee f8 ff f0 	ld.w	r8,r7[-16]
80001ab0:	91 19       	st.w	r8[0x4],r9
    // init register
	ENA = (int*) (PWM_MODULE + ENA_OFFSET);
80001ab2:	ee f8 ff f0 	ld.w	r8,r7[-16]
80001ab6:	fe 79 30 04 	mov	r9,-53244
80001aba:	91 39       	st.w	r8[0xc],r9
	DIS = (int*) (PWM_MODULE + DIS_OFFSET);
80001abc:	ee f8 ff f0 	ld.w	r8,r7[-16]
80001ac0:	fe 79 30 08 	mov	r9,-53240
80001ac4:	91 49       	st.w	r8[0x10],r9
	SR = (int*) (PWM_MODULE + SR_OFFSET);
80001ac6:	ee f8 ff f0 	ld.w	r8,r7[-16]
80001aca:	fe 79 30 0c 	mov	r9,-53236
80001ace:	91 59       	st.w	r8[0x14],r9
    CMR0 = (int*) (PWM_MODULE + CMR0_OFFSET + CHANNEL_OFFSET * channelID);
80001ad0:	ee f8 ff f0 	ld.w	r8,r7[-16]
80001ad4:	70 18       	ld.w	r8,r8[0x4]
80001ad6:	a5 78       	lsl	r8,0x5
80001ad8:	e0 28 ce 00 	sub	r8,52736
80001adc:	10 99       	mov	r9,r8
80001ade:	ee f8 ff f0 	ld.w	r8,r7[-16]
80001ae2:	91 69       	st.w	r8[0x18],r9
    CUPD0 = (int*) (PWM_MODULE + CMR0_OFFSET + CHANNEL_OFFSET * channelID + CUPD0_OFFSET);
80001ae4:	ee f8 ff f0 	ld.w	r8,r7[-16]
80001ae8:	70 18       	ld.w	r8,r8[0x4]
80001aea:	a5 78       	lsl	r8,0x5
80001aec:	e0 28 cd f0 	sub	r8,52720
80001af0:	10 99       	mov	r9,r8
80001af2:	ee f8 ff f0 	ld.w	r8,r7[-16]
80001af6:	91 a9       	st.w	r8[0x28],r9
    CPRD0 = (int*) (PWM_MODULE + CMR0_OFFSET + CHANNEL_OFFSET * channelID + CPRD0_OFFSET);
80001af8:	ee f8 ff f0 	ld.w	r8,r7[-16]
80001afc:	70 18       	ld.w	r8,r8[0x4]
80001afe:	a5 78       	lsl	r8,0x5
80001b00:	e0 28 cd f8 	sub	r8,52728
80001b04:	10 99       	mov	r9,r8
80001b06:	ee f8 ff f0 	ld.w	r8,r7[-16]
80001b0a:	91 89       	st.w	r8[0x20],r9
    //*CPRD0 = (int) (Configuration::PWMCLK / thisPWMConfig_->frequency);
    *CPRD0 = 1000000;
80001b0c:	ee f8 ff f0 	ld.w	r8,r7[-16]
80001b10:	70 88       	ld.w	r8,r8[0x20]
80001b12:	ee 79 42 40 	mov	r9,1000000
80001b16:	91 09       	st.w	r8[0x0],r9
    CDTY0 = (int*) (PWM_MODULE + CMR0_OFFSET + CHANNEL_OFFSET * channelID + CDTY0_OFFSET);
80001b18:	ee f8 ff f0 	ld.w	r8,r7[-16]
80001b1c:	70 18       	ld.w	r8,r8[0x4]
80001b1e:	a5 78       	lsl	r8,0x5
80001b20:	e0 28 cd fc 	sub	r8,52732
80001b24:	10 99       	mov	r9,r8
80001b26:	ee f8 ff f0 	ld.w	r8,r7[-16]
80001b2a:	91 99       	st.w	r8[0x24],r9
	*CDTY0 = 0;
80001b2c:	ee f8 ff f0 	ld.w	r8,r7[-16]
80001b30:	70 98       	ld.w	r8,r8[0x24]
80001b32:	30 09       	mov	r9,0
80001b34:	91 09       	st.w	r8[0x0],r9
    // set maxPWMRatio
    maxPWMRatio = thisPWMConfig_->maxPWMRatio;
80001b36:	ee f8 ff ec 	ld.w	r8,r7[-20]
80001b3a:	11 98       	ld.ub	r8,r8[0x1]
80001b3c:	10 99       	mov	r9,r8
80001b3e:	ee f8 ff f0 	ld.w	r8,r7[-16]
80001b42:	91 29       	st.w	r8[0x8],r9
	
	//SET_BIT(*CMR0, 9);
	return true;
80001b44:	30 18       	mov	r8,1
}
80001b46:	10 9c       	mov	r12,r8
80001b48:	2f bd       	sub	sp,-20
80001b4a:	e3 cd 80 80 	ldm	sp++,r7,pc

80001b4e <_ZN3PWM18setChannelPWMRatioEhb>:

bool PWM::setChannelPWMRatio( unsigned char ratioOn, bool capRatioOn ) {
80001b4e:	eb cd 40 80 	pushm	r7,lr
80001b52:	1a 97       	mov	r7,sp
80001b54:	20 3d       	sub	sp,12
80001b56:	ef 4c ff fc 	st.w	r7[-4],r12
80001b5a:	16 99       	mov	r9,r11
80001b5c:	14 98       	mov	r8,r10
80001b5e:	ef 69 ff f8 	st.b	r7[-8],r9
80001b62:	ef 68 ff f4 	st.b	r7[-12],r8
	if (capRatioOn) {
80001b66:	ef 39 ff f4 	ld.ub	r9,r7[-12]
80001b6a:	30 08       	mov	r8,0
80001b6c:	f0 09 18 00 	cp.b	r9,r8
80001b70:	c0 f0       	breq	80001b8e <_ZN3PWM18setChannelPWMRatioEhb+0x40>
		// truncate ratioOn value
		if (ratioOn < 0) ratioOn = 0;
		else if (ratioOn > maxPWMRatio) ratioOn = maxPWMRatio;
80001b72:	ef 39 ff f8 	ld.ub	r9,r7[-8]
80001b76:	ee f8 ff fc 	ld.w	r8,r7[-4]
80001b7a:	70 28       	ld.w	r8,r8[0x8]
80001b7c:	10 39       	cp.w	r9,r8
80001b7e:	e0 8a 00 18 	brle	80001bae <_ZN3PWM18setChannelPWMRatioEhb+0x60>
80001b82:	ee f8 ff fc 	ld.w	r8,r7[-4]
80001b86:	70 28       	ld.w	r8,r8[0x8]
80001b88:	ef 68 ff f8 	st.b	r7[-8],r8
80001b8c:	c1 18       	rjmp	80001bae <_ZN3PWM18setChannelPWMRatioEhb+0x60>
	} else
		// return false otherwise
		if (0 < ratioOn || ratioOn > maxPWMRatio) return false;
80001b8e:	ef 39 ff f8 	ld.ub	r9,r7[-8]
80001b92:	30 08       	mov	r8,0
80001b94:	f0 09 18 00 	cp.b	r9,r8
80001b98:	c0 91       	brne	80001baa <_ZN3PWM18setChannelPWMRatioEhb+0x5c>
80001b9a:	ef 39 ff f8 	ld.ub	r9,r7[-8]
80001b9e:	ee f8 ff fc 	ld.w	r8,r7[-4]
80001ba2:	70 28       	ld.w	r8,r8[0x8]
80001ba4:	10 39       	cp.w	r9,r8
80001ba6:	e0 8a 00 04 	brle	80001bae <_ZN3PWM18setChannelPWMRatioEhb+0x60>
80001baa:	30 08       	mov	r8,0
80001bac:	c0 f8       	rjmp	80001bca <_ZN3PWM18setChannelPWMRatioEhb+0x7c>
    // reset mode register pin 10 to initiate duty cycle update
    //CLEAR_BIT(*CMR0, 10);
    // set new duty cycle value
    //*CUPD0 = (int) ((1 - (float) ratioOn / 255) * *CPRD0);
    *CUPD0 = *CPRD0 / 2;
80001bae:	ee f8 ff fc 	ld.w	r8,r7[-4]
80001bb2:	70 a9       	ld.w	r9,r8[0x28]
80001bb4:	ee f8 ff fc 	ld.w	r8,r7[-4]
80001bb8:	70 88       	ld.w	r8,r8[0x20]
80001bba:	70 08       	ld.w	r8,r8[0x0]
80001bbc:	f0 0a 16 1f 	lsr	r10,r8,0x1f
80001bc0:	f4 08 00 08 	add	r8,r10,r8
80001bc4:	a1 58       	asr	r8,0x1
80001bc6:	93 08       	st.w	r9[0x0],r8
    return true;
80001bc8:	30 18       	mov	r8,1
}
80001bca:	10 9c       	mov	r12,r8
80001bcc:	2f dd       	sub	sp,-12
80001bce:	e3 cd 80 80 	ldm	sp++,r7,pc

80001bd2 <_ZN3PWM17setChannelEnabledEb>:
bool PWM::isChannelEnabled() {
    // check if bit is set
    return BIT_IS_SET(*SR, channelID);
}

bool PWM::setChannelEnabled( bool enabled ) {
80001bd2:	eb cd 40 80 	pushm	r7,lr
80001bd6:	1a 97       	mov	r7,sp
80001bd8:	20 2d       	sub	sp,8
80001bda:	ef 4c ff fc 	st.w	r7[-4],r12
80001bde:	16 98       	mov	r8,r11
80001be0:	ef 68 ff f8 	st.b	r7[-8],r8
    // set ena/dis bit
    if (enabled) SET_BIT(*ENA, channelID);
80001be4:	ef 39 ff f8 	ld.ub	r9,r7[-8]
80001be8:	30 08       	mov	r8,0
80001bea:	f0 09 18 00 	cp.b	r9,r8
80001bee:	c1 30       	breq	80001c14 <_ZN3PWM17setChannelEnabledEb+0x42>
80001bf0:	ee f8 ff fc 	ld.w	r8,r7[-4]
80001bf4:	70 38       	ld.w	r8,r8[0xc]
80001bf6:	ee f9 ff fc 	ld.w	r9,r7[-4]
80001bfa:	72 39       	ld.w	r9,r9[0xc]
80001bfc:	72 09       	ld.w	r9,r9[0x0]
80001bfe:	12 9a       	mov	r10,r9
80001c00:	ee f9 ff fc 	ld.w	r9,r7[-4]
80001c04:	72 19       	ld.w	r9,r9[0x4]
80001c06:	30 1b       	mov	r11,1
80001c08:	f6 09 09 49 	lsl	r9,r11,r9
80001c0c:	f5 e9 10 09 	or	r9,r10,r9
80001c10:	91 09       	st.w	r8[0x0],r9
80001c12:	c1 28       	rjmp	80001c36 <_ZN3PWM17setChannelEnabledEb+0x64>
    else SET_BIT(*DIS, channelID);
80001c14:	ee f8 ff fc 	ld.w	r8,r7[-4]
80001c18:	70 48       	ld.w	r8,r8[0x10]
80001c1a:	ee f9 ff fc 	ld.w	r9,r7[-4]
80001c1e:	72 49       	ld.w	r9,r9[0x10]
80001c20:	72 09       	ld.w	r9,r9[0x0]
80001c22:	12 9a       	mov	r10,r9
80001c24:	ee f9 ff fc 	ld.w	r9,r7[-4]
80001c28:	72 19       	ld.w	r9,r9[0x4]
80001c2a:	30 1b       	mov	r11,1
80001c2c:	f6 09 09 49 	lsl	r9,r11,r9
80001c30:	f5 e9 10 09 	or	r9,r10,r9
80001c34:	91 09       	st.w	r8[0x0],r9
    return true;
80001c36:	30 18       	mov	r8,1
}
80001c38:	10 9c       	mov	r12,r8
80001c3a:	2f ed       	sub	sp,-8
80001c3c:	e3 cd 80 80 	ldm	sp++,r7,pc

80001c40 <_ZN9ADCSensor15getIntegerValueEbm>:
	ADCController_->useADCZeroOffset = thisADCSensorConfig_->useZeroOffset;
	
	return 1;
}

signed long ADCSensor::getIntegerValue( bool average, unsigned long numberOfValuesForAverage ) {
80001c40:	d4 31       	pushm	r0-r7,lr
80001c42:	1a 97       	mov	r7,sp
80001c44:	21 fd       	sub	sp,124
80001c46:	ef 4c ff ec 	st.w	r7[-20],r12
80001c4a:	16 98       	mov	r8,r11
80001c4c:	ef 4a ff e4 	st.w	r7[-28],r10
80001c50:	ef 68 ff e8 	st.b	r7[-24],r8
80001c54:	fe f8 02 ac 	ld.w	r8,pc[684]
80001c58:	ef 48 ff c8 	st.w	r7[-56],r8
80001c5c:	fe f8 02 a8 	ld.w	r8,pc[680]
80001c60:	ef 48 ff cc 	st.w	r7[-52],r8
80001c64:	ee c8 00 30 	sub	r8,r7,48
80001c68:	91 07       	st.w	r8[0x0],r7
80001c6a:	fe c9 fe 00 	sub	r9,pc,-512
80001c6e:	91 19       	st.w	r8[0x4],r9
80001c70:	91 2d       	st.w	r8[0x8],sp
80001c72:	ee c8 00 50 	sub	r8,r7,80
80001c76:	10 9c       	mov	r12,r8
80001c78:	f0 1f 00 a4 	mcall	80001f08 <_ZN9ADCSensor15getIntegerValueEbm+0x2c8>
		
		return integerValue;
		
	}

}
80001c7c:	ef 4d ff 84 	st.w	r7[-124],sp
	return 1;
}

signed long ADCSensor::getIntegerValue( bool average, unsigned long numberOfValuesForAverage ) {
	
	channelID = adcSensor->ADCChannelID;
80001c80:	ee f8 ff ec 	ld.w	r8,r7[-20]
80001c84:	70 08       	ld.w	r8,r8[0x0]
80001c86:	70 09       	ld.w	r9,r8[0x0]
80001c88:	ee f8 ff ec 	ld.w	r8,r7[-20]
80001c8c:	91 b9       	st.w	r8[0x2c],r9
	//Wert des ADC ausgeben; Messen im ADC durch polling -> andauernd messen; 
	
	//controller.init();:ADC enable, 10 bit konvertierung einstellen (Mode Register), konvertierung starten (control Register), siehe ADC.cpp
	//controller ist vom Typ ADC

	if ( average == true ) {
80001c8e:	ef 39 ff e8 	ld.ub	r9,r7[-24]
80001c92:	30 08       	mov	r8,0
80001c94:	f0 09 18 00 	cp.b	r9,r8
80001c98:	e0 80 00 f5 	breq	80001e82 <_ZN9ADCSensor15getIntegerValueEbm+0x242>
80001c9c:	1a 98       	mov	r8,sp
80001c9e:	ef 48 ff ac 	st.w	r7[-84],r8
		
		signed long *values [ numberOfValuesForAverage ];
80001ca2:	ee f8 ff e4 	ld.w	r8,r7[-28]
80001ca6:	f0 ca 00 01 	sub	r10,r8,1
80001caa:	ef 4a ff f0 	st.w	r7[-16],r10
80001cae:	14 98       	mov	r8,r10
80001cb0:	ef 48 ff 90 	st.w	r7[-112],r8
80001cb4:	30 0c       	mov	r12,0
80001cb6:	ef 4c ff 8c 	st.w	r7[-116],r12
80001cba:	3f f8       	mov	r8,-1
80001cbc:	30 f9       	mov	r9,15
80001cbe:	ee e4 ff 8c 	ld.d	r4,r7[-116]
80001cc2:	10 64       	and	r4,r8
80001cc4:	12 65       	and	r5,r9
80001cc6:	ee e5 ff 8c 	st.d	r7[-116],r4
80001cca:	30 18       	mov	r8,1
80001ccc:	30 09       	mov	r9,0
80001cce:	ee e4 ff 8c 	ld.d	r4,r7[-116]
80001cd2:	e8 08 00 08 	add	r8,r4,r8
80001cd6:	ea 09 00 49 	adc	r9,r5,r9
80001cda:	3f f2       	mov	r2,-1
80001cdc:	30 f3       	mov	r3,15
80001cde:	04 68       	and	r8,r2
80001ce0:	06 69       	and	r9,r3
80001ce2:	f0 0b 16 1b 	lsr	r11,r8,0x1b
80001ce6:	f2 04 15 05 	lsl	r4,r9,0x5
80001cea:	ef 44 ff 94 	st.w	r7[-108],r4
80001cee:	ee fc ff 94 	ld.w	r12,r7[-108]
80001cf2:	f7 ec 10 0c 	or	r12,r11,r12
80001cf6:	ef 4c ff 94 	st.w	r7[-108],r12
80001cfa:	f0 0b 15 05 	lsl	r11,r8,0x5
80001cfe:	ef 4b ff 98 	st.w	r7[-104],r11
80001d02:	3f f8       	mov	r8,-1
80001d04:	30 f9       	mov	r9,15
80001d06:	ee e4 ff 94 	ld.d	r4,r7[-108]
80001d0a:	10 64       	and	r4,r8
80001d0c:	12 65       	and	r5,r9
80001d0e:	14 98       	mov	r8,r10
80001d10:	ef 48 ff a0 	st.w	r7[-96],r8
80001d14:	30 04       	mov	r4,0
80001d16:	ef 44 ff 9c 	st.w	r7[-100],r4
80001d1a:	3f f8       	mov	r8,-1
80001d1c:	30 f9       	mov	r9,15
80001d1e:	ee e4 ff 9c 	ld.d	r4,r7[-100]
80001d22:	10 64       	and	r4,r8
80001d24:	12 65       	and	r5,r9
80001d26:	ee e5 ff 9c 	st.d	r7[-100],r4
80001d2a:	30 18       	mov	r8,1
80001d2c:	30 09       	mov	r9,0
80001d2e:	ee e4 ff 9c 	ld.d	r4,r7[-100]
80001d32:	e8 08 00 08 	add	r8,r4,r8
80001d36:	ea 09 00 49 	adc	r9,r5,r9
80001d3a:	3f f2       	mov	r2,-1
80001d3c:	30 f3       	mov	r3,15
80001d3e:	04 68       	and	r8,r2
80001d40:	06 69       	and	r9,r3
80001d42:	f0 0b 16 1b 	lsr	r11,r8,0x1b
80001d46:	f2 04 15 05 	lsl	r4,r9,0x5
80001d4a:	ef 44 ff a4 	st.w	r7[-92],r4
80001d4e:	ee fc ff a4 	ld.w	r12,r7[-92]
80001d52:	f7 ec 10 0c 	or	r12,r11,r12
80001d56:	ef 4c ff a4 	st.w	r7[-92],r12
80001d5a:	f0 0b 15 05 	lsl	r11,r8,0x5
80001d5e:	ef 4b ff a8 	st.w	r7[-88],r11
80001d62:	3f f8       	mov	r8,-1
80001d64:	30 f9       	mov	r9,15
80001d66:	ee e4 ff a4 	ld.d	r4,r7[-92]
80001d6a:	10 64       	and	r4,r8
80001d6c:	12 65       	and	r5,r9
80001d6e:	14 98       	mov	r8,r10
80001d70:	2f f8       	sub	r8,-1
80001d72:	a3 68       	lsl	r8,0x2
80001d74:	2f d8       	sub	r8,-3
80001d76:	2f d8       	sub	r8,-3
80001d78:	a3 88       	lsr	r8,0x2
80001d7a:	a3 68       	lsl	r8,0x2
80001d7c:	10 1d       	sub	sp,r8
80001d7e:	1a 98       	mov	r8,sp
80001d80:	2f d8       	sub	r8,-3
80001d82:	a3 88       	lsr	r8,0x2
80001d84:	a3 68       	lsl	r8,0x2
80001d86:	ef 48 ff f4 	st.w	r7[-12],r8
		
		//In jedem Schleifendurchgang wird der ADC initialisiert (d.h. eine Konvertierung gestartet),
		//der letzte Wert wird ausgelesen und in dem array values gespeichert. Danach wird der ADC wird zurückgesetzt.
		//Falls ein Offset verwendet wird, wird dieser vom ausgelesenen wert abgezogen.
		
		for ( unsigned int i = 0; i < numberOfValuesForAverage; i++ ){
80001d8a:	30 08       	mov	r8,0
80001d8c:	ef 48 ff f8 	st.w	r7[-8],r8
80001d90:	c5 48       	rjmp	80001e38 <_ZN9ADCSensor15getIntegerValueEbm+0x1f8>
			
			controller.init();
80001d92:	ee f8 ff ec 	ld.w	r8,r7[-20]
80001d96:	2f c8       	sub	r8,-4
80001d98:	30 19       	mov	r9,1
80001d9a:	ef 49 ff b4 	st.w	r7[-76],r9
80001d9e:	10 9c       	mov	r12,r8
80001da0:	f0 1f 00 5b 	mcall	80001f0c <_ZN9ADCSensor15getIntegerValueEbm+0x2cc>
			
			values [ i ] = (signed long*) ADC_BASE + LAST_CONVERTED_DATA_REGISTER_OFFSET * channelID;
80001da4:	ee f9 ff f8 	ld.w	r9,r7[-8]
80001da8:	ee f8 ff ec 	ld.w	r8,r7[-20]
80001dac:	70 b8       	ld.w	r8,r8[0x2c]
80001dae:	f0 0a 15 07 	lsl	r10,r8,0x7
80001db2:	e0 68 3c 00 	mov	r8,15360
80001db6:	ea 18 0f ff 	orh	r8,0xfff
80001dba:	10 0a       	add	r10,r8
80001dbc:	ee f8 ff f4 	ld.w	r8,r7[-12]
80001dc0:	f0 09 09 2a 	st.w	r8[r9<<0x2],r10
			
			controller.cleanUpChannel( channelID );
80001dc4:	ee f8 ff ec 	ld.w	r8,r7[-20]
80001dc8:	70 b8       	ld.w	r8,r8[0x2c]
80001dca:	5c 58       	castu.b	r8
80001dcc:	10 99       	mov	r9,r8
80001dce:	ee f8 ff ec 	ld.w	r8,r7[-20]
80001dd2:	2f c8       	sub	r8,-4
80001dd4:	12 9b       	mov	r11,r9
80001dd6:	10 9c       	mov	r12,r8
80001dd8:	f0 1f 00 4e 	mcall	80001f10 <_ZN9ADCSensor15getIntegerValueEbm+0x2d0>
			
			if ( adcSensor->zeroOffset == 0 ) {
80001ddc:	ee f8 ff ec 	ld.w	r8,r7[-20]
80001de0:	70 08       	ld.w	r8,r8[0x0]
80001de2:	70 18       	ld.w	r8,r8[0x4]
80001de4:	58 08       	cp.w	r8,0
80001de6:	c1 01       	brne	80001e06 <_ZN9ADCSensor15getIntegerValueEbm+0x1c6>
			
				integerValue += *values [ i ];
80001de8:	ee f8 ff ec 	ld.w	r8,r7[-20]
80001dec:	70 99       	ld.w	r9,r8[0x24]
80001dee:	ee fa ff f8 	ld.w	r10,r7[-8]
80001df2:	ee f8 ff f4 	ld.w	r8,r7[-12]
80001df6:	f0 0a 03 28 	ld.w	r8,r8[r10<<0x2]
80001dfa:	70 08       	ld.w	r8,r8[0x0]
80001dfc:	10 09       	add	r9,r8
80001dfe:	ee f8 ff ec 	ld.w	r8,r7[-20]
80001e02:	91 99       	st.w	r8[0x24],r9
80001e04:	c1 58       	rjmp	80001e2e <_ZN9ADCSensor15getIntegerValueEbm+0x1ee>
			
			} else {
				
				integerValue += *values [ i ] - adcSensor->zeroOffset;
80001e06:	ee f8 ff ec 	ld.w	r8,r7[-20]
80001e0a:	70 99       	ld.w	r9,r8[0x24]
80001e0c:	ee fa ff f8 	ld.w	r10,r7[-8]
80001e10:	ee f8 ff f4 	ld.w	r8,r7[-12]
80001e14:	f0 0a 03 28 	ld.w	r8,r8[r10<<0x2]
80001e18:	70 0a       	ld.w	r10,r8[0x0]
80001e1a:	ee f8 ff ec 	ld.w	r8,r7[-20]
80001e1e:	70 08       	ld.w	r8,r8[0x0]
80001e20:	70 18       	ld.w	r8,r8[0x4]
80001e22:	f4 08 01 08 	sub	r8,r10,r8
80001e26:	10 09       	add	r9,r8
80001e28:	ee f8 ff ec 	ld.w	r8,r7[-20]
80001e2c:	91 99       	st.w	r8[0x24],r9
		
		//In jedem Schleifendurchgang wird der ADC initialisiert (d.h. eine Konvertierung gestartet),
		//der letzte Wert wird ausgelesen und in dem array values gespeichert. Danach wird der ADC wird zurückgesetzt.
		//Falls ein Offset verwendet wird, wird dieser vom ausgelesenen wert abgezogen.
		
		for ( unsigned int i = 0; i < numberOfValuesForAverage; i++ ){
80001e2e:	ee f8 ff f8 	ld.w	r8,r7[-8]
80001e32:	2f f8       	sub	r8,-1
80001e34:	ef 48 ff f8 	st.w	r7[-8],r8
80001e38:	ee f9 ff f8 	ld.w	r9,r7[-8]
80001e3c:	ee f8 ff e4 	ld.w	r8,r7[-28]
80001e40:	10 39       	cp.w	r9,r8
80001e42:	5f 38       	srlo	r8
80001e44:	5c 58       	castu.b	r8
80001e46:	ca 61       	brne	80001d92 <_ZN9ADCSensor15getIntegerValueEbm+0x152>
				
				integerValue += *values [ i ] - adcSensor->zeroOffset;
			}
		}
		
		integerValue = integerValue / numberOfValuesForAverage;
80001e48:	ee f8 ff ec 	ld.w	r8,r7[-20]
80001e4c:	70 98       	ld.w	r8,r8[0x24]
80001e4e:	ee f9 ff e4 	ld.w	r9,r7[-28]
80001e52:	f0 09 0d 08 	divu	r8,r8,r9
80001e56:	10 99       	mov	r9,r8
80001e58:	ee f8 ff ec 	ld.w	r8,r7[-20]
80001e5c:	91 99       	st.w	r8[0x24],r9
		
		return integerValue;
80001e5e:	ee f8 ff ec 	ld.w	r8,r7[-20]
80001e62:	70 98       	ld.w	r8,r8[0x24]
80001e64:	ee fd ff ac 	ld.w	sp,r7[-84]
80001e68:	c3 e8       	rjmp	80001ee4 <_ZN9ADCSensor15getIntegerValueEbm+0x2a4>
80001e6a:	ee f8 ff b8 	ld.w	r8,r7[-72]
80001e6e:	ee f9 ff bc 	ld.w	r9,r7[-68]
80001e72:	ee fd ff ac 	ld.w	sp,r7[-84]
80001e76:	3f f9       	mov	r9,-1
80001e78:	ef 49 ff b4 	st.w	r7[-76],r9
80001e7c:	10 9c       	mov	r12,r8
80001e7e:	f0 1f 00 26 	mcall	80001f14 <_ZN9ADCSensor15getIntegerValueEbm+0x2d4>
		
	} else {
		
		controller.init();
80001e82:	ee f8 ff ec 	ld.w	r8,r7[-20]
80001e86:	2f c8       	sub	r8,-4
80001e88:	3f f9       	mov	r9,-1
80001e8a:	ef 49 ff b4 	st.w	r7[-76],r9
80001e8e:	10 9c       	mov	r12,r8
80001e90:	f0 1f 00 1f 	mcall	80001f0c <_ZN9ADCSensor15getIntegerValueEbm+0x2cc>
		
		//letzten Wert auslesen
		int* getValue = (int*) ADC_BASE + LAST_CONVERTED_DATA_REGISTER_OFFSET * channelID;
80001e94:	ee f8 ff ec 	ld.w	r8,r7[-20]
80001e98:	70 b8       	ld.w	r8,r8[0x2c]
80001e9a:	f0 09 15 07 	lsl	r9,r8,0x7
80001e9e:	e0 68 3c 00 	mov	r8,15360
80001ea2:	ea 18 0f ff 	orh	r8,0xfff
80001ea6:	f2 08 00 08 	add	r8,r9,r8
80001eaa:	ef 48 ff fc 	st.w	r7[-4],r8
		
		if ( adcSensor->zeroOffset == 0 ){
80001eae:	ee f8 ff ec 	ld.w	r8,r7[-20]
80001eb2:	70 08       	ld.w	r8,r8[0x0]
80001eb4:	70 18       	ld.w	r8,r8[0x4]
80001eb6:	58 08       	cp.w	r8,0
80001eb8:	c0 81       	brne	80001ec8 <_ZN9ADCSensor15getIntegerValueEbm+0x288>
			
			integerValue = *getValue;
80001eba:	ee f8 ff fc 	ld.w	r8,r7[-4]
80001ebe:	70 09       	ld.w	r9,r8[0x0]
80001ec0:	ee f8 ff ec 	ld.w	r8,r7[-20]
80001ec4:	91 99       	st.w	r8[0x24],r9
80001ec6:	c0 c8       	rjmp	80001ede <_ZN9ADCSensor15getIntegerValueEbm+0x29e>
			
		} else {
		
		integerValue = *getValue - adcSensor->zeroOffset;
80001ec8:	ee f8 ff fc 	ld.w	r8,r7[-4]
80001ecc:	70 09       	ld.w	r9,r8[0x0]
80001ece:	ee f8 ff ec 	ld.w	r8,r7[-20]
80001ed2:	70 08       	ld.w	r8,r8[0x0]
80001ed4:	70 18       	ld.w	r8,r8[0x4]
80001ed6:	10 19       	sub	r9,r8
80001ed8:	ee f8 ff ec 	ld.w	r8,r7[-20]
80001edc:	91 99       	st.w	r8[0x24],r9
		
		}
		
		return integerValue;
80001ede:	ee f8 ff ec 	ld.w	r8,r7[-20]
80001ee2:	70 98       	ld.w	r8,r8[0x24]
80001ee4:	ef 48 ff 88 	st.w	r7[-120],r8
80001ee8:	ee c8 00 50 	sub	r8,r7,80
80001eec:	10 9c       	mov	r12,r8
80001eee:	f0 1f 00 0b 	mcall	80001f18 <_ZN9ADCSensor15getIntegerValueEbm+0x2d8>
		
	}

}
80001ef2:	ee fc ff 88 	ld.w	r12,r7[-120]
80001ef6:	ee fd ff 84 	ld.w	sp,r7[-124]
80001efa:	2e 1d       	sub	sp,-124
80001efc:	d8 32       	popm	r0-r7,pc
80001efe:	00 00       	add	r0,r0
80001f00:	80 00       	ld.sh	r0,r0[0x0]
80001f02:	28 94       	sub	r4,-119
80001f04:	00 00       	add	r0,r0
80001f06:	00 0a       	add	r10,r0
80001f08:	80 00       	ld.sh	r0,r0[0x0]
80001f0a:	72 a4       	ld.w	r4,r9[0x28]
80001f0c:	80 00       	ld.sh	r0,r0[0x0]
80001f0e:	10 28       	rsub	r8,r8
80001f10:	80 00       	ld.sh	r0,r0[0x0]
80001f12:	10 ae       	st.w	r8++,lr
80001f14:	80 00       	ld.sh	r0,r0[0x0]
80001f16:	74 6c       	ld.w	r12,r10[0x18]
80001f18:	80 00       	ld.sh	r0,r0[0x0]
80001f1a:	72 b4       	ld.w	r4,r9[0x2c]

80001f1c <_ZN9ADCSensor13setZeroOffsetEbl>:


void ADCSensor::setZeroOffset( bool active, signed long offset ) {
80001f1c:	eb cd 40 80 	pushm	r7,lr
80001f20:	1a 97       	mov	r7,sp
80001f22:	20 3d       	sub	sp,12
80001f24:	ef 4c ff fc 	st.w	r7[-4],r12
80001f28:	16 98       	mov	r8,r11
80001f2a:	ef 4a ff f4 	st.w	r7[-12],r10
80001f2e:	ef 68 ff f8 	st.b	r7[-8],r8
	
	adcSensor->zeroOffset = offset;
80001f32:	ee f8 ff fc 	ld.w	r8,r7[-4]
80001f36:	70 08       	ld.w	r8,r8[0x0]
80001f38:	ee f9 ff f4 	ld.w	r9,r7[-12]
80001f3c:	91 19       	st.w	r8[0x4],r9
	adcSensor->useZeroOffset = active;	
80001f3e:	ee f8 ff fc 	ld.w	r8,r7[-4]
80001f42:	70 09       	ld.w	r9,r8[0x0]
80001f44:	ef 38 ff f8 	ld.ub	r8,r7[-8]
80001f48:	f3 68 00 0c 	st.b	r9[12],r8

}
80001f4c:	2f dd       	sub	sp,-12
80001f4e:	e3 cd 80 80 	ldm	sp++,r7,pc

80001f52 <_ZN9ADCSensor21getZeroOffsetIsActiveEv>:

bool ADCSensor::getZeroOffsetIsActive() {
80001f52:	eb cd 40 80 	pushm	r7,lr
80001f56:	1a 97       	mov	r7,sp
80001f58:	20 1d       	sub	sp,4
80001f5a:	ef 4c ff fc 	st.w	r7[-4],r12
	
	return adcSensor->useZeroOffset;
80001f5e:	ee f8 ff fc 	ld.w	r8,r7[-4]
80001f62:	70 08       	ld.w	r8,r8[0x0]
80001f64:	f1 38 00 0c 	ld.ub	r8,r8[12]
}
80001f68:	10 9c       	mov	r12,r8
80001f6a:	2f fd       	sub	sp,-4
80001f6c:	e3 cd 80 80 	ldm	sp++,r7,pc

80001f70 <_ZN9ADCSensor13getZeroOffsetEv>:

signed long ADCSensor::getZeroOffset() {
80001f70:	eb cd 40 80 	pushm	r7,lr
80001f74:	1a 97       	mov	r7,sp
80001f76:	20 1d       	sub	sp,4
80001f78:	ef 4c ff fc 	st.w	r7[-4],r12
	
	return adcSensor->zeroOffset;
80001f7c:	ee f8 ff fc 	ld.w	r8,r7[-4]
80001f80:	70 08       	ld.w	r8,r8[0x0]
80001f82:	70 18       	ld.w	r8,r8[0x4]
}
80001f84:	10 9c       	mov	r12,r8
80001f86:	2f fd       	sub	sp,-4
80001f88:	e3 cd 80 80 	ldm	sp++,r7,pc

80001f8c <_ZN10GPIOSensor8getValueEv>:
	else CLEAR_BIT(*PUER, pin);
	// enable glitch filter
	SET_BIT(*GFER, pin);
}

bool GPIOSensor::getValue() {
80001f8c:	eb cd 40 80 	pushm	r7,lr
80001f90:	1a 97       	mov	r7,sp
80001f92:	20 1d       	sub	sp,4
80001f94:	ef 4c ff fc 	st.w	r7[-4],r12
	return BIT_IS_SET(*PVR, pin);
80001f98:	ee f8 ff fc 	ld.w	r8,r7[-4]
80001f9c:	70 38       	ld.w	r8,r8[0xc]
80001f9e:	70 08       	ld.w	r8,r8[0x0]
80001fa0:	10 99       	mov	r9,r8
80001fa2:	ee f8 ff fc 	ld.w	r8,r7[-4]
80001fa6:	70 08       	ld.w	r8,r8[0x0]
80001fa8:	f2 08 0a 48 	lsr	r8,r9,r8
80001fac:	f1 d8 c0 01 	bfextu	r8,r8,0x0,0x1
80001fb0:	5c 58       	castu.b	r8
}
80001fb2:	10 9c       	mov	r12,r8
80001fb4:	2f fd       	sub	sp,-4
80001fb6:	e3 cd 80 80 	ldm	sp++,r7,pc
80001fba:	d7 03       	nop

80001fbc <_ZN5Timer18resetInterruptFlagEv>:
else{
	SET_BIT(*IDR0, 4); //Entspricht: *IDR0 |= 1 << 4; //CPCS: This bit ill clear the sorresponding bit in IMR (Interrupt Mask Register, read-only)
}
}

void Timer::resetInterruptFlag(void) {
80001fbc:	eb cd 40 80 	pushm	r7,lr
80001fc0:	1a 97       	mov	r7,sp
	*SR0; //Reading the Status Register will also clear the interrupt bit for the corresponding interrupts.
80001fc2:	48 38       	lddpc	r8,80001fcc <_ZN5Timer18resetInterruptFlagEv+0x10>
80001fc4:	70 08       	ld.w	r8,r8[0x0]
80001fc6:	70 08       	ld.w	r8,r8[0x0]
}
80001fc8:	e3 cd 80 80 	ldm	sp++,r7,pc
80001fcc:	00 00       	add	r0,r0
80001fce:	00 bc       	st.h	r0++,r12

80001fd0 <_ZdlPv>:
80001fd0:	d4 01       	pushm	lr
80001fd2:	58 0c       	cp.w	r12,0
80001fd4:	c0 30       	breq	80001fda <_ZdlPv+0xa>
80001fd6:	f0 1f 00 02 	mcall	80001fdc <_ZdlPv+0xc>
80001fda:	d8 02       	popm	pc
80001fdc:	80 00       	ld.sh	r0,r0[0x0]
80001fde:	79 d0       	ld.w	r0,r12[0x74]

80001fe0 <_Znwm>:
80001fe0:	eb cd 40 81 	pushm	r0,r7,lr
80001fe4:	20 fd       	sub	sp,60
80001fe6:	fa c9 ff c4 	sub	r9,sp,-60
80001fea:	fa c8 ff d8 	sub	r8,sp,-40
80001fee:	91 09       	st.w	r8[0x0],r9
80001ff0:	91 2d       	st.w	r8[0x8],sp
80001ff2:	4a 19       	lddpc	r9,80002074 <_Znwm+0x94>
80001ff4:	50 89       	stdsp	sp[0x20],r9
80001ff6:	4a 19       	lddpc	r9,80002078 <_Znwm+0x98>
80001ff8:	50 99       	stdsp	sp[0x24],r9
80001ffa:	4a 19       	lddpc	r9,8000207c <_Znwm+0x9c>
80001ffc:	50 1c       	stdsp	sp[0x4],r12
80001ffe:	91 19       	st.w	r8[0x4],r9
80002000:	fa cc ff f8 	sub	r12,sp,-8
80002004:	f0 1f 00 1f 	mcall	80002080 <_Znwm+0xa0>
80002008:	40 18       	lddsp	r8,sp[0x4]
8000200a:	58 08       	cp.w	r8,0
8000200c:	f9 b8 00 01 	moveq	r8,1
80002010:	50 18       	stdsp	sp[0x4],r8
80002012:	10 9c       	mov	r12,r8
80002014:	f0 1f 00 1c 	mcall	80002084 <_Znwm+0xa4>
80002018:	50 0c       	stdsp	sp[0x0],r12
8000201a:	c0 d1       	brne	80002034 <_Znwm+0x54>
8000201c:	49 b9       	lddpc	r9,80002088 <_Znwm+0xa8>
8000201e:	72 08       	ld.w	r8,r9[0x0]
80002020:	58 08       	cp.w	r8,0
80002022:	c1 10       	breq	80002044 <_Znwm+0x64>
80002024:	30 19       	mov	r9,1
80002026:	50 39       	stdsp	sp[0xc],r9
80002028:	5d 18       	icall	r8
8000202a:	40 1c       	lddsp	r12,sp[0x4]
8000202c:	f0 1f 00 16 	mcall	80002084 <_Znwm+0xa4>
80002030:	50 0c       	stdsp	sp[0x0],r12
80002032:	cf 50       	breq	8000201c <_Znwm+0x3c>
80002034:	fa cc ff f8 	sub	r12,sp,-8
80002038:	f0 1f 00 15 	mcall	8000208c <_Znwm+0xac>
8000203c:	40 0c       	lddsp	r12,sp[0x0]
8000203e:	2f 1d       	sub	sp,-60
80002040:	e3 cd 80 81 	ldm	sp++,r0,r7,pc
80002044:	30 4c       	mov	r12,4
80002046:	f0 1f 00 13 	mcall	80002090 <_Znwm+0xb0>
8000204a:	49 38       	lddpc	r8,80002094 <_Znwm+0xb4>
8000204c:	2f 88       	sub	r8,-8
8000204e:	99 08       	st.w	r12[0x0],r8
80002050:	30 18       	mov	r8,1
80002052:	49 2a       	lddpc	r10,80002098 <_Znwm+0xb8>
80002054:	50 38       	stdsp	sp[0xc],r8
80002056:	49 2b       	lddpc	r11,8000209c <_Znwm+0xbc>
80002058:	f0 1f 00 12 	mcall	800020a0 <_Znwm+0xc0>
8000205c:	40 4c       	lddsp	r12,sp[0x10]
8000205e:	40 58       	lddsp	r8,sp[0x14]
80002060:	5b f8       	cp.w	r8,-1
80002062:	c0 50       	breq	8000206c <_Znwm+0x8c>
80002064:	3f f8       	mov	r8,-1
80002066:	50 38       	stdsp	sp[0xc],r8
80002068:	f0 1f 00 0f 	mcall	800020a4 <_Znwm+0xc4>
8000206c:	50 38       	stdsp	sp[0xc],r8
8000206e:	f0 1f 00 0f 	mcall	800020a8 <_Znwm+0xc8>
80002072:	00 00       	add	r0,r0
80002074:	80 00       	ld.sh	r0,r0[0x0]
80002076:	28 94       	sub	r4,-119
80002078:	00 00       	add	r0,r0
8000207a:	00 10       	sub	r0,r0
8000207c:	80 00       	ld.sh	r0,r0[0x0]
8000207e:	20 5c       	sub	r12,5
80002080:	80 00       	ld.sh	r0,r0[0x0]
80002082:	72 a4       	ld.w	r4,r9[0x28]
80002084:	80 00       	ld.sh	r0,r0[0x0]
80002086:	79 e8       	ld.w	r8,r12[0x78]
80002088:	00 00       	add	r0,r0
8000208a:	07 34       	ld.ub	r4,r3++
8000208c:	80 00       	ld.sh	r0,r0[0x0]
8000208e:	72 b4       	ld.w	r4,r9[0x2c]
80002090:	80 00       	ld.sh	r0,r0[0x0]
80002092:	21 38       	sub	r8,19
80002094:	80 00       	ld.sh	r0,r0[0x0]
80002096:	d2 00       	acall	0x20
80002098:	80 00       	ld.sh	r0,r0[0x0]
8000209a:	20 b4       	sub	r4,11
8000209c:	80 00       	ld.sh	r0,r0[0x0]
8000209e:	d2 24       	*unknown*
800020a0:	80 00       	ld.sh	r0,r0[0x0]
800020a2:	23 94       	sub	r4,57
800020a4:	80 00       	ld.sh	r0,r0[0x0]
800020a6:	74 6c       	ld.w	r12,r10[0x18]
800020a8:	80 00       	ld.sh	r0,r0[0x0]
800020aa:	27 54       	sub	r4,117

800020ac <_ZNKSt9bad_alloc4whatEv>:
800020ac:	48 1c       	lddpc	r12,800020b0 <_ZNKSt9bad_alloc4whatEv+0x4>
800020ae:	5e fc       	retal	r12
800020b0:	80 00       	ld.sh	r0,r0[0x0]
800020b2:	d2 30       	acall	0x23

800020b4 <_ZNSt9bad_allocD1Ev>:
800020b4:	d4 01       	pushm	lr
800020b6:	48 48       	lddpc	r8,800020c4 <_ZNSt9bad_allocD1Ev+0x10>
800020b8:	2f 88       	sub	r8,-8
800020ba:	99 08       	st.w	r12[0x0],r8
800020bc:	f0 1f 00 03 	mcall	800020c8 <_ZNSt9bad_allocD1Ev+0x14>
800020c0:	d8 02       	popm	pc
800020c2:	00 00       	add	r0,r0
800020c4:	80 00       	ld.sh	r0,r0[0x0]
800020c6:	d2 00       	acall	0x20
800020c8:	80 00       	ld.sh	r0,r0[0x0]
800020ca:	2c 9c       	sub	r12,-55

800020cc <_ZNSt9bad_allocD0Ev>:
800020cc:	eb cd 40 80 	pushm	r7,lr
800020d0:	48 68       	lddpc	r8,800020e8 <_ZNSt9bad_allocD0Ev+0x1c>
800020d2:	2f 88       	sub	r8,-8
800020d4:	18 97       	mov	r7,r12
800020d6:	99 08       	st.w	r12[0x0],r8
800020d8:	f0 1f 00 05 	mcall	800020ec <_ZNSt9bad_allocD0Ev+0x20>
800020dc:	0e 9c       	mov	r12,r7
800020de:	f0 1f 00 05 	mcall	800020f0 <_ZNSt9bad_allocD0Ev+0x24>
800020e2:	e3 cd 80 80 	ldm	sp++,r7,pc
800020e6:	00 00       	add	r0,r0
800020e8:	80 00       	ld.sh	r0,r0[0x0]
800020ea:	d2 00       	acall	0x20
800020ec:	80 00       	ld.sh	r0,r0[0x0]
800020ee:	2c 9c       	sub	r12,-55
800020f0:	80 00       	ld.sh	r0,r0[0x0]
800020f2:	1f d0       	ld.ub	r0,pc[0x5]

800020f4 <_GLOBAL__I___cxa_allocate_exception>:
800020f4:	5e fc       	retal	r12
800020f6:	d7 03       	nop

800020f8 <__cxa_free_exception>:
800020f8:	d4 01       	pushm	lr
800020fa:	48 d8       	lddpc	r8,8000212c <__cxa_free_exception+0x34>
800020fc:	18 38       	cp.w	r8,r12
800020fe:	e0 8b 00 06 	brhi	8000210a <__cxa_free_exception+0x12>
80002102:	f0 c9 f8 00 	sub	r9,r8,-2048
80002106:	12 3c       	cp.w	r12,r9
80002108:	c0 53       	brcs	80002112 <__cxa_free_exception+0x1a>
8000210a:	24 4c       	sub	r12,68
8000210c:	f0 1f 00 09 	mcall	80002130 <__cxa_free_exception+0x38>
80002110:	d8 02       	popm	pc
80002112:	f8 08 01 08 	sub	r8,r12,r8
80002116:	48 89       	lddpc	r9,80002134 <__cxa_free_exception+0x3c>
80002118:	a9 98       	lsr	r8,0x9
8000211a:	72 0a       	ld.w	r10,r9[0x0]
8000211c:	30 1c       	mov	r12,1
8000211e:	f8 08 09 48 	lsl	r8,r12,r8
80002122:	5c d8       	com	r8
80002124:	14 68       	and	r8,r10
80002126:	93 08       	st.w	r9[0x0],r8
80002128:	d8 02       	popm	pc
8000212a:	00 00       	add	r0,r0
8000212c:	00 00       	add	r0,r0
8000212e:	07 3c       	ld.ub	r12,r3++
80002130:	80 00       	ld.sh	r0,r0[0x0]
80002132:	79 d0       	ld.w	r0,r12[0x74]
80002134:	00 00       	add	r0,r0
80002136:	07 38       	ld.ub	r8,r3++

80002138 <__cxa_allocate_exception>:
80002138:	eb cd 40 81 	pushm	r0,r7,lr
8000213c:	21 1d       	sub	sp,68
8000213e:	fa c9 ff bc 	sub	r9,sp,-68
80002142:	fa c8 ff d0 	sub	r8,sp,-48
80002146:	91 09       	st.w	r8[0x0],r9
80002148:	91 2d       	st.w	r8[0x8],sp
8000214a:	4b 19       	lddpc	r9,8000220c <__cxa_allocate_exception+0xd4>
8000214c:	50 a9       	stdsp	sp[0x28],r9
8000214e:	4b 19       	lddpc	r9,80002210 <__cxa_allocate_exception+0xd8>
80002150:	50 b9       	stdsp	sp[0x2c],r9
80002152:	4b 19       	lddpc	r9,80002214 <__cxa_allocate_exception+0xdc>
80002154:	50 2c       	stdsp	sp[0x8],r12
80002156:	91 19       	st.w	r8[0x4],r9
80002158:	fa cc ff f0 	sub	r12,sp,-16
8000215c:	f0 1f 00 2f 	mcall	80002218 <__cxa_allocate_exception+0xe0>
80002160:	40 28       	lddsp	r8,sp[0x8]
80002162:	2b c8       	sub	r8,-68
80002164:	50 18       	stdsp	sp[0x4],r8
80002166:	10 9c       	mov	r12,r8
80002168:	f0 1f 00 2d 	mcall	8000221c <__cxa_allocate_exception+0xe4>
8000216c:	50 0c       	stdsp	sp[0x0],r12
8000216e:	c1 60       	breq	8000219a <__cxa_allocate_exception+0x62>
80002170:	f0 1f 00 2c 	mcall	80002220 <__cxa_allocate_exception+0xe8>
80002174:	78 18       	ld.w	r8,r12[0x4]
80002176:	2f f8       	sub	r8,-1
80002178:	34 4a       	mov	r10,68
8000217a:	99 18       	st.w	r12[0x4],r8
8000217c:	30 0b       	mov	r11,0
8000217e:	40 0c       	lddsp	r12,sp[0x0]
80002180:	f0 1f 00 29 	mcall	80002224 <__cxa_allocate_exception+0xec>
80002184:	40 08       	lddsp	r8,sp[0x0]
80002186:	2b c8       	sub	r8,-68
80002188:	fa cc ff f0 	sub	r12,sp,-16
8000218c:	50 38       	stdsp	sp[0xc],r8
8000218e:	f0 1f 00 27 	mcall	80002228 <__cxa_allocate_exception+0xf0>
80002192:	40 3c       	lddsp	r12,sp[0xc]
80002194:	2e fd       	sub	sp,-68
80002196:	e3 cd 80 81 	ldm	sp++,r0,r7,pc
8000219a:	4a 58       	lddpc	r8,8000222c <__cxa_allocate_exception+0xf4>
8000219c:	40 19       	lddsp	r9,sp[0x4]
8000219e:	70 08       	ld.w	r8,r8[0x0]
800021a0:	e0 49 02 00 	cp.w	r9,512
800021a4:	e0 88 00 06 	brls	800021b0 <__cxa_allocate_exception+0x78>
800021a8:	30 18       	mov	r8,1
800021aa:	50 58       	stdsp	sp[0x14],r8
800021ac:	f0 1f 00 21 	mcall	80002230 <__cxa_allocate_exception+0xf8>
800021b0:	f3 d8 c0 01 	bfextu	r9,r8,0x0,0x1
800021b4:	c0 f0       	breq	800021d2 <__cxa_allocate_exception+0x9a>
800021b6:	ed b8 00 01 	bld	r8,0x1
800021ba:	c1 71       	brne	800021e8 <__cxa_allocate_exception+0xb0>
800021bc:	f0 09 16 02 	lsr	r9,r8,0x2
800021c0:	ed b9 00 00 	bld	r9,0x0
800021c4:	c1 51       	brne	800021ee <__cxa_allocate_exception+0xb6>
800021c6:	ed b9 00 01 	bld	r9,0x1
800021ca:	ce f0       	breq	800021a8 <__cxa_allocate_exception+0x70>
800021cc:	30 8a       	mov	r10,8
800021ce:	30 39       	mov	r9,3
800021d0:	c0 28       	rjmp	800021d4 <__cxa_allocate_exception+0x9c>
800021d2:	30 1a       	mov	r10,1
800021d4:	f5 e8 10 08 	or	r8,r10,r8
800021d8:	a9 79       	lsl	r9,0x9
800021da:	49 5a       	lddpc	r10,8000222c <__cxa_allocate_exception+0xf4>
800021dc:	95 08       	st.w	r10[0x0],r8
800021de:	49 68       	lddpc	r8,80002234 <__cxa_allocate_exception+0xfc>
800021e0:	f0 09 00 09 	add	r9,r8,r9
800021e4:	50 09       	stdsp	sp[0x0],r9
800021e6:	cc 5b       	rjmp	80002170 <__cxa_allocate_exception+0x38>
800021e8:	30 2a       	mov	r10,2
800021ea:	30 19       	mov	r9,1
800021ec:	cf 4b       	rjmp	800021d4 <__cxa_allocate_exception+0x9c>
800021ee:	30 4a       	mov	r10,4
800021f0:	30 29       	mov	r9,2
800021f2:	cf 1b       	rjmp	800021d4 <__cxa_allocate_exception+0x9c>
800021f4:	40 6c       	lddsp	r12,sp[0x18]
800021f6:	40 78       	lddsp	r8,sp[0x1c]
800021f8:	5b f8       	cp.w	r8,-1
800021fa:	c0 50       	breq	80002204 <__cxa_allocate_exception+0xcc>
800021fc:	3f f8       	mov	r8,-1
800021fe:	50 58       	stdsp	sp[0x14],r8
80002200:	f0 1f 00 0e 	mcall	80002238 <__cxa_allocate_exception+0x100>
80002204:	50 58       	stdsp	sp[0x14],r8
80002206:	f0 1f 00 0e 	mcall	8000223c <__cxa_allocate_exception+0x104>
8000220a:	00 00       	add	r0,r0
8000220c:	80 00       	ld.sh	r0,r0[0x0]
8000220e:	28 94       	sub	r4,-119
80002210:	00 00       	add	r0,r0
80002212:	00 24       	rsub	r4,r0
80002214:	80 00       	ld.sh	r0,r0[0x0]
80002216:	21 f4       	sub	r4,31
80002218:	80 00       	ld.sh	r0,r0[0x0]
8000221a:	72 a4       	ld.w	r4,r9[0x28]
8000221c:	80 00       	ld.sh	r0,r0[0x0]
8000221e:	79 e8       	ld.w	r8,r12[0x78]
80002220:	80 00       	ld.sh	r0,r0[0x0]
80002222:	2d 08       	sub	r8,-48
80002224:	80 00       	ld.sh	r0,r0[0x0]
80002226:	80 0e       	ld.sh	lr,r0[0x0]
80002228:	80 00       	ld.sh	r0,r0[0x0]
8000222a:	72 b4       	ld.w	r4,r9[0x2c]
8000222c:	00 00       	add	r0,r0
8000222e:	07 38       	ld.ub	r8,r3++
80002230:	80 00       	ld.sh	r0,r0[0x0]
80002232:	2d 90       	sub	r0,-39
80002234:	00 00       	add	r0,r0
80002236:	07 3c       	ld.ub	r12,r3++
80002238:	80 00       	ld.sh	r0,r0[0x0]
8000223a:	74 6c       	ld.w	r12,r10[0x18]
8000223c:	80 00       	ld.sh	r0,r0[0x0]
8000223e:	27 54       	sub	r4,117

80002240 <_ZNK10__cxxabiv120__si_class_type_info20__do_find_public_srcElPKvPKNS_17__class_type_infoES2_>:
80002240:	eb cd 40 80 	pushm	r7,lr
80002244:	14 38       	cp.w	r8,r10
80002246:	c0 80       	breq	80002256 <_ZNK10__cxxabiv120__si_class_type_info20__do_find_public_srcElPKvPKNS_17__class_type_infoES2_+0x16>
80002248:	78 27       	ld.w	r7,r12[0x8]
8000224a:	0e 9c       	mov	r12,r7
8000224c:	6e 07       	ld.w	r7,r7[0x0]
8000224e:	6e 87       	ld.w	r7,r7[0x20]
80002250:	5d 17       	icall	r7
80002252:	e3 cd 80 80 	ldm	sp++,r7,pc
80002256:	78 1e       	ld.w	lr,r12[0x4]
80002258:	72 17       	ld.w	r7,r9[0x4]
8000225a:	0e 3e       	cp.w	lr,r7
8000225c:	cf 61       	brne	80002248 <_ZNK10__cxxabiv120__si_class_type_info20__do_find_public_srcElPKvPKNS_17__class_type_infoES2_+0x8>
8000225e:	30 6c       	mov	r12,6
80002260:	e3 cd 80 80 	ldm	sp++,r7,pc

80002264 <_ZNK10__cxxabiv120__si_class_type_info12__do_dyncastElNS_17__class_type_info10__sub_kindEPKS1_PKvS4_S6_RNS1_16__dyncast_resultE>:
80002264:	d4 21       	pushm	r4-r7,lr
80002266:	fa c4 ff ec 	sub	r4,sp,-20
8000226a:	72 15       	ld.w	r5,r9[0x4]
8000226c:	68 2e       	ld.w	lr,r4[0x8]
8000226e:	68 06       	ld.w	r6,r4[0x0]
80002270:	68 17       	ld.w	r7,r4[0x4]
80002272:	78 14       	ld.w	r4,r12[0x4]
80002274:	0a 34       	cp.w	r4,r5
80002276:	c0 d0       	breq	80002290 <_ZNK10__cxxabiv120__si_class_type_info12__do_dyncastElNS_17__class_type_info10__sub_kindEPKS1_PKvS4_S6_RNS1_16__dyncast_resultE+0x2c>
80002278:	0e 38       	cp.w	r8,r7
8000227a:	c1 90       	breq	800022ac <_ZNK10__cxxabiv120__si_class_type_info12__do_dyncastElNS_17__class_type_info10__sub_kindEPKS1_PKvS4_S6_RNS1_16__dyncast_resultE+0x48>
8000227c:	78 24       	ld.w	r4,r12[0x8]
8000227e:	08 9c       	mov	r12,r4
80002280:	68 04       	ld.w	r4,r4[0x0]
80002282:	1a de       	st.w	--sp,lr
80002284:	1a d7       	st.w	--sp,r7
80002286:	1a d6       	st.w	--sp,r6
80002288:	68 77       	ld.w	r7,r4[0x1c]
8000228a:	5d 17       	icall	r7
8000228c:	2f dd       	sub	sp,-12
8000228e:	d8 22       	popm	r4-r7,pc
80002290:	9d 1a       	st.w	lr[0x4],r10
80002292:	9d 08       	st.w	lr[0x0],r8
80002294:	58 0b       	cp.w	r11,0
80002296:	c1 05       	brlt	800022b6 <_ZNK10__cxxabiv120__si_class_type_info12__do_dyncastElNS_17__class_type_info10__sub_kindEPKS1_PKvS4_S6_RNS1_16__dyncast_resultE+0x52>
80002298:	f0 0b 00 0b 	add	r11,r8,r11
8000229c:	30 0c       	mov	r12,0
8000229e:	16 37       	cp.w	r7,r11
800022a0:	f9 b7 00 06 	moveq	r7,6
800022a4:	f9 b7 01 01 	movne	r7,1
800022a8:	9d 37       	st.w	lr[0xc],r7
800022aa:	d8 22       	popm	r4-r7,pc
800022ac:	6c 15       	ld.w	r5,r6[0x4]
800022ae:	0a 34       	cp.w	r4,r5
800022b0:	ce 61       	brne	8000227c <_ZNK10__cxxabiv120__si_class_type_info12__do_dyncastElNS_17__class_type_info10__sub_kindEPKS1_PKvS4_S6_RNS1_16__dyncast_resultE+0x18>
800022b2:	9d 2a       	st.w	lr[0x8],r10
800022b4:	d8 2a       	popm	r4-r7,pc,r12=0
800022b6:	5b eb       	cp.w	r11,-2
800022b8:	c0 20       	breq	800022bc <_ZNK10__cxxabiv120__si_class_type_info12__do_dyncastElNS_17__class_type_info10__sub_kindEPKS1_PKvS4_S6_RNS1_16__dyncast_resultE+0x58>
800022ba:	d8 2a       	popm	r4-r7,pc,r12=0
800022bc:	30 18       	mov	r8,1
800022be:	9d 38       	st.w	lr[0xc],r8
800022c0:	cf db       	rjmp	800022ba <_ZNK10__cxxabiv120__si_class_type_info12__do_dyncastElNS_17__class_type_info10__sub_kindEPKS1_PKvS4_S6_RNS1_16__dyncast_resultE+0x56>
800022c2:	d7 03       	nop

800022c4 <_ZNK10__cxxabiv120__si_class_type_info11__do_upcastEPKNS_17__class_type_infoEPKvRNS1_15__upcast_resultE>:
800022c4:	d4 21       	pushm	r4-r7,lr
800022c6:	18 94       	mov	r4,r12
800022c8:	16 97       	mov	r7,r11
800022ca:	14 96       	mov	r6,r10
800022cc:	12 95       	mov	r5,r9
800022ce:	f0 1f 00 07 	mcall	800022e8 <_ZNK10__cxxabiv120__si_class_type_info11__do_upcastEPKNS_17__class_type_infoEPKvRNS1_15__upcast_resultE+0x24>
800022d2:	c0 20       	breq	800022d6 <_ZNK10__cxxabiv120__si_class_type_info11__do_upcastEPKNS_17__class_type_infoEPKvRNS1_15__upcast_resultE+0x12>
800022d4:	da 2a       	popm	r4-r7,pc,r12=1
800022d6:	68 28       	ld.w	r8,r4[0x8]
800022d8:	0a 99       	mov	r9,r5
800022da:	0c 9a       	mov	r10,r6
800022dc:	0e 9b       	mov	r11,r7
800022de:	10 9c       	mov	r12,r8
800022e0:	70 08       	ld.w	r8,r8[0x0]
800022e2:	70 68       	ld.w	r8,r8[0x18]
800022e4:	5d 18       	icall	r8
800022e6:	d8 22       	popm	r4-r7,pc
800022e8:	80 00       	ld.sh	r0,r0[0x0]
800022ea:	30 4a       	mov	r10,4

800022ec <_ZN10__cxxabiv120__si_class_type_infoD1Ev>:
800022ec:	d4 01       	pushm	lr
800022ee:	48 48       	lddpc	r8,800022fc <_ZN10__cxxabiv120__si_class_type_infoD1Ev+0x10>
800022f0:	2f 88       	sub	r8,-8
800022f2:	99 08       	st.w	r12[0x0],r8
800022f4:	f0 1f 00 03 	mcall	80002300 <_ZN10__cxxabiv120__si_class_type_infoD1Ev+0x14>
800022f8:	d8 02       	popm	pc
800022fa:	00 00       	add	r0,r0
800022fc:	80 00       	ld.sh	r0,r0[0x0]
800022fe:	d2 40       	acall	0x24
80002300:	80 00       	ld.sh	r0,r0[0x0]
80002302:	30 7c       	mov	r12,7

80002304 <_ZN10__cxxabiv120__si_class_type_infoD0Ev>:
80002304:	eb cd 40 80 	pushm	r7,lr
80002308:	48 68       	lddpc	r8,80002320 <_ZN10__cxxabiv120__si_class_type_infoD0Ev+0x1c>
8000230a:	2f 88       	sub	r8,-8
8000230c:	18 97       	mov	r7,r12
8000230e:	99 08       	st.w	r12[0x0],r8
80002310:	f0 1f 00 05 	mcall	80002324 <_ZN10__cxxabiv120__si_class_type_infoD0Ev+0x20>
80002314:	0e 9c       	mov	r12,r7
80002316:	f0 1f 00 05 	mcall	80002328 <_ZN10__cxxabiv120__si_class_type_infoD0Ev+0x24>
8000231a:	e3 cd 80 80 	ldm	sp++,r7,pc
8000231e:	00 00       	add	r0,r0
80002320:	80 00       	ld.sh	r0,r0[0x0]
80002322:	d2 40       	acall	0x24
80002324:	80 00       	ld.sh	r0,r0[0x0]
80002326:	30 7c       	mov	r12,7
80002328:	80 00       	ld.sh	r0,r0[0x0]
8000232a:	1f d0       	ld.ub	r0,pc[0x5]

8000232c <__cxa_rethrow>:
8000232c:	eb cd 40 80 	pushm	r7,lr
80002330:	f0 1f 00 15 	mcall	80002384 <__cxa_rethrow+0x58>
80002334:	78 18       	ld.w	r8,r12[0x4]
80002336:	2f f8       	sub	r8,-1
80002338:	99 18       	st.w	r12[0x4],r8
8000233a:	78 07       	ld.w	r7,r12[0x0]
8000233c:	58 07       	cp.w	r7,0
8000233e:	c1 c0       	breq	80002376 <__cxa_rethrow+0x4a>
80002340:	ee ea 00 2c 	ld.d	r10,r7[44]
80002344:	e0 68 d5 00 	mov	r8,54528
80002348:	ea 18 bc d4 	orh	r8,0xbcd4
8000234c:	e0 69 aa bc 	mov	r9,43708
80002350:	ea 19 b8 b1 	orh	r9,0xb8b1
80002354:	f4 08 00 08 	add	r8,r10,r8
80002358:	f6 09 00 49 	adc	r9,r11,r9
8000235c:	58 18       	cp.w	r8,1
8000235e:	5c 29       	cpc	r9
80002360:	e0 88 00 0d 	brls	8000237a <__cxa_rethrow+0x4e>
80002364:	30 08       	mov	r8,0
80002366:	99 08       	st.w	r12[0x0],r8
80002368:	2d 47       	sub	r7,-44
8000236a:	0e 9c       	mov	r12,r7
8000236c:	f0 1f 00 07 	mcall	80002388 <__cxa_rethrow+0x5c>
80002370:	0e 9c       	mov	r12,r7
80002372:	f0 1f 00 07 	mcall	8000238c <__cxa_rethrow+0x60>
80002376:	f0 1f 00 07 	mcall	80002390 <__cxa_rethrow+0x64>
8000237a:	6e 58       	ld.w	r8,r7[0x14]
8000237c:	5c 38       	neg	r8
8000237e:	8f 58       	st.w	r7[0x14],r8
80002380:	cf 4b       	rjmp	80002368 <__cxa_rethrow+0x3c>
80002382:	00 00       	add	r0,r0
80002384:	80 00       	ld.sh	r0,r0[0x0]
80002386:	2d 08       	sub	r8,-48
80002388:	80 00       	ld.sh	r0,r0[0x0]
8000238a:	75 34       	ld.w	r4,r10[0x4c]
8000238c:	80 00       	ld.sh	r0,r0[0x0]
8000238e:	2e 94       	sub	r4,-23
80002390:	80 00       	ld.sh	r0,r0[0x0]
80002392:	2d 90       	sub	r0,-39

80002394 <__cxa_throw>:
80002394:	eb cd 40 80 	pushm	r7,lr
80002398:	30 18       	mov	r8,1
8000239a:	f8 c7 00 14 	sub	r7,r12,20
8000239e:	24 4c       	sub	r12,68
800023a0:	99 08       	st.w	r12[0x0],r8
800023a2:	48 f8       	lddpc	r8,800023dc <__cxa_throw+0x48>
800023a4:	70 08       	ld.w	r8,r8[0x0]
800023a6:	99 38       	st.w	r12[0xc],r8
800023a8:	48 e8       	lddpc	r8,800023e0 <__cxa_throw+0x4c>
800023aa:	70 08       	ld.w	r8,r8[0x0]
800023ac:	99 48       	st.w	r12[0x10],r8
800023ae:	e0 68 2b 00 	mov	r8,11008
800023b2:	ea 18 43 2b 	orh	r8,0x432b
800023b6:	e0 69 55 43 	mov	r9,21827
800023ba:	ea 19 47 4e 	orh	r9,0x474e
800023be:	f8 e9 00 30 	st.d	r12[48],r8
800023c2:	48 98       	lddpc	r8,800023e4 <__cxa_throw+0x50>
800023c4:	99 1b       	st.w	r12[0x4],r11
800023c6:	99 2a       	st.w	r12[0x8],r10
800023c8:	99 e8       	st.w	r12[0x38],r8
800023ca:	0e 9c       	mov	r12,r7
800023cc:	f0 1f 00 07 	mcall	800023e8 <__cxa_throw+0x54>
800023d0:	0e 9c       	mov	r12,r7
800023d2:	f0 1f 00 07 	mcall	800023ec <__cxa_throw+0x58>
800023d6:	f0 1f 00 07 	mcall	800023f0 <__cxa_throw+0x5c>
800023da:	00 00       	add	r0,r0
800023dc:	00 00       	add	r0,r0
800023de:	00 cc       	st.b	r0++,r12
800023e0:	00 00       	add	r0,r0
800023e2:	00 d0       	st.w	--r0,r0
800023e4:	80 00       	ld.sh	r0,r0[0x0]
800023e6:	23 f4       	sub	r4,63
800023e8:	80 00       	ld.sh	r0,r0[0x0]
800023ea:	74 cc       	ld.w	r12,r10[0x30]
800023ec:	80 00       	ld.sh	r0,r0[0x0]
800023ee:	2e 94       	sub	r4,-23
800023f0:	80 00       	ld.sh	r0,r0[0x0]
800023f2:	2d 90       	sub	r0,-39

800023f4 <_ZL23__gxx_exception_cleanup19_Unwind_Reason_CodeP17_Unwind_Exception>:
800023f4:	eb cd 40 80 	pushm	r7,lr
800023f8:	f6 c9 00 30 	sub	r9,r11,48
800023fc:	58 1c       	cp.w	r12,1
800023fe:	e0 8b 00 19 	brhi	80002430 <_ZL23__gxx_exception_cleanup19_Unwind_Reason_CodeP17_Unwind_Exception+0x3c>
80002402:	d2 53       	ssrf	0x5
80002404:	72 08       	ld.w	r8,r9[0x0]
80002406:	20 18       	sub	r8,1
80002408:	f3 78 00 00 	stcond	r9[0],r8
8000240c:	cf b1       	brne	80002402 <_ZL23__gxx_exception_cleanup19_Unwind_Reason_CodeP17_Unwind_Exception+0xe>
8000240e:	58 08       	cp.w	r8,0
80002410:	c0 b1       	brne	80002426 <_ZL23__gxx_exception_cleanup19_Unwind_Reason_CodeP17_Unwind_Exception+0x32>
80002412:	72 28       	ld.w	r8,r9[0x8]
80002414:	58 08       	cp.w	r8,0
80002416:	c0 a0       	breq	8000242a <_ZL23__gxx_exception_cleanup19_Unwind_Reason_CodeP17_Unwind_Exception+0x36>
80002418:	f6 c7 ff ec 	sub	r7,r11,-20
8000241c:	0e 9c       	mov	r12,r7
8000241e:	5d 18       	icall	r8
80002420:	0e 9c       	mov	r12,r7
80002422:	f0 1f 00 06 	mcall	80002438 <_ZL23__gxx_exception_cleanup19_Unwind_Reason_CodeP17_Unwind_Exception+0x44>
80002426:	e3 cd 80 80 	ldm	sp++,r7,pc
8000242a:	f6 c7 ff ec 	sub	r7,r11,-20
8000242e:	cf 9b       	rjmp	80002420 <_ZL23__gxx_exception_cleanup19_Unwind_Reason_CodeP17_Unwind_Exception+0x2c>
80002430:	72 4c       	ld.w	r12,r9[0x10]
80002432:	f0 1f 00 03 	mcall	8000243c <_ZL23__gxx_exception_cleanup19_Unwind_Reason_CodeP17_Unwind_Exception+0x48>
80002436:	00 00       	add	r0,r0
80002438:	80 00       	ld.sh	r0,r0[0x0]
8000243a:	20 f8       	sub	r8,15
8000243c:	80 00       	ld.sh	r0,r0[0x0]
8000243e:	2d 10       	sub	r0,-47

80002440 <_ZL16get_adjusted_ptrPKSt9type_infoS1_PPv>:
80002440:	eb cd 40 c0 	pushm	r6-r7,lr
80002444:	20 2d       	sub	sp,8
80002446:	74 09       	ld.w	r9,r10[0x0]
80002448:	76 08       	ld.w	r8,r11[0x0]
8000244a:	50 0b       	stdsp	sp[0x0],r11
8000244c:	18 96       	mov	r6,r12
8000244e:	14 97       	mov	r7,r10
80002450:	16 9c       	mov	r12,r11
80002452:	70 28       	ld.w	r8,r8[0x8]
80002454:	50 19       	stdsp	sp[0x4],r9
80002456:	5d 18       	icall	r8
80002458:	40 0b       	lddsp	r11,sp[0x0]
8000245a:	c0 40       	breq	80002462 <_ZL16get_adjusted_ptrPKSt9type_infoS1_PPv+0x22>
8000245c:	40 18       	lddsp	r8,sp[0x4]
8000245e:	70 08       	ld.w	r8,r8[0x0]
80002460:	50 18       	stdsp	sp[0x4],r8
80002462:	6c 08       	ld.w	r8,r6[0x0]
80002464:	0c 9c       	mov	r12,r6
80002466:	70 48       	ld.w	r8,r8[0x10]
80002468:	30 19       	mov	r9,1
8000246a:	fa ca ff fc 	sub	r10,sp,-4
8000246e:	5d 18       	icall	r8
80002470:	c0 40       	breq	80002478 <_ZL16get_adjusted_ptrPKSt9type_infoS1_PPv+0x38>
80002472:	40 18       	lddsp	r8,sp[0x4]
80002474:	30 1c       	mov	r12,1
80002476:	8f 08       	st.w	r7[0x0],r8
80002478:	2f ed       	sub	sp,-8
8000247a:	e3 cd 80 c0 	ldm	sp++,r6-r7,pc
8000247e:	d7 03       	nop

80002480 <_ZL21base_of_encoded_valuehP15_Unwind_Context>:
80002480:	d4 01       	pushm	lr
80002482:	3f f8       	mov	r8,-1
80002484:	f0 0c 18 00 	cp.b	r12,r8
80002488:	c1 60       	breq	800024b4 <_ZL21base_of_encoded_valuehP15_Unwind_Context+0x34>
8000248a:	18 98       	mov	r8,r12
8000248c:	e2 18 00 70 	andl	r8,0x70,COH
80002490:	e0 48 00 20 	cp.w	r8,32
80002494:	c1 80       	breq	800024c4 <_ZL21base_of_encoded_valuehP15_Unwind_Context+0x44>
80002496:	e0 8a 00 0d 	brle	800024b0 <_ZL21base_of_encoded_valuehP15_Unwind_Context+0x30>
8000249a:	e0 48 00 40 	cp.w	r8,64
8000249e:	c0 f0       	breq	800024bc <_ZL21base_of_encoded_valuehP15_Unwind_Context+0x3c>
800024a0:	e0 48 00 50 	cp.w	r8,80
800024a4:	c0 80       	breq	800024b4 <_ZL21base_of_encoded_valuehP15_Unwind_Context+0x34>
800024a6:	e0 48 00 30 	cp.w	r8,48
800024aa:	c1 10       	breq	800024cc <_ZL21base_of_encoded_valuehP15_Unwind_Context+0x4c>
800024ac:	f0 1f 00 0a 	mcall	800024d4 <_ZL21base_of_encoded_valuehP15_Unwind_Context+0x54>
800024b0:	58 08       	cp.w	r8,0
800024b2:	c0 21       	brne	800024b6 <_ZL21base_of_encoded_valuehP15_Unwind_Context+0x36>
800024b4:	d8 0a       	popm	pc,r12=0
800024b6:	59 08       	cp.w	r8,16
800024b8:	cf a1       	brne	800024ac <_ZL21base_of_encoded_valuehP15_Unwind_Context+0x2c>
800024ba:	cf db       	rjmp	800024b4 <_ZL21base_of_encoded_valuehP15_Unwind_Context+0x34>
800024bc:	16 9c       	mov	r12,r11
800024be:	f0 1f 00 07 	mcall	800024d8 <_ZL21base_of_encoded_valuehP15_Unwind_Context+0x58>
800024c2:	d8 02       	popm	pc
800024c4:	16 9c       	mov	r12,r11
800024c6:	f0 1f 00 06 	mcall	800024dc <_ZL21base_of_encoded_valuehP15_Unwind_Context+0x5c>
800024ca:	d8 02       	popm	pc
800024cc:	16 9c       	mov	r12,r11
800024ce:	f0 1f 00 05 	mcall	800024e0 <_ZL21base_of_encoded_valuehP15_Unwind_Context+0x60>
800024d2:	d8 02       	popm	pc
800024d4:	80 00       	ld.sh	r0,r0[0x0]
800024d6:	75 70       	ld.w	r0,r10[0x5c]
800024d8:	80 00       	ld.sh	r0,r0[0x0]
800024da:	73 04       	ld.w	r4,r9[0x40]
800024dc:	80 00       	ld.sh	r0,r0[0x0]
800024de:	73 0a       	ld.w	r10,r9[0x40]
800024e0:	80 00       	ld.sh	r0,r0[0x0]
800024e2:	73 08       	ld.w	r8,r9[0x40]

800024e4 <_ZL28read_encoded_value_with_basehjPKhPj>:
800024e4:	d4 21       	pushm	r4-r7,lr
800024e6:	35 08       	mov	r8,80
800024e8:	f0 0c 18 00 	cp.b	r12,r8
800024ec:	c6 c0       	breq	800025c4 <_ZL28read_encoded_value_with_basehjPKhPj+0xe0>
800024ee:	14 96       	mov	r6,r10
800024f0:	f1 dc c0 04 	bfextu	r8,r12,0x0,0x4
800024f4:	58 c8       	cp.w	r8,12
800024f6:	e0 88 00 04 	brls	800024fe <_ZL28read_encoded_value_with_basehjPKhPj+0x1a>
800024fa:	f0 1f 00 37 	mcall	800025d4 <_ZL28read_encoded_value_with_basehjPKhPj+0xf0>
800024fe:	4b 7e       	lddpc	lr,800025d8 <_ZL28read_encoded_value_with_basehjPKhPj+0xf4>
80002500:	fc 08 03 2f 	ld.w	pc,lr[r8<<0x2]
80002504:	15 8e       	ld.ub	lr,r10[0x0]
80002506:	15 98       	ld.ub	r8,r10[0x1]
80002508:	b1 68       	lsl	r8,0x10
8000250a:	f1 ee 11 88 	or	r8,r8,lr<<0x18
8000250e:	15 ae       	ld.ub	lr,r10[0x2]
80002510:	f1 ee 10 88 	or	r8,r8,lr<<0x8
80002514:	15 be       	ld.ub	lr,r10[0x3]
80002516:	2f ca       	sub	r10,-4
80002518:	fd e8 10 08 	or	r8,lr,r8
8000251c:	58 08       	cp.w	r8,0
8000251e:	c0 d0       	breq	80002538 <_ZL28read_encoded_value_with_basehjPKhPj+0x54>
80002520:	18 9e       	mov	lr,r12
80002522:	e2 1e 00 70 	andl	lr,0x70,COH
80002526:	59 0e       	cp.w	lr,16
80002528:	ec 0b 17 00 	moveq	r11,r6
8000252c:	16 08       	add	r8,r11
8000252e:	30 0b       	mov	r11,0
80002530:	f6 0c 18 00 	cp.b	r12,r11
80002534:	c0 24       	brge	80002538 <_ZL28read_encoded_value_with_basehjPKhPj+0x54>
80002536:	70 08       	ld.w	r8,r8[0x0]
80002538:	93 08       	st.w	r9[0x0],r8
8000253a:	14 9c       	mov	r12,r10
8000253c:	d8 22       	popm	r4-r7,pc
8000253e:	15 ce       	ld.ub	lr,r10[0x4]
80002540:	15 d8       	ld.ub	r8,r10[0x5]
80002542:	b1 68       	lsl	r8,0x10
80002544:	f1 ee 11 88 	or	r8,r8,lr<<0x18
80002548:	15 ee       	ld.ub	lr,r10[0x6]
8000254a:	f1 ee 10 88 	or	r8,r8,lr<<0x8
8000254e:	15 fe       	ld.ub	lr,r10[0x7]
80002550:	2f 8a       	sub	r10,-8
80002552:	fd e8 10 08 	or	r8,lr,r8
80002556:	ce 3b       	rjmp	8000251c <_ZL28read_encoded_value_with_basehjPKhPj+0x38>
80002558:	30 08       	mov	r8,0
8000255a:	10 9e       	mov	lr,r8
8000255c:	10 94       	mov	r4,r8
8000255e:	15 37       	ld.ub	r7,r10++
80002560:	eb d7 c0 07 	bfextu	r5,r7,0x0,0x7
80002564:	ea 0e 09 45 	lsl	r5,r5,lr
80002568:	2f 9e       	sub	lr,-7
8000256a:	0a 48       	or	r8,r5
8000256c:	e8 07 18 00 	cp.b	r7,r4
80002570:	cf 75       	brlt	8000255e <_ZL28read_encoded_value_with_basehjPKhPj+0x7a>
80002572:	cd 5b       	rjmp	8000251c <_ZL28read_encoded_value_with_basehjPKhPj+0x38>
80002574:	30 08       	mov	r8,0
80002576:	10 9e       	mov	lr,r8
80002578:	10 94       	mov	r4,r8
8000257a:	15 37       	ld.ub	r7,r10++
8000257c:	eb d7 c0 07 	bfextu	r5,r7,0x0,0x7
80002580:	ea 0e 09 45 	lsl	r5,r5,lr
80002584:	2f 9e       	sub	lr,-7
80002586:	0a 48       	or	r8,r5
80002588:	0e 95       	mov	r5,r7
8000258a:	e8 07 18 00 	cp.b	r7,r4
8000258e:	cf 65       	brlt	8000257a <_ZL28read_encoded_value_with_basehjPKhPj+0x96>
80002590:	59 fe       	cp.w	lr,31
80002592:	fe 9b ff c5 	brhi	8000251c <_ZL28read_encoded_value_with_basehjPKhPj+0x38>
80002596:	e2 17 00 40 	andl	r7,0x40,COH
8000259a:	cc 10       	breq	8000251c <_ZL28read_encoded_value_with_basehjPKhPj+0x38>
8000259c:	3f f7       	mov	r7,-1
8000259e:	ee 0e 09 4e 	lsl	lr,r7,lr
800025a2:	fd e8 10 08 	or	r8,lr,r8
800025a6:	cb bb       	rjmp	8000251c <_ZL28read_encoded_value_with_basehjPKhPj+0x38>
800025a8:	15 8e       	ld.ub	lr,r10[0x0]
800025aa:	15 98       	ld.ub	r8,r10[0x1]
800025ac:	2f ea       	sub	r10,-2
800025ae:	f1 ee 10 88 	or	r8,r8,lr<<0x8
800025b2:	b1 68       	lsl	r8,0x10
800025b4:	b1 48       	asr	r8,0x10
800025b6:	cb 3b       	rjmp	8000251c <_ZL28read_encoded_value_with_basehjPKhPj+0x38>
800025b8:	15 8e       	ld.ub	lr,r10[0x0]
800025ba:	15 98       	ld.ub	r8,r10[0x1]
800025bc:	2f ea       	sub	r10,-2
800025be:	f1 ee 10 88 	or	r8,r8,lr<<0x8
800025c2:	ca db       	rjmp	8000251c <_ZL28read_encoded_value_with_basehjPKhPj+0x38>
800025c4:	2f da       	sub	r10,-3
800025c6:	e0 1a ff fc 	andl	r10,0xfffc
800025ca:	15 08       	ld.w	r8,r10++
800025cc:	93 08       	st.w	r9[0x0],r8
800025ce:	14 9c       	mov	r12,r10
800025d0:	d8 22       	popm	r4-r7,pc
800025d2:	00 00       	add	r0,r0
800025d4:	80 00       	ld.sh	r0,r0[0x0]
800025d6:	75 70       	ld.w	r0,r10[0x5c]
800025d8:	80 00       	ld.sh	r0,r0[0x0]
800025da:	d2 a0       	acall	0x2a

800025dc <_ZL17parse_lsda_headerP15_Unwind_ContextPKhP16lsda_header_info>:
800025dc:	d4 21       	pushm	r4-r7,lr
800025de:	16 95       	mov	r5,r11
800025e0:	14 97       	mov	r7,r10
800025e2:	18 94       	mov	r4,r12
800025e4:	58 0c       	cp.w	r12,0
800025e6:	c0 30       	breq	800025ec <_ZL17parse_lsda_headerP15_Unwind_ContextPKhP16lsda_header_info+0x10>
800025e8:	f0 1f 00 26 	mcall	80002680 <_ZL17parse_lsda_headerP15_Unwind_ContextPKhP16lsda_header_info+0xa4>
800025ec:	8f 0c       	st.w	r7[0x0],r12
800025ee:	3f f8       	mov	r8,-1
800025f0:	0b 36       	ld.ub	r6,r5++
800025f2:	f0 06 18 00 	cp.b	r6,r8
800025f6:	c3 90       	breq	80002668 <_ZL17parse_lsda_headerP15_Unwind_ContextPKhP16lsda_header_info+0x8c>
800025f8:	08 9b       	mov	r11,r4
800025fa:	0c 9c       	mov	r12,r6
800025fc:	f0 1f 00 22 	mcall	80002684 <_ZL17parse_lsda_headerP15_Unwind_ContextPKhP16lsda_header_info+0xa8>
80002600:	0a 9a       	mov	r10,r5
80002602:	18 9b       	mov	r11,r12
80002604:	ee c9 ff fc 	sub	r9,r7,-4
80002608:	0c 9c       	mov	r12,r6
8000260a:	f0 1f 00 20 	mcall	80002688 <_ZL17parse_lsda_headerP15_Unwind_ContextPKhP16lsda_header_info+0xac>
8000260e:	18 95       	mov	r5,r12
80002610:	0b 38       	ld.ub	r8,r5++
80002612:	ef 68 00 14 	st.b	r7[20],r8
80002616:	3f f9       	mov	r9,-1
80002618:	f2 08 18 00 	cp.b	r8,r9
8000261c:	c2 e0       	breq	80002678 <_ZL17parse_lsda_headerP15_Unwind_ContextPKhP16lsda_header_info+0x9c>
8000261e:	30 0a       	mov	r10,0
80002620:	14 98       	mov	r8,r10
80002622:	14 9c       	mov	r12,r10
80002624:	0b 39       	ld.ub	r9,r5++
80002626:	f7 d9 c0 07 	bfextu	r11,r9,0x0,0x7
8000262a:	f6 08 09 4b 	lsl	r11,r11,r8
8000262e:	2f 98       	sub	r8,-7
80002630:	16 4a       	or	r10,r11
80002632:	f8 09 18 00 	cp.b	r9,r12
80002636:	cf 75       	brlt	80002624 <_ZL17parse_lsda_headerP15_Unwind_ContextPKhP16lsda_header_info+0x48>
80002638:	ea 0a 00 0a 	add	r10,r5,r10
8000263c:	8f 3a       	st.w	r7[0xc],r10
8000263e:	0a 9c       	mov	r12,r5
80002640:	19 38       	ld.ub	r8,r12++
80002642:	30 0a       	mov	r10,0
80002644:	ef 68 00 15 	st.b	r7[21],r8
80002648:	14 96       	mov	r6,r10
8000264a:	14 98       	mov	r8,r10
8000264c:	19 39       	ld.ub	r9,r12++
8000264e:	f7 d9 c0 07 	bfextu	r11,r9,0x0,0x7
80002652:	f6 08 09 4b 	lsl	r11,r11,r8
80002656:	2f 98       	sub	r8,-7
80002658:	16 4a       	or	r10,r11
8000265a:	ec 09 18 00 	cp.b	r9,r6
8000265e:	cf 75       	brlt	8000264c <_ZL17parse_lsda_headerP15_Unwind_ContextPKhP16lsda_header_info+0x70>
80002660:	f8 0a 00 0a 	add	r10,r12,r10
80002664:	8f 4a       	st.w	r7[0x10],r10
80002666:	d8 22       	popm	r4-r7,pc
80002668:	8f 1c       	st.w	r7[0x4],r12
8000266a:	0b 38       	ld.ub	r8,r5++
8000266c:	ef 68 00 14 	st.b	r7[20],r8
80002670:	3f f9       	mov	r9,-1
80002672:	f2 08 18 00 	cp.b	r8,r9
80002676:	cd 41       	brne	8000261e <_ZL17parse_lsda_headerP15_Unwind_ContextPKhP16lsda_header_info+0x42>
80002678:	30 08       	mov	r8,0
8000267a:	8f 38       	st.w	r7[0xc],r8
8000267c:	ce 1b       	rjmp	8000263e <_ZL17parse_lsda_headerP15_Unwind_ContextPKhP16lsda_header_info+0x62>
8000267e:	00 00       	add	r0,r0
80002680:	80 00       	ld.sh	r0,r0[0x0]
80002682:	73 04       	ld.w	r4,r9[0x40]
80002684:	80 00       	ld.sh	r0,r0[0x0]
80002686:	24 80       	sub	r0,72
80002688:	80 00       	ld.sh	r0,r0[0x0]
8000268a:	24 e4       	sub	r4,78

8000268c <_ZL15get_ttype_entryP16lsda_header_infom>:
8000268c:	d4 01       	pushm	lr
8000268e:	20 1d       	sub	sp,4
80002690:	3f f9       	mov	r9,-1
80002692:	18 98       	mov	r8,r12
80002694:	f9 3c 00 14 	ld.ub	r12,r12[20]
80002698:	f2 0c 18 00 	cp.b	r12,r9
8000269c:	c2 40       	breq	800026e4 <_ZL15get_ttype_entryP16lsda_header_infom+0x58>
8000269e:	f3 dc c0 03 	bfextu	r9,r12,0x0,0x3
800026a2:	58 29       	cp.w	r9,2
800026a4:	c1 c0       	breq	800026dc <_ZL15get_ttype_entryP16lsda_header_infom+0x50>
800026a6:	e0 8a 00 08 	brle	800026b6 <_ZL15get_ttype_entryP16lsda_header_infom+0x2a>
800026aa:	58 39       	cp.w	r9,3
800026ac:	c0 70       	breq	800026ba <_ZL15get_ttype_entryP16lsda_header_infom+0x2e>
800026ae:	58 49       	cp.w	r9,4
800026b0:	c1 20       	breq	800026d4 <_ZL15get_ttype_entryP16lsda_header_infom+0x48>
800026b2:	f0 1f 00 0e 	mcall	800026e8 <_ZL15get_ttype_entryP16lsda_header_infom+0x5c>
800026b6:	58 09       	cp.w	r9,0
800026b8:	cf d1       	brne	800026b2 <_ZL15get_ttype_entryP16lsda_header_infom+0x26>
800026ba:	f6 0a 15 02 	lsl	r10,r11,0x2
800026be:	5c 3a       	neg	r10
800026c0:	70 2b       	ld.w	r11,r8[0x8]
800026c2:	70 38       	ld.w	r8,r8[0xc]
800026c4:	1a 99       	mov	r9,sp
800026c6:	f0 0a 00 0a 	add	r10,r8,r10
800026ca:	f0 1f 00 09 	mcall	800026ec <_ZL15get_ttype_entryP16lsda_header_infom+0x60>
800026ce:	40 0c       	lddsp	r12,sp[0x0]
800026d0:	2f fd       	sub	sp,-4
800026d2:	d8 02       	popm	pc
800026d4:	f6 0a 15 03 	lsl	r10,r11,0x3
800026d8:	5c 3a       	neg	r10
800026da:	cf 3b       	rjmp	800026c0 <_ZL15get_ttype_entryP16lsda_header_infom+0x34>
800026dc:	f6 0a 15 01 	lsl	r10,r11,0x1
800026e0:	5c 3a       	neg	r10
800026e2:	ce fb       	rjmp	800026c0 <_ZL15get_ttype_entryP16lsda_header_infom+0x34>
800026e4:	30 0a       	mov	r10,0
800026e6:	ce db       	rjmp	800026c0 <_ZL15get_ttype_entryP16lsda_header_infom+0x34>
800026e8:	80 00       	ld.sh	r0,r0[0x0]
800026ea:	75 70       	ld.w	r0,r10[0x5c]
800026ec:	80 00       	ld.sh	r0,r0[0x0]
800026ee:	24 e4       	sub	r4,78

800026f0 <_ZL20check_exception_specP16lsda_header_infoPKSt9type_infoPvl>:
800026f0:	eb cd 40 f8 	pushm	r3-r7,lr
800026f4:	20 1d       	sub	sp,4
800026f6:	5c d9       	com	r9
800026f8:	16 93       	mov	r3,r11
800026fa:	fa c7 ff fc 	sub	r7,sp,-4
800026fe:	30 0b       	mov	r11,0
80002700:	78 35       	ld.w	r5,r12[0xc]
80002702:	18 96       	mov	r6,r12
80002704:	12 05       	add	r5,r9
80002706:	0e da       	st.w	--r7,r10
80002708:	16 99       	mov	r9,r11
8000270a:	16 94       	mov	r4,r11
8000270c:	0b 38       	ld.ub	r8,r5++
8000270e:	f5 d8 c0 07 	bfextu	r10,r8,0x0,0x7
80002712:	f4 09 09 4a 	lsl	r10,r10,r9
80002716:	14 4b       	or	r11,r10
80002718:	e8 08 18 00 	cp.b	r8,r4
8000271c:	c0 e5       	brlt	80002738 <_ZL20check_exception_specP16lsda_header_infoPKSt9type_infoPvl+0x48>
8000271e:	58 0b       	cp.w	r11,0
80002720:	c0 e0       	breq	8000273c <_ZL20check_exception_specP16lsda_header_infoPKSt9type_infoPvl+0x4c>
80002722:	0c 9c       	mov	r12,r6
80002724:	f0 1f 00 0a 	mcall	8000274c <_ZL20check_exception_specP16lsda_header_infoPKSt9type_infoPvl+0x5c>
80002728:	1a 9a       	mov	r10,sp
8000272a:	06 9b       	mov	r11,r3
8000272c:	f0 1f 00 09 	mcall	80002750 <_ZL20check_exception_specP16lsda_header_infoPKSt9type_infoPvl+0x60>
80002730:	c0 a1       	brne	80002744 <_ZL20check_exception_specP16lsda_header_infoPKSt9type_infoPvl+0x54>
80002732:	18 9b       	mov	r11,r12
80002734:	18 99       	mov	r9,r12
80002736:	ce bb       	rjmp	8000270c <_ZL20check_exception_specP16lsda_header_infoPKSt9type_infoPvl+0x1c>
80002738:	2f 99       	sub	r9,-7
8000273a:	ce 9b       	rjmp	8000270c <_ZL20check_exception_specP16lsda_header_infoPKSt9type_infoPvl+0x1c>
8000273c:	16 9c       	mov	r12,r11
8000273e:	2f fd       	sub	sp,-4
80002740:	e3 cd 80 f8 	ldm	sp++,r3-r7,pc
80002744:	2f fd       	sub	sp,-4
80002746:	e3 cf 90 f8 	ldm	sp++,r3-r7,pc,r12=1
8000274a:	00 00       	add	r0,r0
8000274c:	80 00       	ld.sh	r0,r0[0x0]
8000274e:	26 8c       	sub	r12,104
80002750:	80 00       	ld.sh	r0,r0[0x0]
80002752:	24 40       	sub	r0,68

80002754 <__cxa_call_unexpected>:
80002754:	eb cd 40 c1 	pushm	r0,r6-r7,lr
80002758:	21 9d       	sub	sp,100
8000275a:	4b d9       	lddpc	r9,8000284c <__cxa_call_unexpected+0xf8>
8000275c:	fa c8 ff c8 	sub	r8,sp,-56
80002760:	fa cb ff 9c 	sub	r11,sp,-100
80002764:	91 2d       	st.w	r8[0x8],sp
80002766:	91 0b       	st.w	r8[0x0],r11
80002768:	50 c9       	stdsp	sp[0x30],r9
8000276a:	4b a9       	lddpc	r9,80002850 <__cxa_call_unexpected+0xfc>
8000276c:	50 d9       	stdsp	sp[0x34],r9
8000276e:	4b a9       	lddpc	r9,80002854 <__cxa_call_unexpected+0x100>
80002770:	50 0c       	stdsp	sp[0x0],r12
80002772:	91 19       	st.w	r8[0x4],r9
80002774:	fa cc ff e8 	sub	r12,sp,-24
80002778:	f0 1f 00 38 	mcall	80002858 <__cxa_call_unexpected+0x104>
8000277c:	40 0c       	lddsp	r12,sp[0x0]
8000277e:	f0 1f 00 38 	mcall	8000285c <__cxa_call_unexpected+0x108>
80002782:	40 08       	lddsp	r8,sp[0x0]
80002784:	22 c8       	sub	r8,44
80002786:	70 99       	ld.w	r9,r8[0x24]
80002788:	70 6a       	ld.w	r10,r8[0x18]
8000278a:	70 2c       	ld.w	r12,r8[0x8]
8000278c:	51 59       	stdsp	sp[0x54],r9
8000278e:	70 89       	ld.w	r9,r8[0x20]
80002790:	70 38       	ld.w	r8,r8[0xc]
80002792:	50 28       	stdsp	sp[0x8],r8
80002794:	30 28       	mov	r8,2
80002796:	50 1a       	stdsp	sp[0x4],r10
80002798:	50 39       	stdsp	sp[0xc],r9
8000279a:	50 78       	stdsp	sp[0x1c],r8
8000279c:	f0 1f 00 31 	mcall	80002860 <__cxa_call_unexpected+0x10c>
800027a0:	40 88       	lddsp	r8,sp[0x20]
800027a2:	50 58       	stdsp	sp[0x14],r8
800027a4:	40 78       	lddsp	r8,sp[0x1c]
800027a6:	58 18       	cp.w	r8,1
800027a8:	c0 e0       	breq	800027c4 <__cxa_call_unexpected+0x70>
800027aa:	30 0b       	mov	r11,0
800027ac:	50 7b       	stdsp	sp[0x1c],r11
800027ae:	f0 1f 00 2e 	mcall	80002864 <__cxa_call_unexpected+0x110>
800027b2:	30 0a       	mov	r10,0
800027b4:	50 7a       	stdsp	sp[0x1c],r10
800027b6:	f0 1f 00 2c 	mcall	80002864 <__cxa_call_unexpected+0x110>
800027ba:	3f f8       	mov	r8,-1
800027bc:	40 5c       	lddsp	r12,sp[0x14]
800027be:	50 78       	stdsp	sp[0x1c],r8
800027c0:	f0 1f 00 2a 	mcall	80002868 <__cxa_call_unexpected+0x114>
800027c4:	40 5c       	lddsp	r12,sp[0x14]
800027c6:	f0 1f 00 26 	mcall	8000285c <__cxa_call_unexpected+0x108>
800027ca:	f0 1f 00 29 	mcall	8000286c <__cxa_call_unexpected+0x118>
800027ce:	30 16       	mov	r6,1
800027d0:	78 08       	ld.w	r8,r12[0x0]
800027d2:	30 07       	mov	r7,0
800027d4:	f0 ea 00 2c 	ld.d	r10,r8[44]
800027d8:	f0 c9 ff d4 	sub	r9,r8,-44
800027dc:	0c 6a       	and	r10,r6
800027de:	0e 6b       	and	r11,r7
800027e0:	58 0a       	cp.w	r10,0
800027e2:	5c 2b       	cpc	r11
800027e4:	c1 80       	breq	80002814 <__cxa_call_unexpected+0xc0>
800027e6:	f2 f9 ff d8 	ld.w	r9,r9[-40]
800027ea:	50 49       	stdsp	sp[0x10],r9
800027ec:	30 18       	mov	r8,1
800027ee:	fa ca ff b4 	sub	r10,sp,-76
800027f2:	50 78       	stdsp	sp[0x1c],r8
800027f4:	40 3b       	lddsp	r11,sp[0xc]
800027f6:	30 0c       	mov	r12,0
800027f8:	f0 1f 00 1e 	mcall	80002870 <__cxa_call_unexpected+0x11c>
800027fc:	40 4a       	lddsp	r10,sp[0x10]
800027fe:	40 19       	lddsp	r9,sp[0x4]
80002800:	fa cc ff b4 	sub	r12,sp,-76
80002804:	f4 fb ff c0 	ld.w	r11,r10[-64]
80002808:	f0 1f 00 1b 	mcall	80002874 <__cxa_call_unexpected+0x120>
8000280c:	18 9a       	mov	r10,r12
8000280e:	c0 60       	breq	8000281a <__cxa_call_unexpected+0xc6>
80002810:	f0 1f 00 1a 	mcall	80002878 <__cxa_call_unexpected+0x124>
80002814:	2c 08       	sub	r8,-64
80002816:	50 48       	stdsp	sp[0x10],r8
80002818:	ce ab       	rjmp	800027ec <__cxa_call_unexpected+0x98>
8000281a:	30 18       	mov	r8,1
8000281c:	40 19       	lddsp	r9,sp[0x4]
8000281e:	50 78       	stdsp	sp[0x1c],r8
80002820:	49 7b       	lddpc	r11,8000287c <__cxa_call_unexpected+0x128>
80002822:	fa cc ff b4 	sub	r12,sp,-76
80002826:	f0 1f 00 14 	mcall	80002874 <__cxa_call_unexpected+0x120>
8000282a:	c0 b0       	breq	80002840 <__cxa_call_unexpected+0xec>
8000282c:	30 4c       	mov	r12,4
8000282e:	f0 1f 00 15 	mcall	80002880 <__cxa_call_unexpected+0x12c>
80002832:	49 58       	lddpc	r8,80002884 <__cxa_call_unexpected+0x130>
80002834:	2f 88       	sub	r8,-8
80002836:	49 5a       	lddpc	r10,80002888 <__cxa_call_unexpected+0x134>
80002838:	99 08       	st.w	r12[0x0],r8
8000283a:	49 1b       	lddpc	r11,8000287c <__cxa_call_unexpected+0x128>
8000283c:	f0 1f 00 14 	mcall	8000288c <__cxa_call_unexpected+0x138>
80002840:	30 18       	mov	r8,1
80002842:	40 2c       	lddsp	r12,sp[0x8]
80002844:	50 78       	stdsp	sp[0x1c],r8
80002846:	f0 1f 00 13 	mcall	80002890 <__cxa_call_unexpected+0x13c>
8000284a:	00 00       	add	r0,r0
8000284c:	80 00       	ld.sh	r0,r0[0x0]
8000284e:	28 94       	sub	r4,-119
80002850:	00 00       	add	r0,r0
80002852:	00 34       	cp.w	r4,r0
80002854:	80 00       	ld.sh	r0,r0[0x0]
80002856:	27 a0       	sub	r0,122
80002858:	80 00       	ld.sh	r0,r0[0x0]
8000285a:	72 a4       	ld.w	r4,r9[0x28]
8000285c:	80 00       	ld.sh	r0,r0[0x0]
8000285e:	2e 94       	sub	r4,-23
80002860:	80 00       	ld.sh	r0,r0[0x0]
80002862:	2d a4       	sub	r4,-38
80002864:	80 00       	ld.sh	r0,r0[0x0]
80002866:	2e 10       	sub	r0,-31
80002868:	80 00       	ld.sh	r0,r0[0x0]
8000286a:	74 6c       	ld.w	r12,r10[0x18]
8000286c:	80 00       	ld.sh	r0,r0[0x0]
8000286e:	2d 00       	sub	r0,-48
80002870:	80 00       	ld.sh	r0,r0[0x0]
80002872:	25 dc       	sub	r12,93
80002874:	80 00       	ld.sh	r0,r0[0x0]
80002876:	26 f0       	sub	r0,111
80002878:	80 00       	ld.sh	r0,r0[0x0]
8000287a:	23 2c       	sub	r12,50
8000287c:	80 00       	ld.sh	r0,r0[0x0]
8000287e:	d3 64       	*unknown*
80002880:	80 00       	ld.sh	r0,r0[0x0]
80002882:	21 38       	sub	r8,19
80002884:	80 00       	ld.sh	r0,r0[0x0]
80002886:	d2 d4       	*unknown*
80002888:	80 00       	ld.sh	r0,r0[0x0]
8000288a:	2c b4       	sub	r4,-53
8000288c:	80 00       	ld.sh	r0,r0[0x0]
8000288e:	23 94       	sub	r4,57
80002890:	80 00       	ld.sh	r0,r0[0x0]
80002892:	2d 10       	sub	r0,-47

80002894 <__gxx_personality_sj0>:
80002894:	eb cd 40 f1 	pushm	r0,r4-r7,lr
80002898:	fa cd 00 a8 	sub	sp,sp,168
8000289c:	50 3c       	stdsp	sp[0xc],r12
8000289e:	50 7b       	stdsp	sp[0x1c],r11
800028a0:	50 8a       	stdsp	sp[0x20],r10
800028a2:	fa cc ff 58 	sub	r12,sp,-168
800028a6:	fa ca ff 8c 	sub	r10,sp,-116
800028aa:	fe fb 03 9a 	ld.w	r11,pc[922]
800028ae:	95 0c       	st.w	r10[0x0],r12
800028b0:	95 2d       	st.w	r10[0x8],sp
800028b2:	51 bb       	stdsp	sp[0x6c],r11
800028b4:	fe fb 03 94 	ld.w	r11,pc[916]
800028b8:	43 0e       	lddsp	lr,sp[0xc0]
800028ba:	51 cb       	stdsp	sp[0x70],r11
800028bc:	fe fb 03 90 	ld.w	r11,pc[912]
800028c0:	50 2e       	stdsp	sp[0x8],lr
800028c2:	95 1b       	st.w	r10[0x4],r11
800028c4:	fa e9 00 24 	st.d	sp[36],r8
800028c8:	fa cc ff ac 	sub	r12,sp,-84
800028cc:	f0 1f 00 e1 	mcall	80002c50 <__gxx_personality_sj0+0x3bc>
800028d0:	40 3b       	lddsp	r11,sp[0xc]
800028d2:	58 1b       	cp.w	r11,1
800028d4:	c0 b0       	breq	800028ea <__gxx_personality_sj0+0x56>
800028d6:	30 3a       	mov	r10,3
800028d8:	50 4a       	stdsp	sp[0x10],r10
800028da:	fa cc ff ac 	sub	r12,sp,-84
800028de:	f0 1f 00 de 	mcall	80002c54 <__gxx_personality_sj0+0x3c0>
800028e2:	40 4c       	lddsp	r12,sp[0x10]
800028e4:	2d 6d       	sub	sp,-168
800028e6:	e3 cd 80 f1 	ldm	sp++,r0,r4-r7,pc
800028ea:	30 08       	mov	r8,0
800028ec:	fa ea 00 24 	ld.d	r10,sp[36]
800028f0:	52 88       	stdsp	sp[0xa0],r8
800028f2:	52 98       	stdsp	sp[0xa4],r8
800028f4:	e0 69 aa bc 	mov	r9,43708
800028f8:	ea 19 b8 b1 	orh	r9,0xb8b1
800028fc:	e0 68 d5 00 	mov	r8,54528
80002900:	ea 18 bc d4 	orh	r8,0xbcd4
80002904:	f4 08 00 08 	add	r8,r10,r8
80002908:	f6 09 00 49 	adc	r9,r11,r9
8000290c:	58 18       	cp.w	r8,1
8000290e:	5c 29       	cpc	r9
80002910:	5f ba       	srhi	r10
80002912:	40 89       	lddsp	r9,sp[0x20]
80002914:	50 da       	stdsp	sp[0x34],r10
80002916:	22 c9       	sub	r9,44
80002918:	50 c9       	stdsp	sp[0x30],r9
8000291a:	40 78       	lddsp	r8,sp[0x1c]
8000291c:	58 68       	cp.w	r8,6
8000291e:	c4 a0       	breq	800029b2 <__gxx_personality_sj0+0x11e>
80002920:	3f f8       	mov	r8,-1
80002922:	40 2c       	lddsp	r12,sp[0x8]
80002924:	51 68       	stdsp	sp[0x58],r8
80002926:	f0 1f 00 cd 	mcall	80002c58 <__gxx_personality_sj0+0x3c4>
8000292a:	50 bc       	stdsp	sp[0x2c],r12
8000292c:	c6 60       	breq	800029f8 <__gxx_personality_sj0+0x164>
8000292e:	fa ca ff 78 	sub	r10,sp,-136
80002932:	18 9b       	mov	r11,r12
80002934:	40 2c       	lddsp	r12,sp[0x8]
80002936:	f0 1f 00 ca 	mcall	80002c5c <__gxx_personality_sj0+0x3c8>
8000293a:	40 2b       	lddsp	r11,sp[0x8]
8000293c:	51 1c       	stdsp	sp[0x44],r12
8000293e:	fb 3c 00 9c 	ld.ub	r12,sp[156]
80002942:	f0 1f 00 c8 	mcall	80002c60 <__gxx_personality_sj0+0x3cc>
80002946:	fa cb ff 60 	sub	r11,sp,-160
8000294a:	52 4c       	stdsp	sp[0x90],r12
8000294c:	40 2c       	lddsp	r12,sp[0x8]
8000294e:	f0 1f 00 c6 	mcall	80002c64 <__gxx_personality_sj0+0x3d0>
80002952:	42 88       	lddsp	r8,sp[0xa0]
80002954:	f8 c9 00 01 	sub	r9,r12,1
80002958:	58 08       	cp.w	r8,0
8000295a:	f2 0c 17 00 	moveq	r12,r9
8000295e:	58 0c       	cp.w	r12,0
80002960:	c4 c5       	brlt	800029f8 <__gxx_personality_sj0+0x164>
80002962:	c4 e1       	brne	800029fe <__gxx_personality_sj0+0x16a>
80002964:	50 1c       	stdsp	sp[0x4],r12
80002966:	30 18       	mov	r8,1
80002968:	50 fc       	stdsp	sp[0x3c],r12
8000296a:	50 5c       	stdsp	sp[0x14],r12
8000296c:	40 7e       	lddsp	lr,sp[0x1c]
8000296e:	ed be 00 00 	bld	lr,0x0
80002972:	c3 00       	breq	800029d2 <__gxx_personality_sj0+0x13e>
80002974:	40 79       	lddsp	r9,sp[0x1c]
80002976:	ed b9 00 03 	bld	r9,0x3
8000297a:	e0 81 00 f9 	brne	80002b6c <__gxx_personality_sj0+0x2d8>
8000297e:	58 18       	cp.w	r8,1
80002980:	e0 80 01 44 	breq	80002c08 <__gxx_personality_sj0+0x374>
80002984:	40 19       	lddsp	r9,sp[0x4]
80002986:	58 09       	cp.w	r9,0
80002988:	e0 85 01 44 	brlt	80002c10 <__gxx_personality_sj0+0x37c>
8000298c:	3f f8       	mov	r8,-1
8000298e:	40 8a       	lddsp	r10,sp[0x20]
80002990:	51 68       	stdsp	sp[0x58],r8
80002992:	30 0b       	mov	r11,0
80002994:	40 2c       	lddsp	r12,sp[0x8]
80002996:	f0 1f 00 b5 	mcall	80002c68 <__gxx_personality_sj0+0x3d4>
8000299a:	40 1a       	lddsp	r10,sp[0x4]
8000299c:	30 1b       	mov	r11,1
8000299e:	40 2c       	lddsp	r12,sp[0x8]
800029a0:	f0 1f 00 b2 	mcall	80002c68 <__gxx_personality_sj0+0x3d4>
800029a4:	40 fb       	lddsp	r11,sp[0x3c]
800029a6:	40 2c       	lddsp	r12,sp[0x8]
800029a8:	f0 1f 00 b1 	mcall	80002c6c <__gxx_personality_sj0+0x3d8>
800029ac:	30 79       	mov	r9,7
800029ae:	50 49       	stdsp	sp[0x10],r9
800029b0:	c9 5b       	rjmp	800028da <__gxx_personality_sj0+0x46>
800029b2:	58 0a       	cp.w	r10,0
800029b4:	cb 61       	brne	80002920 <__gxx_personality_sj0+0x8c>
800029b6:	72 6e       	ld.w	lr,r9[0x18]
800029b8:	72 8c       	ld.w	r12,r9[0x20]
800029ba:	72 9b       	ld.w	r11,r9[0x24]
800029bc:	50 1e       	stdsp	sp[0x4],lr
800029be:	50 bc       	stdsp	sp[0x2c],r12
800029c0:	50 fb       	stdsp	sp[0x3c],r11
800029c2:	58 0b       	cp.w	r11,0
800029c4:	e0 81 00 98 	brne	80002af4 <__gxx_personality_sj0+0x260>
800029c8:	3f f8       	mov	r8,-1
800029ca:	40 8c       	lddsp	r12,sp[0x20]
800029cc:	51 68       	stdsp	sp[0x58],r8
800029ce:	f0 1f 00 a9 	mcall	80002c70 <__gxx_personality_sj0+0x3dc>
800029d2:	58 28       	cp.w	r8,2
800029d4:	c1 20       	breq	800029f8 <__gxx_personality_sj0+0x164>
800029d6:	40 dc       	lddsp	r12,sp[0x34]
800029d8:	58 0c       	cp.w	r12,0
800029da:	c0 c1       	brne	800029f2 <__gxx_personality_sj0+0x15e>
800029dc:	40 18       	lddsp	r8,sp[0x4]
800029de:	40 ca       	lddsp	r10,sp[0x30]
800029e0:	40 f9       	lddsp	r9,sp[0x3c]
800029e2:	95 68       	st.w	r10[0x18],r8
800029e4:	40 5e       	lddsp	lr,sp[0x14]
800029e6:	40 bc       	lddsp	r12,sp[0x2c]
800029e8:	42 98       	lddsp	r8,sp[0xa4]
800029ea:	95 99       	st.w	r10[0x24],r9
800029ec:	95 7e       	st.w	r10[0x1c],lr
800029ee:	95 8c       	st.w	r10[0x20],r12
800029f0:	95 a8       	st.w	r10[0x28],r8
800029f2:	30 6b       	mov	r11,6
800029f4:	50 4b       	stdsp	sp[0x10],r11
800029f6:	c7 2b       	rjmp	800028da <__gxx_personality_sj0+0x46>
800029f8:	30 88       	mov	r8,8
800029fa:	50 48       	stdsp	sp[0x10],r8
800029fc:	c6 fb       	rjmp	800028da <__gxx_personality_sj0+0x46>
800029fe:	30 06       	mov	r6,0
80002a00:	41 18       	lddsp	r8,sp[0x44]
80002a02:	0c 95       	mov	r5,r6
80002a04:	0c 9e       	mov	lr,r6
80002a06:	0c 9b       	mov	r11,r6
80002a08:	0a 99       	mov	r9,r5
80002a0a:	11 3a       	ld.ub	r10,r8++
80002a0c:	ef da c0 07 	bfextu	r7,r10,0x0,0x7
80002a10:	ee 09 09 47 	lsl	r7,r7,r9
80002a14:	2f 99       	sub	r9,-7
80002a16:	0e 4b       	or	r11,r7
80002a18:	fc 0a 18 00 	cp.b	r10,lr
80002a1c:	cf 75       	brlt	80002a0a <__gxx_personality_sj0+0x176>
80002a1e:	0c 9a       	mov	r10,r6
80002a20:	0a 99       	mov	r9,r5
80002a22:	11 37       	ld.ub	r7,r8++
80002a24:	e9 d7 c0 07 	bfextu	r4,r7,0x0,0x7
80002a28:	e8 09 09 44 	lsl	r4,r4,r9
80002a2c:	2f 99       	sub	r9,-7
80002a2e:	08 4a       	or	r10,r4
80002a30:	fc 07 18 00 	cp.b	r7,lr
80002a34:	cf 75       	brlt	80002a22 <__gxx_personality_sj0+0x18e>
80002a36:	20 1c       	sub	r12,1
80002a38:	ce 71       	brne	80002a06 <__gxx_personality_sj0+0x172>
80002a3a:	2f fb       	sub	r11,-1
80002a3c:	50 fb       	stdsp	sp[0x3c],r11
80002a3e:	58 0a       	cp.w	r10,0
80002a40:	c5 c1       	brne	80002af8 <__gxx_personality_sj0+0x264>
80002a42:	50 5a       	stdsp	sp[0x14],r10
80002a44:	40 fa       	lddsp	r10,sp[0x3c]
80002a46:	58 0a       	cp.w	r10,0
80002a48:	cd 80       	breq	800029f8 <__gxx_personality_sj0+0x164>
80002a4a:	40 59       	lddsp	r9,sp[0x14]
80002a4c:	58 09       	cp.w	r9,0
80002a4e:	e0 80 00 bc 	breq	80002bc6 <__gxx_personality_sj0+0x332>
80002a52:	40 78       	lddsp	r8,sp[0x1c]
80002a54:	e2 18 00 08 	andl	r8,0x8,COH
80002a58:	51 28       	stdsp	sp[0x48],r8
80002a5a:	e0 80 00 ba 	breq	80002bce <__gxx_personality_sj0+0x33a>
80002a5e:	fe fe 02 16 	ld.w	lr,pc[534]
80002a62:	51 0e       	stdsp	sp[0x40],lr
80002a64:	30 08       	mov	r8,0
80002a66:	50 e8       	stdsp	sp[0x38],r8
80002a68:	30 0b       	mov	r11,0
80002a6a:	40 58       	lddsp	r8,sp[0x14]
80002a6c:	16 99       	mov	r9,r11
80002a6e:	11 3a       	ld.ub	r10,r8++
80002a70:	30 0e       	mov	lr,0
80002a72:	f9 da c0 07 	bfextu	r12,r10,0x0,0x7
80002a76:	f8 09 09 4c 	lsl	r12,r12,r9
80002a7a:	2f 99       	sub	r9,-7
80002a7c:	18 4b       	or	r11,r12
80002a7e:	fc 0a 18 00 	cp.b	r10,lr
80002a82:	cf 65       	brlt	80002a6e <__gxx_personality_sj0+0x1da>
80002a84:	50 68       	stdsp	sp[0x18],r8
80002a86:	59 f9       	cp.w	r9,31
80002a88:	e0 8b 00 0b 	brhi	80002a9e <__gxx_personality_sj0+0x20a>
80002a8c:	ed ba 00 06 	bld	r10,0x6
80002a90:	c0 71       	brne	80002a9e <__gxx_personality_sj0+0x20a>
80002a92:	30 1c       	mov	r12,1
80002a94:	f8 09 09 49 	lsl	r9,r12,r9
80002a98:	5c 39       	neg	r9
80002a9a:	f3 eb 10 0b 	or	r11,r9,r11
80002a9e:	30 0a       	mov	r10,0
80002aa0:	50 1b       	stdsp	sp[0x4],r11
80002aa2:	50 0a       	stdsp	sp[0x0],r10
80002aa4:	14 99       	mov	r9,r10
80002aa6:	14 9c       	mov	r12,r10
80002aa8:	11 3a       	ld.ub	r10,r8++
80002aaa:	fd da c0 07 	bfextu	lr,r10,0x0,0x7
80002aae:	fc 09 09 4e 	lsl	lr,lr,r9
80002ab2:	2f 99       	sub	r9,-7
80002ab4:	1c 4c       	or	r12,lr
80002ab6:	30 0e       	mov	lr,0
80002ab8:	fc 0a 18 00 	cp.b	r10,lr
80002abc:	cf 65       	brlt	80002aa8 <__gxx_personality_sj0+0x214>
80002abe:	50 0c       	stdsp	sp[0x0],r12
80002ac0:	59 f9       	cp.w	r9,31
80002ac2:	e0 8b 00 0d 	brhi	80002adc <__gxx_personality_sj0+0x248>
80002ac6:	ed ba 00 06 	bld	r10,0x6
80002aca:	c0 91       	brne	80002adc <__gxx_personality_sj0+0x248>
80002acc:	40 0a       	lddsp	r10,sp[0x0]
80002ace:	30 1c       	mov	r12,1
80002ad0:	f8 09 09 49 	lsl	r9,r12,r9
80002ad4:	5c 39       	neg	r9
80002ad6:	f3 ea 10 0a 	or	r10,r9,r10
80002ada:	50 0a       	stdsp	sp[0x0],r10
80002adc:	40 19       	lddsp	r9,sp[0x4]
80002ade:	58 09       	cp.w	r9,0
80002ae0:	c1 11       	brne	80002b02 <__gxx_personality_sj0+0x26e>
80002ae2:	30 18       	mov	r8,1
80002ae4:	50 e8       	stdsp	sp[0x38],r8
80002ae6:	40 0b       	lddsp	r11,sp[0x0]
80002ae8:	58 0b       	cp.w	r11,0
80002aea:	c6 a0       	breq	80002bbe <__gxx_personality_sj0+0x32a>
80002aec:	40 6a       	lddsp	r10,sp[0x18]
80002aee:	16 0a       	add	r10,r11
80002af0:	50 5a       	stdsp	sp[0x14],r10
80002af2:	cb bb       	rjmp	80002a68 <__gxx_personality_sj0+0x1d4>
80002af4:	30 38       	mov	r8,3
80002af6:	c3 fb       	rjmp	80002974 <__gxx_personality_sj0+0xe0>
80002af8:	20 1a       	sub	r10,1
80002afa:	42 68       	lddsp	r8,sp[0x98]
80002afc:	14 08       	add	r8,r10
80002afe:	50 58       	stdsp	sp[0x14],r8
80002b00:	ca 2b       	rjmp	80002a44 <__gxx_personality_sj0+0x1b0>
80002b02:	40 1e       	lddsp	lr,sp[0x4]
80002b04:	58 0e       	cp.w	lr,0
80002b06:	e0 8a 00 13 	brle	80002b2c <__gxx_personality_sj0+0x298>
80002b0a:	3f fc       	mov	r12,-1
80002b0c:	51 6c       	stdsp	sp[0x58],r12
80002b0e:	fa cc ff 78 	sub	r12,sp,-136
80002b12:	f0 1f 00 5a 	mcall	80002c78 <__gxx_personality_sj0+0x3e4>
80002b16:	c0 90       	breq	80002b28 <__gxx_personality_sj0+0x294>
80002b18:	41 0b       	lddsp	r11,sp[0x40]
80002b1a:	58 0b       	cp.w	r11,0
80002b1c:	ce 50       	breq	80002ae6 <__gxx_personality_sj0+0x252>
80002b1e:	fa ca ff 5c 	sub	r10,sp,-164
80002b22:	f0 1f 00 57 	mcall	80002c7c <__gxx_personality_sj0+0x3e8>
80002b26:	ce 00       	breq	80002ae6 <__gxx_personality_sj0+0x252>
80002b28:	30 38       	mov	r8,3
80002b2a:	c2 1b       	rjmp	8000296c <__gxx_personality_sj0+0xd8>
80002b2c:	41 0a       	lddsp	r10,sp[0x40]
80002b2e:	58 0a       	cp.w	r10,0
80002b30:	c0 70       	breq	80002b3e <__gxx_personality_sj0+0x2aa>
80002b32:	41 29       	lddsp	r9,sp[0x48]
80002b34:	58 09       	cp.w	r9,0
80002b36:	c0 41       	brne	80002b3e <__gxx_personality_sj0+0x2aa>
80002b38:	40 d8       	lddsp	r8,sp[0x34]
80002b3a:	58 08       	cp.w	r8,0
80002b3c:	c3 30       	breq	80002ba2 <__gxx_personality_sj0+0x30e>
80002b3e:	42 58       	lddsp	r8,sp[0x94]
80002b40:	5c db       	com	r11
80002b42:	30 0a       	mov	r10,0
80002b44:	f0 0b 00 0b 	add	r11,r8,r11
80002b48:	14 98       	mov	r8,r10
80002b4a:	17 39       	ld.ub	r9,r11++
80002b4c:	f9 d9 c0 07 	bfextu	r12,r9,0x0,0x7
80002b50:	f8 08 09 4c 	lsl	r12,r12,r8
80002b54:	2f 98       	sub	r8,-7
80002b56:	18 4a       	or	r10,r12
80002b58:	30 0c       	mov	r12,0
80002b5a:	f8 09 18 00 	cp.b	r9,r12
80002b5e:	cf 65       	brlt	80002b4a <__gxx_personality_sj0+0x2b6>
80002b60:	58 0a       	cp.w	r10,0
80002b62:	5f 08       	sreq	r8
80002b64:	58 08       	cp.w	r8,0
80002b66:	cc 00       	breq	80002ae6 <__gxx_personality_sj0+0x252>
80002b68:	30 38       	mov	r8,3
80002b6a:	c0 1b       	rjmp	8000296c <__gxx_personality_sj0+0xd8>
80002b6c:	40 da       	lddsp	r10,sp[0x34]
80002b6e:	58 0a       	cp.w	r10,0
80002b70:	fe 91 ff 07 	brne	8000297e <__gxx_personality_sj0+0xea>
80002b74:	58 18       	cp.w	r8,1
80002b76:	fe 90 ff 29 	breq	800029c8 <__gxx_personality_sj0+0x134>
80002b7a:	40 1b       	lddsp	r11,sp[0x4]
80002b7c:	58 0b       	cp.w	r11,0
80002b7e:	fe 94 ff 07 	brge	8000298c <__gxx_personality_sj0+0xf8>
80002b82:	3f f8       	mov	r8,-1
80002b84:	fa ca ff 78 	sub	r10,sp,-136
80002b88:	40 bb       	lddsp	r11,sp[0x2c]
80002b8a:	51 68       	stdsp	sp[0x58],r8
80002b8c:	40 2c       	lddsp	r12,sp[0x8]
80002b8e:	f0 1f 00 34 	mcall	80002c5c <__gxx_personality_sj0+0x3c8>
80002b92:	40 2b       	lddsp	r11,sp[0x8]
80002b94:	fb 3c 00 9c 	ld.ub	r12,sp[156]
80002b98:	f0 1f 00 32 	mcall	80002c60 <__gxx_personality_sj0+0x3cc>
80002b9c:	40 ca       	lddsp	r10,sp[0x30]
80002b9e:	95 9c       	st.w	r10[0x24],r12
80002ba0:	cf 6a       	rjmp	8000298c <__gxx_personality_sj0+0xf8>
80002ba2:	3f fe       	mov	lr,-1
80002ba4:	42 9a       	lddsp	r10,sp[0xa4]
80002ba6:	51 6e       	stdsp	sp[0x58],lr
80002ba8:	40 19       	lddsp	r9,sp[0x4]
80002baa:	41 0b       	lddsp	r11,sp[0x40]
80002bac:	fa cc ff 78 	sub	r12,sp,-136
80002bb0:	f0 1f 00 34 	mcall	80002c80 <__gxx_personality_sj0+0x3ec>
80002bb4:	18 98       	mov	r8,r12
80002bb6:	ec 18 00 01 	eorl	r8,0x1
80002bba:	5c 58       	castu.b	r8
80002bbc:	cd 4b       	rjmp	80002b64 <__gxx_personality_sj0+0x2d0>
80002bbe:	40 ee       	lddsp	lr,sp[0x38]
80002bc0:	58 0e       	cp.w	lr,0
80002bc2:	fe 90 ff 1b 	breq	800029f8 <__gxx_personality_sj0+0x164>
80002bc6:	30 09       	mov	r9,0
80002bc8:	30 28       	mov	r8,2
80002bca:	50 19       	stdsp	sp[0x4],r9
80002bcc:	cd 0a       	rjmp	8000296c <__gxx_personality_sj0+0xd8>
80002bce:	40 dc       	lddsp	r12,sp[0x34]
80002bd0:	58 0c       	cp.w	r12,0
80002bd2:	c0 40       	breq	80002bda <__gxx_personality_sj0+0x346>
80002bd4:	4a cb       	lddpc	r11,80002c84 <__gxx_personality_sj0+0x3f0>
80002bd6:	51 0b       	stdsp	sp[0x40],r11
80002bd8:	c4 6b       	rjmp	80002a64 <__gxx_personality_sj0+0x1d0>
80002bda:	40 8a       	lddsp	r10,sp[0x20]
80002bdc:	30 0b       	mov	r11,0
80002bde:	f4 e6 00 00 	ld.d	r6,r10[0]
80002be2:	30 1a       	mov	r10,1
80002be4:	ef eb 00 09 	and	r9,r7,r11
80002be8:	ed ea 00 08 	and	r8,r6,r10
80002bec:	58 08       	cp.w	r8,0
80002bee:	5c 29       	cpc	r9
80002bf0:	c0 90       	breq	80002c02 <__gxx_personality_sj0+0x36e>
80002bf2:	40 89       	lddsp	r9,sp[0x20]
80002bf4:	f2 f8 ff d8 	ld.w	r8,r9[-40]
80002bf8:	52 98       	stdsp	sp[0xa4],r8
80002bfa:	f0 f8 ff c0 	ld.w	r8,r8[-64]
80002bfe:	51 08       	stdsp	sp[0x40],r8
80002c00:	c3 2b       	rjmp	80002a64 <__gxx_personality_sj0+0x1d0>
80002c02:	40 88       	lddsp	r8,sp[0x20]
80002c04:	2e c8       	sub	r8,-20
80002c06:	cf 9b       	rjmp	80002bf8 <__gxx_personality_sj0+0x364>
80002c08:	3f f8       	mov	r8,-1
80002c0a:	51 68       	stdsp	sp[0x58],r8
80002c0c:	f0 1f 00 1f 	mcall	80002c88 <__gxx_personality_sj0+0x3f4>
80002c10:	30 28       	mov	r8,2
80002c12:	51 68       	stdsp	sp[0x58],r8
80002c14:	f0 1f 00 1e 	mcall	80002c8c <__gxx_personality_sj0+0x3f8>
80002c18:	41 6e       	lddsp	lr,sp[0x58]
80002c1a:	41 7c       	lddsp	r12,sp[0x5c]
80002c1c:	51 4e       	stdsp	sp[0x50],lr
80002c1e:	51 3c       	stdsp	sp[0x4c],r12
80002c20:	58 1e       	cp.w	lr,1
80002c22:	c0 a0       	breq	80002c36 <__gxx_personality_sj0+0x3a2>
80002c24:	30 08       	mov	r8,0
80002c26:	51 68       	stdsp	sp[0x58],r8
80002c28:	f0 1f 00 1a 	mcall	80002c90 <__gxx_personality_sj0+0x3fc>
80002c2c:	3f f8       	mov	r8,-1
80002c2e:	41 3c       	lddsp	r12,sp[0x4c]
80002c30:	51 68       	stdsp	sp[0x58],r8
80002c32:	f0 1f 00 19 	mcall	80002c94 <__gxx_personality_sj0+0x400>
80002c36:	41 3c       	lddsp	r12,sp[0x4c]
80002c38:	f0 1f 00 18 	mcall	80002c98 <__gxx_personality_sj0+0x404>
80002c3c:	41 48       	lddsp	r8,sp[0x50]
80002c3e:	51 68       	stdsp	sp[0x58],r8
80002c40:	f0 1f 00 12 	mcall	80002c88 <__gxx_personality_sj0+0x3f4>
80002c44:	80 00       	ld.sh	r0,r0[0x0]
80002c46:	28 94       	sub	r4,-119
80002c48:	00 00       	add	r0,r0
80002c4a:	00 44       	or	r4,r0
80002c4c:	80 00       	ld.sh	r0,r0[0x0]
80002c4e:	2c 18       	sub	r8,-63
80002c50:	80 00       	ld.sh	r0,r0[0x0]
80002c52:	72 a4       	ld.w	r4,r9[0x28]
80002c54:	80 00       	ld.sh	r0,r0[0x0]
80002c56:	72 b4       	ld.w	r4,r9[0x2c]
80002c58:	80 00       	ld.sh	r0,r0[0x0]
80002c5a:	72 fe       	ld.w	lr,r9[0x3c]
80002c5c:	80 00       	ld.sh	r0,r0[0x0]
80002c5e:	25 dc       	sub	r12,93
80002c60:	80 00       	ld.sh	r0,r0[0x0]
80002c62:	24 80       	sub	r0,72
80002c64:	80 00       	ld.sh	r0,r0[0x0]
80002c66:	72 e6       	ld.w	r6,r9[0x38]
80002c68:	80 00       	ld.sh	r0,r0[0x0]
80002c6a:	72 d4       	ld.w	r4,r9[0x34]
80002c6c:	80 00       	ld.sh	r0,r0[0x0]
80002c6e:	72 f6       	ld.w	r6,r9[0x3c]
80002c70:	80 00       	ld.sh	r0,r0[0x0]
80002c72:	2d c4       	sub	r4,-36
80002c74:	80 00       	ld.sh	r0,r0[0x0]
80002c76:	d3 48       	*unknown*
80002c78:	80 00       	ld.sh	r0,r0[0x0]
80002c7a:	26 8c       	sub	r12,104
80002c7c:	80 00       	ld.sh	r0,r0[0x0]
80002c7e:	24 40       	sub	r0,68
80002c80:	80 00       	ld.sh	r0,r0[0x0]
80002c82:	26 f0       	sub	r0,111
80002c84:	80 00       	ld.sh	r0,r0[0x0]
80002c86:	d3 20       	acall	0x32
80002c88:	80 00       	ld.sh	r0,r0[0x0]
80002c8a:	2d 90       	sub	r0,-39
80002c8c:	80 00       	ld.sh	r0,r0[0x0]
80002c8e:	2d b0       	sub	r0,-37
80002c90:	80 00       	ld.sh	r0,r0[0x0]
80002c92:	2e 10       	sub	r0,-31
80002c94:	80 00       	ld.sh	r0,r0[0x0]
80002c96:	74 6c       	ld.w	r12,r10[0x18]
80002c98:	80 00       	ld.sh	r0,r0[0x0]
80002c9a:	2e 94       	sub	r4,-23

80002c9c <_ZNSt9exceptionD2Ev>:
80002c9c:	48 28       	lddpc	r8,80002ca4 <_ZNSt9exceptionD2Ev+0x8>
80002c9e:	2f 88       	sub	r8,-8
80002ca0:	99 08       	st.w	r12[0x0],r8
80002ca2:	5e fc       	retal	r12
80002ca4:	80 00       	ld.sh	r0,r0[0x0]
80002ca6:	d2 e8       	*unknown*

80002ca8 <_ZNSt9exceptionD1Ev>:
80002ca8:	48 28       	lddpc	r8,80002cb0 <_ZNSt9exceptionD1Ev+0x8>
80002caa:	2f 88       	sub	r8,-8
80002cac:	99 08       	st.w	r12[0x0],r8
80002cae:	5e fc       	retal	r12
80002cb0:	80 00       	ld.sh	r0,r0[0x0]
80002cb2:	d2 e8       	*unknown*

80002cb4 <_ZNSt13bad_exceptionD1Ev>:
80002cb4:	48 28       	lddpc	r8,80002cbc <_ZNSt13bad_exceptionD1Ev+0x8>
80002cb6:	2f 88       	sub	r8,-8
80002cb8:	99 08       	st.w	r12[0x0],r8
80002cba:	5e fc       	retal	r12
80002cbc:	80 00       	ld.sh	r0,r0[0x0]
80002cbe:	d2 e8       	*unknown*

80002cc0 <_ZNKSt9exception4whatEv>:
80002cc0:	48 1c       	lddpc	r12,80002cc4 <_ZNKSt9exception4whatEv+0x4>
80002cc2:	5e fc       	retal	r12
80002cc4:	80 00       	ld.sh	r0,r0[0x0]
80002cc6:	d3 88       	*unknown*

80002cc8 <_ZNKSt13bad_exception4whatEv>:
80002cc8:	48 1c       	lddpc	r12,80002ccc <_ZNKSt13bad_exception4whatEv+0x4>
80002cca:	5e fc       	retal	r12
80002ccc:	80 00       	ld.sh	r0,r0[0x0]
80002cce:	d3 98       	*unknown*

80002cd0 <_ZNSt9exceptionD0Ev>:
80002cd0:	d4 01       	pushm	lr
80002cd2:	48 48       	lddpc	r8,80002ce0 <_ZNSt9exceptionD0Ev+0x10>
80002cd4:	2f 88       	sub	r8,-8
80002cd6:	99 08       	st.w	r12[0x0],r8
80002cd8:	f0 1f 00 03 	mcall	80002ce4 <_ZNSt9exceptionD0Ev+0x14>
80002cdc:	d8 02       	popm	pc
80002cde:	00 00       	add	r0,r0
80002ce0:	80 00       	ld.sh	r0,r0[0x0]
80002ce2:	d2 e8       	*unknown*
80002ce4:	80 00       	ld.sh	r0,r0[0x0]
80002ce6:	1f d0       	ld.ub	r0,pc[0x5]

80002ce8 <_ZNSt13bad_exceptionD0Ev>:
80002ce8:	d4 01       	pushm	lr
80002cea:	48 48       	lddpc	r8,80002cf8 <_ZNSt13bad_exceptionD0Ev+0x10>
80002cec:	2f 88       	sub	r8,-8
80002cee:	99 08       	st.w	r12[0x0],r8
80002cf0:	f0 1f 00 03 	mcall	80002cfc <_ZNSt13bad_exceptionD0Ev+0x14>
80002cf4:	d8 02       	popm	pc
80002cf6:	00 00       	add	r0,r0
80002cf8:	80 00       	ld.sh	r0,r0[0x0]
80002cfa:	d2 e8       	*unknown*
80002cfc:	80 00       	ld.sh	r0,r0[0x0]
80002cfe:	1f d0       	ld.ub	r0,pc[0x5]

80002d00 <__cxa_get_globals_fast>:
80002d00:	48 1c       	lddpc	r12,80002d04 <__cxa_get_globals_fast+0x4>
80002d02:	5e fc       	retal	r12
80002d04:	00 00       	add	r0,r0
80002d06:	0f 3c       	ld.ub	r12,r7++

80002d08 <__cxa_get_globals>:
80002d08:	48 1c       	lddpc	r12,80002d0c <__cxa_get_globals+0x4>
80002d0a:	5e fc       	retal	r12
80002d0c:	00 00       	add	r0,r0
80002d0e:	0f 3c       	ld.ub	r12,r7++

80002d10 <_ZN10__cxxabiv111__terminateEPFvvE>:
80002d10:	eb cd 40 81 	pushm	r0,r7,lr
80002d14:	21 0d       	sub	sp,64
80002d16:	fa c9 ff c0 	sub	r9,sp,-64
80002d1a:	fa c8 ff d4 	sub	r8,sp,-44
80002d1e:	91 09       	st.w	r8[0x0],r9
80002d20:	91 2d       	st.w	r8[0x8],sp
80002d22:	49 49       	lddpc	r9,80002d70 <_ZN10__cxxabiv111__terminateEPFvvE+0x60>
80002d24:	50 99       	stdsp	sp[0x24],r9
80002d26:	49 49       	lddpc	r9,80002d74 <_ZN10__cxxabiv111__terminateEPFvvE+0x64>
80002d28:	50 a9       	stdsp	sp[0x28],r9
80002d2a:	49 49       	lddpc	r9,80002d78 <_ZN10__cxxabiv111__terminateEPFvvE+0x68>
80002d2c:	50 0c       	stdsp	sp[0x0],r12
80002d2e:	91 19       	st.w	r8[0x4],r9
80002d30:	fa cc ff f4 	sub	r12,sp,-12
80002d34:	f0 1f 00 12 	mcall	80002d7c <_ZN10__cxxabiv111__terminateEPFvvE+0x6c>
80002d38:	30 28       	mov	r8,2
80002d3a:	50 48       	stdsp	sp[0x10],r8
80002d3c:	40 08       	lddsp	r8,sp[0x0]
80002d3e:	5d 18       	icall	r8
80002d40:	f0 1f 00 10 	mcall	80002d80 <_ZN10__cxxabiv111__terminateEPFvvE+0x70>
80002d44:	40 48       	lddsp	r8,sp[0x10]
80002d46:	40 59       	lddsp	r9,sp[0x14]
80002d48:	50 28       	stdsp	sp[0x8],r8
80002d4a:	50 19       	stdsp	sp[0x4],r9
80002d4c:	58 18       	cp.w	r8,1
80002d4e:	c0 a0       	breq	80002d62 <_ZN10__cxxabiv111__terminateEPFvvE+0x52>
80002d50:	30 08       	mov	r8,0
80002d52:	50 48       	stdsp	sp[0x10],r8
80002d54:	f0 1f 00 0c 	mcall	80002d84 <_ZN10__cxxabiv111__terminateEPFvvE+0x74>
80002d58:	3f f8       	mov	r8,-1
80002d5a:	40 1c       	lddsp	r12,sp[0x4]
80002d5c:	50 48       	stdsp	sp[0x10],r8
80002d5e:	f0 1f 00 0b 	mcall	80002d88 <_ZN10__cxxabiv111__terminateEPFvvE+0x78>
80002d62:	40 1c       	lddsp	r12,sp[0x4]
80002d64:	f0 1f 00 0a 	mcall	80002d8c <_ZN10__cxxabiv111__terminateEPFvvE+0x7c>
80002d68:	40 29       	lddsp	r9,sp[0x8]
80002d6a:	50 49       	stdsp	sp[0x10],r9
80002d6c:	f0 1f 00 05 	mcall	80002d80 <_ZN10__cxxabiv111__terminateEPFvvE+0x70>
80002d70:	80 00       	ld.sh	r0,r0[0x0]
80002d72:	28 94       	sub	r4,-119
80002d74:	00 00       	add	r0,r0
80002d76:	00 54       	eor	r4,r0
80002d78:	80 00       	ld.sh	r0,r0[0x0]
80002d7a:	2d 44       	sub	r4,-44
80002d7c:	80 00       	ld.sh	r0,r0[0x0]
80002d7e:	72 a4       	ld.w	r4,r9[0x28]
80002d80:	80 00       	ld.sh	r0,r0[0x0]
80002d82:	75 70       	ld.w	r0,r10[0x5c]
80002d84:	80 00       	ld.sh	r0,r0[0x0]
80002d86:	2e 10       	sub	r0,-31
80002d88:	80 00       	ld.sh	r0,r0[0x0]
80002d8a:	74 6c       	ld.w	r12,r10[0x18]
80002d8c:	80 00       	ld.sh	r0,r0[0x0]
80002d8e:	2e 94       	sub	r4,-23

80002d90 <_ZSt9terminatev>:
80002d90:	d4 01       	pushm	lr
80002d92:	48 38       	lddpc	r8,80002d9c <_ZSt9terminatev+0xc>
80002d94:	70 0c       	ld.w	r12,r8[0x0]
80002d96:	f0 1f 00 03 	mcall	80002da0 <_ZSt9terminatev+0x10>
80002d9a:	00 00       	add	r0,r0
80002d9c:	00 00       	add	r0,r0
80002d9e:	00 d0       	st.w	--r0,r0
80002da0:	80 00       	ld.sh	r0,r0[0x0]
80002da2:	2d 10       	sub	r0,-47

80002da4 <_ZN10__cxxabiv112__unexpectedEPFvvE>:
80002da4:	d4 01       	pushm	lr
80002da6:	5d 1c       	icall	r12
80002da8:	f0 1f 00 01 	mcall	80002dac <_ZN10__cxxabiv112__unexpectedEPFvvE+0x8>
80002dac:	80 00       	ld.sh	r0,r0[0x0]
80002dae:	2d 90       	sub	r0,-39

80002db0 <_ZSt10unexpectedv>:
80002db0:	d4 01       	pushm	lr
80002db2:	48 38       	lddpc	r8,80002dbc <_ZSt10unexpectedv+0xc>
80002db4:	70 0c       	ld.w	r12,r8[0x0]
80002db6:	f0 1f 00 03 	mcall	80002dc0 <_ZSt10unexpectedv+0x10>
80002dba:	00 00       	add	r0,r0
80002dbc:	00 00       	add	r0,r0
80002dbe:	00 cc       	st.b	r0++,r12
80002dc0:	80 00       	ld.sh	r0,r0[0x0]
80002dc2:	2d a4       	sub	r4,-38

80002dc4 <__cxa_call_terminate>:
80002dc4:	eb cd 40 80 	pushm	r7,lr
80002dc8:	18 97       	mov	r7,r12
80002dca:	58 0c       	cp.w	r12,0
80002dcc:	c1 50       	breq	80002df6 <__cxa_call_terminate+0x32>
80002dce:	f0 1f 00 0e 	mcall	80002e04 <__cxa_call_terminate+0x40>
80002dd2:	ee ea 00 00 	ld.d	r10,r7[0]
80002dd6:	e0 68 d5 00 	mov	r8,54528
80002dda:	ea 18 bc d4 	orh	r8,0xbcd4
80002dde:	e0 69 aa bc 	mov	r9,43708
80002de2:	ea 19 b8 b1 	orh	r9,0xb8b1
80002de6:	f4 08 00 08 	add	r8,r10,r8
80002dea:	f6 09 00 49 	adc	r9,r11,r9
80002dee:	58 18       	cp.w	r8,1
80002df0:	5c 29       	cpc	r9
80002df2:	e0 88 00 04 	brls	80002dfa <__cxa_call_terminate+0x36>
80002df6:	f0 1f 00 05 	mcall	80002e08 <__cxa_call_terminate+0x44>
80002dfa:	ee fc ff e0 	ld.w	r12,r7[-32]
80002dfe:	f0 1f 00 04 	mcall	80002e0c <__cxa_call_terminate+0x48>
80002e02:	00 00       	add	r0,r0
80002e04:	80 00       	ld.sh	r0,r0[0x0]
80002e06:	2e 94       	sub	r4,-23
80002e08:	80 00       	ld.sh	r0,r0[0x0]
80002e0a:	2d 90       	sub	r0,-39
80002e0c:	80 00       	ld.sh	r0,r0[0x0]
80002e0e:	2d 10       	sub	r0,-47

80002e10 <__cxa_end_catch>:
80002e10:	eb cd 40 c0 	pushm	r6-r7,lr
80002e14:	f0 1f 00 1d 	mcall	80002e88 <__cxa_end_catch+0x78>
80002e18:	18 99       	mov	r9,r12
80002e1a:	78 08       	ld.w	r8,r12[0x0]
80002e1c:	58 08       	cp.w	r8,0
80002e1e:	c1 b0       	breq	80002e54 <__cxa_end_catch+0x44>
80002e20:	f0 e6 00 2c 	ld.d	r6,r8[44]
80002e24:	e0 6a d5 00 	mov	r10,54528
80002e28:	ea 1a bc d4 	orh	r10,0xbcd4
80002e2c:	e0 6b aa bc 	mov	r11,43708
80002e30:	ea 1b b8 b1 	orh	r11,0xb8b1
80002e34:	ec 0a 00 0a 	add	r10,r6,r10
80002e38:	ee 0b 00 4b 	adc	r11,r7,r11
80002e3c:	58 1a       	cp.w	r10,1
80002e3e:	5c 2b       	cpc	r11
80002e40:	e0 8b 00 0c 	brhi	80002e58 <__cxa_end_catch+0x48>
80002e44:	70 5a       	ld.w	r10,r8[0x14]
80002e46:	58 0a       	cp.w	r10,0
80002e48:	c1 05       	brlt	80002e68 <__cxa_end_catch+0x58>
80002e4a:	20 1a       	sub	r10,1
80002e4c:	c1 30       	breq	80002e72 <__cxa_end_catch+0x62>
80002e4e:	5b fa       	cp.w	r10,-1
80002e50:	c1 90       	breq	80002e82 <__cxa_end_catch+0x72>
80002e52:	91 5a       	st.w	r8[0x14],r10
80002e54:	e3 cd 80 c0 	ldm	sp++,r6-r7,pc
80002e58:	f0 cc ff d4 	sub	r12,r8,-44
80002e5c:	30 08       	mov	r8,0
80002e5e:	93 08       	st.w	r9[0x0],r8
80002e60:	f0 1f 00 0b 	mcall	80002e8c <__cxa_end_catch+0x7c>
80002e64:	e3 cd 80 c0 	ldm	sp++,r6-r7,pc
80002e68:	2f fa       	sub	r10,-1
80002e6a:	cf 41       	brne	80002e52 <__cxa_end_catch+0x42>
80002e6c:	70 4b       	ld.w	r11,r8[0x10]
80002e6e:	99 0b       	st.w	r12[0x0],r11
80002e70:	cf 1b       	rjmp	80002e52 <__cxa_end_catch+0x42>
80002e72:	f0 cc ff d4 	sub	r12,r8,-44
80002e76:	70 48       	ld.w	r8,r8[0x10]
80002e78:	93 08       	st.w	r9[0x0],r8
80002e7a:	f0 1f 00 05 	mcall	80002e8c <__cxa_end_catch+0x7c>
80002e7e:	e3 cd 80 c0 	ldm	sp++,r6-r7,pc
80002e82:	f0 1f 00 04 	mcall	80002e90 <__cxa_end_catch+0x80>
80002e86:	00 00       	add	r0,r0
80002e88:	80 00       	ld.sh	r0,r0[0x0]
80002e8a:	2d 00       	sub	r0,-48
80002e8c:	80 00       	ld.sh	r0,r0[0x0]
80002e8e:	73 90       	ld.w	r0,r9[0x64]
80002e90:	80 00       	ld.sh	r0,r0[0x0]
80002e92:	2d 90       	sub	r0,-39

80002e94 <__cxa_begin_catch>:
80002e94:	eb cd 40 81 	pushm	r0,r7,lr
80002e98:	20 fd       	sub	sp,60
80002e9a:	fa c9 ff c4 	sub	r9,sp,-60
80002e9e:	fa c8 ff d8 	sub	r8,sp,-40
80002ea2:	91 09       	st.w	r8[0x0],r9
80002ea4:	91 2d       	st.w	r8[0x8],sp
80002ea6:	4a 89       	lddpc	r9,80002f44 <__cxa_begin_catch+0xb0>
80002ea8:	50 89       	stdsp	sp[0x20],r9
80002eaa:	4a 89       	lddpc	r9,80002f48 <__cxa_begin_catch+0xb4>
80002eac:	50 99       	stdsp	sp[0x24],r9
80002eae:	4a 89       	lddpc	r9,80002f4c <__cxa_begin_catch+0xb8>
80002eb0:	50 0c       	stdsp	sp[0x0],r12
80002eb2:	91 19       	st.w	r8[0x4],r9
80002eb4:	fa cc ff f8 	sub	r12,sp,-8
80002eb8:	f0 1f 00 26 	mcall	80002f50 <__cxa_begin_catch+0xbc>
80002ebc:	f0 1f 00 26 	mcall	80002f54 <__cxa_begin_catch+0xc0>
80002ec0:	40 08       	lddsp	r8,sp[0x0]
80002ec2:	e0 69 aa bc 	mov	r9,43708
80002ec6:	ea 19 b8 b1 	orh	r9,0xb8b1
80002eca:	f0 ea 00 00 	ld.d	r10,r8[0]
80002ece:	e0 68 d5 00 	mov	r8,54528
80002ed2:	ea 18 bc d4 	orh	r8,0xbcd4
80002ed6:	10 0a       	add	r10,r8
80002ed8:	f6 09 00 4b 	adc	r11,r11,r9
80002edc:	40 08       	lddsp	r8,sp[0x0]
80002ede:	78 09       	ld.w	r9,r12[0x0]
80002ee0:	22 c8       	sub	r8,44
80002ee2:	58 1a       	cp.w	r10,1
80002ee4:	5c 2b       	cpc	r11
80002ee6:	e0 88 00 0e 	brls	80002f02 <__cxa_begin_catch+0x6e>
80002eea:	58 09       	cp.w	r9,0
80002eec:	c1 d1       	brne	80002f26 <__cxa_begin_catch+0x92>
80002eee:	99 08       	st.w	r12[0x0],r8
80002ef0:	50 19       	stdsp	sp[0x4],r9
80002ef2:	fa cc ff f8 	sub	r12,sp,-8
80002ef6:	f0 1f 00 19 	mcall	80002f58 <__cxa_begin_catch+0xc4>
80002efa:	40 1c       	lddsp	r12,sp[0x4]
80002efc:	2f 1d       	sub	sp,-60
80002efe:	e3 cd 80 81 	ldm	sp++,r0,r7,pc
80002f02:	70 5a       	ld.w	r10,r8[0x14]
80002f04:	58 0a       	cp.w	r10,0
80002f06:	c0 d5       	brlt	80002f20 <__cxa_begin_catch+0x8c>
80002f08:	2f fa       	sub	r10,-1
80002f0a:	91 5a       	st.w	r8[0x14],r10
80002f0c:	78 1a       	ld.w	r10,r12[0x4]
80002f0e:	20 1a       	sub	r10,1
80002f10:	99 1a       	st.w	r12[0x4],r10
80002f12:	10 39       	cp.w	r9,r8
80002f14:	c0 30       	breq	80002f1a <__cxa_begin_catch+0x86>
80002f16:	91 49       	st.w	r8[0x10],r9
80002f18:	99 08       	st.w	r12[0x0],r8
80002f1a:	70 a8       	ld.w	r8,r8[0x28]
80002f1c:	50 18       	stdsp	sp[0x4],r8
80002f1e:	ce ab       	rjmp	80002ef2 <__cxa_begin_catch+0x5e>
80002f20:	f4 0a 11 01 	rsub	r10,r10,1
80002f24:	cf 3b       	rjmp	80002f0a <__cxa_begin_catch+0x76>
80002f26:	30 18       	mov	r8,1
80002f28:	50 38       	stdsp	sp[0xc],r8
80002f2a:	f0 1f 00 0d 	mcall	80002f5c <__cxa_begin_catch+0xc8>
80002f2e:	40 4c       	lddsp	r12,sp[0x10]
80002f30:	40 58       	lddsp	r8,sp[0x14]
80002f32:	5b f8       	cp.w	r8,-1
80002f34:	c0 50       	breq	80002f3e <__cxa_begin_catch+0xaa>
80002f36:	3f f8       	mov	r8,-1
80002f38:	50 38       	stdsp	sp[0xc],r8
80002f3a:	f0 1f 00 0a 	mcall	80002f60 <__cxa_begin_catch+0xcc>
80002f3e:	50 38       	stdsp	sp[0xc],r8
80002f40:	f0 1f 00 09 	mcall	80002f64 <__cxa_begin_catch+0xd0>
80002f44:	80 00       	ld.sh	r0,r0[0x0]
80002f46:	28 94       	sub	r4,-119
80002f48:	00 00       	add	r0,r0
80002f4a:	00 64       	and	r4,r0
80002f4c:	80 00       	ld.sh	r0,r0[0x0]
80002f4e:	2f 2e       	sub	lr,-14
80002f50:	80 00       	ld.sh	r0,r0[0x0]
80002f52:	72 a4       	ld.w	r4,r9[0x28]
80002f54:	80 00       	ld.sh	r0,r0[0x0]
80002f56:	2d 08       	sub	r8,-48
80002f58:	80 00       	ld.sh	r0,r0[0x0]
80002f5a:	72 b4       	ld.w	r4,r9[0x2c]
80002f5c:	80 00       	ld.sh	r0,r0[0x0]
80002f5e:	2d 90       	sub	r0,-39
80002f60:	80 00       	ld.sh	r0,r0[0x0]
80002f62:	74 6c       	ld.w	r12,r10[0x18]
80002f64:	80 00       	ld.sh	r0,r0[0x0]
80002f66:	27 54       	sub	r4,117

80002f68 <_ZNSt9type_infoD2Ev>:
80002f68:	48 28       	lddpc	r8,80002f70 <_ZNSt9type_infoD2Ev+0x8>
80002f6a:	2f 88       	sub	r8,-8
80002f6c:	99 08       	st.w	r12[0x0],r8
80002f6e:	5e fc       	retal	r12
80002f70:	80 00       	ld.sh	r0,r0[0x0]
80002f72:	d3 ac       	*unknown*

80002f74 <_ZNSt9type_infoD1Ev>:
80002f74:	48 28       	lddpc	r8,80002f7c <_ZNSt9type_infoD1Ev+0x8>
80002f76:	2f 88       	sub	r8,-8
80002f78:	99 08       	st.w	r12[0x0],r8
80002f7a:	5e fc       	retal	r12
80002f7c:	80 00       	ld.sh	r0,r0[0x0]
80002f7e:	d3 ac       	*unknown*

80002f80 <_ZNKSt9type_info14__is_pointer_pEv>:
80002f80:	5e fd       	retal	0

80002f82 <_ZNKSt9type_info15__is_function_pEv>:
80002f82:	5e fd       	retal	0

80002f84 <_ZNKSt9type_info10__do_catchEPKS_PPvj>:
80002f84:	78 18       	ld.w	r8,r12[0x4]
80002f86:	76 19       	ld.w	r9,r11[0x4]
80002f88:	12 38       	cp.w	r8,r9
80002f8a:	5f 0c       	sreq	r12
80002f8c:	5e fc       	retal	r12

80002f8e <_ZNKSt9type_info11__do_upcastEPKN10__cxxabiv117__class_type_infoEPPv>:
80002f8e:	5e fd       	retal	0

80002f90 <_ZNSt9type_infoD0Ev>:
80002f90:	d4 01       	pushm	lr
80002f92:	48 48       	lddpc	r8,80002fa0 <_ZNSt9type_infoD0Ev+0x10>
80002f94:	2f 88       	sub	r8,-8
80002f96:	99 08       	st.w	r12[0x0],r8
80002f98:	f0 1f 00 03 	mcall	80002fa4 <_ZNSt9type_infoD0Ev+0x14>
80002f9c:	d8 02       	popm	pc
80002f9e:	00 00       	add	r0,r0
80002fa0:	80 00       	ld.sh	r0,r0[0x0]
80002fa2:	d3 ac       	*unknown*
80002fa4:	80 00       	ld.sh	r0,r0[0x0]
80002fa6:	1f d0       	ld.ub	r0,pc[0x5]

80002fa8 <_ZNK10__cxxabiv117__class_type_info10__do_catchEPKSt9type_infoPPvj>:
80002fa8:	d4 01       	pushm	lr
80002faa:	16 98       	mov	r8,r11
80002fac:	78 1e       	ld.w	lr,r12[0x4]
80002fae:	76 1b       	ld.w	r11,r11[0x4]
80002fb0:	16 3e       	cp.w	lr,r11
80002fb2:	c0 b0       	breq	80002fc8 <_ZNK10__cxxabiv117__class_type_info10__do_catchEPKSt9type_infoPPvj+0x20>
80002fb4:	58 39       	cp.w	r9,3
80002fb6:	e0 88 00 03 	brls	80002fbc <_ZNK10__cxxabiv117__class_type_info10__do_catchEPKSt9type_infoPPvj+0x14>
80002fba:	d8 0a       	popm	pc,r12=0
80002fbc:	18 9b       	mov	r11,r12
80002fbe:	10 9c       	mov	r12,r8
80002fc0:	70 08       	ld.w	r8,r8[0x0]
80002fc2:	70 58       	ld.w	r8,r8[0x14]
80002fc4:	5d 18       	icall	r8
80002fc6:	d8 02       	popm	pc
80002fc8:	da 0a       	popm	pc,r12=1

80002fca <_ZNK10__cxxabiv117__class_type_info11__do_upcastEPKS0_PPv>:
80002fca:	eb cd 40 c0 	pushm	r6-r7,lr
80002fce:	20 4d       	sub	sp,16
80002fd0:	31 09       	mov	r9,16
80002fd2:	30 07       	mov	r7,0
80002fd4:	78 08       	ld.w	r8,r12[0x0]
80002fd6:	50 07       	stdsp	sp[0x0],r7
80002fd8:	70 68       	ld.w	r8,r8[0x18]
80002fda:	50 29       	stdsp	sp[0x8],r9
80002fdc:	14 96       	mov	r6,r10
80002fde:	50 17       	stdsp	sp[0x4],r7
80002fe0:	50 37       	stdsp	sp[0xc],r7
80002fe2:	1a 99       	mov	r9,sp
80002fe4:	74 0a       	ld.w	r10,r10[0x0]
80002fe6:	5d 18       	icall	r8
80002fe8:	40 18       	lddsp	r8,sp[0x4]
80002fea:	e2 18 00 06 	andl	r8,0x6,COH
80002fee:	58 68       	cp.w	r8,6
80002ff0:	c0 50       	breq	80002ffa <_ZNK10__cxxabiv117__class_type_info11__do_upcastEPKS0_PPv+0x30>
80002ff2:	0e 9c       	mov	r12,r7
80002ff4:	2f cd       	sub	sp,-16
80002ff6:	e3 cd 80 c0 	ldm	sp++,r6-r7,pc
80002ffa:	40 08       	lddsp	r8,sp[0x0]
80002ffc:	30 1c       	mov	r12,1
80002ffe:	8d 08       	st.w	r6[0x0],r8
80003000:	2f cd       	sub	sp,-16
80003002:	e3 cd 80 c0 	ldm	sp++,r6-r7,pc

80003006 <_ZNK10__cxxabiv117__class_type_info20__do_find_public_srcElPKvPKS0_S2_>:
80003006:	14 38       	cp.w	r8,r10
80003008:	f9 bc 00 06 	moveq	r12,6
8000300c:	f9 bc 01 01 	movne	r12,1
80003010:	5e fc       	retal	r12

80003012 <_ZNK10__cxxabiv117__class_type_info12__do_dyncastElNS0_10__sub_kindEPKS0_PKvS3_S5_RNS0_16__dyncast_resultE>:
80003012:	eb cd 40 90 	pushm	r4,r7,lr
80003016:	fa c4 ff f4 	sub	r4,sp,-12
8000301a:	68 2e       	ld.w	lr,r4[0x8]
8000301c:	68 07       	ld.w	r7,r4[0x0]
8000301e:	68 1b       	ld.w	r11,r4[0x4]
80003020:	16 38       	cp.w	r8,r11
80003022:	c0 70       	breq	80003030 <_ZNK10__cxxabiv117__class_type_info12__do_dyncastElNS0_10__sub_kindEPKS0_PKvS3_S5_RNS0_16__dyncast_resultE+0x1e>
80003024:	78 1b       	ld.w	r11,r12[0x4]
80003026:	72 19       	ld.w	r9,r9[0x4]
80003028:	12 3b       	cp.w	r11,r9
8000302a:	c0 90       	breq	8000303c <_ZNK10__cxxabiv117__class_type_info12__do_dyncastElNS0_10__sub_kindEPKS0_PKvS3_S5_RNS0_16__dyncast_resultE+0x2a>
8000302c:	e3 cf 80 90 	ldm	sp++,r4,r7,pc,r12=0
80003030:	78 1b       	ld.w	r11,r12[0x4]
80003032:	6e 1c       	ld.w	r12,r7[0x4]
80003034:	18 3b       	cp.w	r11,r12
80003036:	cf 81       	brne	80003026 <_ZNK10__cxxabiv117__class_type_info12__do_dyncastElNS0_10__sub_kindEPKS0_PKvS3_S5_RNS0_16__dyncast_resultE+0x14>
80003038:	9d 2a       	st.w	lr[0x8],r10
8000303a:	cf 9b       	rjmp	8000302c <_ZNK10__cxxabiv117__class_type_info12__do_dyncastElNS0_10__sub_kindEPKS0_PKvS3_S5_RNS0_16__dyncast_resultE+0x1a>
8000303c:	9d 08       	st.w	lr[0x0],r8
8000303e:	9d 1a       	st.w	lr[0x4],r10
80003040:	30 18       	mov	r8,1
80003042:	30 0c       	mov	r12,0
80003044:	9d 38       	st.w	lr[0xc],r8
80003046:	e3 cd 80 90 	ldm	sp++,r4,r7,pc

8000304a <_ZNK10__cxxabiv117__class_type_info11__do_upcastEPKS0_PKvRNS0_15__upcast_resultE>:
8000304a:	78 18       	ld.w	r8,r12[0x4]
8000304c:	76 1b       	ld.w	r11,r11[0x4]
8000304e:	16 38       	cp.w	r8,r11
80003050:	c0 20       	breq	80003054 <_ZNK10__cxxabiv117__class_type_info11__do_upcastEPKS0_PKvRNS0_15__upcast_resultE+0xa>
80003052:	5e fd       	retal	0
80003054:	30 88       	mov	r8,8
80003056:	93 0a       	st.w	r9[0x0],r10
80003058:	93 38       	st.w	r9[0xc],r8
8000305a:	30 1c       	mov	r12,1
8000305c:	30 68       	mov	r8,6
8000305e:	93 18       	st.w	r9[0x4],r8
80003060:	5e fc       	retal	r12
80003062:	d7 03       	nop

80003064 <_ZN10__cxxabiv117__class_type_infoD1Ev>:
80003064:	d4 01       	pushm	lr
80003066:	48 48       	lddpc	r8,80003074 <_ZN10__cxxabiv117__class_type_infoD1Ev+0x10>
80003068:	2f 88       	sub	r8,-8
8000306a:	99 08       	st.w	r12[0x0],r8
8000306c:	f0 1f 00 03 	mcall	80003078 <_ZN10__cxxabiv117__class_type_infoD1Ev+0x14>
80003070:	d8 02       	popm	pc
80003072:	00 00       	add	r0,r0
80003074:	80 00       	ld.sh	r0,r0[0x0]
80003076:	d3 e4       	*unknown*
80003078:	80 00       	ld.sh	r0,r0[0x0]
8000307a:	2f 68       	sub	r8,-10

8000307c <_ZN10__cxxabiv117__class_type_infoD2Ev>:
8000307c:	d4 01       	pushm	lr
8000307e:	48 48       	lddpc	r8,8000308c <_ZN10__cxxabiv117__class_type_infoD2Ev+0x10>
80003080:	2f 88       	sub	r8,-8
80003082:	99 08       	st.w	r12[0x0],r8
80003084:	f0 1f 00 03 	mcall	80003090 <_ZN10__cxxabiv117__class_type_infoD2Ev+0x14>
80003088:	d8 02       	popm	pc
8000308a:	00 00       	add	r0,r0
8000308c:	80 00       	ld.sh	r0,r0[0x0]
8000308e:	d3 e4       	*unknown*
80003090:	80 00       	ld.sh	r0,r0[0x0]
80003092:	2f 68       	sub	r8,-10

80003094 <_ZN10__cxxabiv117__class_type_infoD0Ev>:
80003094:	eb cd 40 80 	pushm	r7,lr
80003098:	48 68       	lddpc	r8,800030b0 <_ZN10__cxxabiv117__class_type_infoD0Ev+0x1c>
8000309a:	2f 88       	sub	r8,-8
8000309c:	18 97       	mov	r7,r12
8000309e:	99 08       	st.w	r12[0x0],r8
800030a0:	f0 1f 00 05 	mcall	800030b4 <_ZN10__cxxabiv117__class_type_infoD0Ev+0x20>
800030a4:	0e 9c       	mov	r12,r7
800030a6:	f0 1f 00 05 	mcall	800030b8 <_ZN10__cxxabiv117__class_type_infoD0Ev+0x24>
800030aa:	e3 cd 80 80 	ldm	sp++,r7,pc
800030ae:	00 00       	add	r0,r0
800030b0:	80 00       	ld.sh	r0,r0[0x0]
800030b2:	d3 e4       	*unknown*
800030b4:	80 00       	ld.sh	r0,r0[0x0]
800030b6:	2f 68       	sub	r8,-10
800030b8:	80 00       	ld.sh	r0,r0[0x0]
800030ba:	1f d0       	ld.ub	r0,pc[0x5]

800030bc <_ZN9__gnu_cxx27__verbose_terminate_handlerEv>:
800030bc:	eb cd 40 81 	pushm	r0,r7,lr
800030c0:	21 3d       	sub	sp,76
800030c2:	fa c9 ff b4 	sub	r9,sp,-76
800030c6:	fa c8 ff cc 	sub	r8,sp,-52
800030ca:	91 09       	st.w	r8[0x0],r9
800030cc:	91 2d       	st.w	r8[0x8],sp
800030ce:	4d 39       	lddpc	r9,80003218 <_ZN9__gnu_cxx27__verbose_terminate_handlerEv+0x15c>
800030d0:	50 b9       	stdsp	sp[0x2c],r9
800030d2:	4d 39       	lddpc	r9,8000321c <_ZN9__gnu_cxx27__verbose_terminate_handlerEv+0x160>
800030d4:	50 c9       	stdsp	sp[0x30],r9
800030d6:	4d 39       	lddpc	r9,80003220 <_ZN9__gnu_cxx27__verbose_terminate_handlerEv+0x164>
800030d8:	fa cc ff ec 	sub	r12,sp,-20
800030dc:	91 19       	st.w	r8[0x4],r9
800030de:	f0 1f 00 52 	mcall	80003224 <_ZN9__gnu_cxx27__verbose_terminate_handlerEv+0x168>
800030e2:	4d 28       	lddpc	r8,80003228 <_ZN9__gnu_cxx27__verbose_terminate_handlerEv+0x16c>
800030e4:	30 09       	mov	r9,0
800030e6:	11 8a       	ld.ub	r10,r8[0x0]
800030e8:	f2 0a 18 00 	cp.b	r10,r9
800030ec:	c0 d0       	breq	80003106 <_ZN9__gnu_cxx27__verbose_terminate_handlerEv+0x4a>
800030ee:	4d 08       	lddpc	r8,8000322c <_ZN9__gnu_cxx27__verbose_terminate_handlerEv+0x170>
800030f0:	70 08       	ld.w	r8,r8[0x0]
800030f2:	70 29       	ld.w	r9,r8[0x8]
800030f4:	3f f8       	mov	r8,-1
800030f6:	31 da       	mov	r10,29
800030f8:	50 68       	stdsp	sp[0x18],r8
800030fa:	30 1b       	mov	r11,1
800030fc:	4c dc       	lddpc	r12,80003230 <_ZN9__gnu_cxx27__verbose_terminate_handlerEv+0x174>
800030fe:	f0 1f 00 4e 	mcall	80003234 <_ZN9__gnu_cxx27__verbose_terminate_handlerEv+0x178>
80003102:	f0 1f 00 4e 	mcall	80003238 <_ZN9__gnu_cxx27__verbose_terminate_handlerEv+0x17c>
80003106:	30 19       	mov	r9,1
80003108:	b0 89       	st.b	r8[0x0],r9
8000310a:	3f f8       	mov	r8,-1
8000310c:	50 68       	stdsp	sp[0x18],r8
8000310e:	f0 1f 00 4c 	mcall	8000323c <_ZN9__gnu_cxx27__verbose_terminate_handlerEv+0x180>
80003112:	c3 70       	breq	80003180 <_ZN9__gnu_cxx27__verbose_terminate_handlerEv+0xc4>
80003114:	3f f8       	mov	r8,-1
80003116:	30 0a       	mov	r10,0
80003118:	fa c9 ff b4 	sub	r9,sp,-76
8000311c:	14 9b       	mov	r11,r10
8000311e:	12 d8       	st.w	--r9,r8
80003120:	78 1c       	ld.w	r12,r12[0x4]
80003122:	50 0c       	stdsp	sp[0x0],r12
80003124:	f0 1f 00 47 	mcall	80003240 <_ZN9__gnu_cxx27__verbose_terminate_handlerEv+0x184>
80003128:	4c 19       	lddpc	r9,8000322c <_ZN9__gnu_cxx27__verbose_terminate_handlerEv+0x170>
8000312a:	72 08       	ld.w	r8,r9[0x0]
8000312c:	50 1c       	stdsp	sp[0x4],r12
8000312e:	70 29       	ld.w	r9,r8[0x8]
80003130:	33 0a       	mov	r10,48
80003132:	30 1b       	mov	r11,1
80003134:	4c 4c       	lddpc	r12,80003244 <_ZN9__gnu_cxx27__verbose_terminate_handlerEv+0x188>
80003136:	f0 1f 00 40 	mcall	80003234 <_ZN9__gnu_cxx27__verbose_terminate_handlerEv+0x178>
8000313a:	41 28       	lddsp	r8,sp[0x48]
8000313c:	58 08       	cp.w	r8,0
8000313e:	c1 81       	brne	8000316e <_ZN9__gnu_cxx27__verbose_terminate_handlerEv+0xb2>
80003140:	4b b9       	lddpc	r9,8000322c <_ZN9__gnu_cxx27__verbose_terminate_handlerEv+0x170>
80003142:	72 08       	ld.w	r8,r9[0x0]
80003144:	40 1c       	lddsp	r12,sp[0x4]
80003146:	70 2b       	ld.w	r11,r8[0x8]
80003148:	f0 1f 00 40 	mcall	80003248 <_ZN9__gnu_cxx27__verbose_terminate_handlerEv+0x18c>
8000314c:	4b 88       	lddpc	r8,8000322c <_ZN9__gnu_cxx27__verbose_terminate_handlerEv+0x170>
8000314e:	70 08       	ld.w	r8,r8[0x0]
80003150:	70 29       	ld.w	r9,r8[0x8]
80003152:	3f f8       	mov	r8,-1
80003154:	30 2a       	mov	r10,2
80003156:	50 68       	stdsp	sp[0x18],r8
80003158:	30 1b       	mov	r11,1
8000315a:	4b dc       	lddpc	r12,8000324c <_ZN9__gnu_cxx27__verbose_terminate_handlerEv+0x190>
8000315c:	f0 1f 00 36 	mcall	80003234 <_ZN9__gnu_cxx27__verbose_terminate_handlerEv+0x178>
80003160:	41 28       	lddsp	r8,sp[0x48]
80003162:	58 08       	cp.w	r8,0
80003164:	c1 c0       	breq	8000319c <_ZN9__gnu_cxx27__verbose_terminate_handlerEv+0xe0>
80003166:	30 28       	mov	r8,2
80003168:	50 68       	stdsp	sp[0x18],r8
8000316a:	f0 1f 00 3a 	mcall	80003250 <_ZN9__gnu_cxx27__verbose_terminate_handlerEv+0x194>
8000316e:	4b 09       	lddpc	r9,8000322c <_ZN9__gnu_cxx27__verbose_terminate_handlerEv+0x170>
80003170:	72 08       	ld.w	r8,r9[0x0]
80003172:	70 2b       	ld.w	r11,r8[0x8]
80003174:	3f f8       	mov	r8,-1
80003176:	40 0c       	lddsp	r12,sp[0x0]
80003178:	50 68       	stdsp	sp[0x18],r8
8000317a:	f0 1f 00 34 	mcall	80003248 <_ZN9__gnu_cxx27__verbose_terminate_handlerEv+0x18c>
8000317e:	ce 7b       	rjmp	8000314c <_ZN9__gnu_cxx27__verbose_terminate_handlerEv+0x90>
80003180:	4a b8       	lddpc	r8,8000322c <_ZN9__gnu_cxx27__verbose_terminate_handlerEv+0x170>
80003182:	70 08       	ld.w	r8,r8[0x0]
80003184:	70 29       	ld.w	r9,r8[0x8]
80003186:	3f f8       	mov	r8,-1
80003188:	32 da       	mov	r10,45
8000318a:	50 68       	stdsp	sp[0x18],r8
8000318c:	30 1b       	mov	r11,1
8000318e:	4b 2c       	lddpc	r12,80003254 <_ZN9__gnu_cxx27__verbose_terminate_handlerEv+0x198>
80003190:	f0 1f 00 29 	mcall	80003234 <_ZN9__gnu_cxx27__verbose_terminate_handlerEv+0x178>
80003194:	3f f8       	mov	r8,-1
80003196:	50 68       	stdsp	sp[0x18],r8
80003198:	f0 1f 00 28 	mcall	80003238 <_ZN9__gnu_cxx27__verbose_terminate_handlerEv+0x17c>
8000319c:	40 1c       	lddsp	r12,sp[0x4]
8000319e:	f0 1f 00 2f 	mcall	80003258 <_ZN9__gnu_cxx27__verbose_terminate_handlerEv+0x19c>
800031a2:	ce 2b       	rjmp	80003166 <_ZN9__gnu_cxx27__verbose_terminate_handlerEv+0xaa>
800031a4:	40 68       	lddsp	r8,sp[0x18]
800031a6:	40 79       	lddsp	r9,sp[0x1c]
800031a8:	50 38       	stdsp	sp[0xc],r8
800031aa:	50 29       	stdsp	sp[0x8],r9
800031ac:	40 88       	lddsp	r8,sp[0x20]
800031ae:	40 39       	lddsp	r9,sp[0xc]
800031b0:	58 19       	cp.w	r9,1
800031b2:	c0 a0       	breq	800031c6 <_ZN9__gnu_cxx27__verbose_terminate_handlerEv+0x10a>
800031b4:	30 08       	mov	r8,0
800031b6:	50 68       	stdsp	sp[0x18],r8
800031b8:	f0 1f 00 29 	mcall	8000325c <_ZN9__gnu_cxx27__verbose_terminate_handlerEv+0x1a0>
800031bc:	3f f8       	mov	r8,-1
800031be:	40 2c       	lddsp	r12,sp[0x8]
800031c0:	50 68       	stdsp	sp[0x18],r8
800031c2:	f0 1f 00 28 	mcall	80003260 <_ZN9__gnu_cxx27__verbose_terminate_handlerEv+0x1a4>
800031c6:	58 28       	cp.w	r8,2
800031c8:	c0 90       	breq	800031da <_ZN9__gnu_cxx27__verbose_terminate_handlerEv+0x11e>
800031ca:	40 2c       	lddsp	r12,sp[0x8]
800031cc:	f0 1f 00 26 	mcall	80003264 <_ZN9__gnu_cxx27__verbose_terminate_handlerEv+0x1a8>
800031d0:	30 08       	mov	r8,0
800031d2:	50 68       	stdsp	sp[0x18],r8
800031d4:	f0 1f 00 22 	mcall	8000325c <_ZN9__gnu_cxx27__verbose_terminate_handlerEv+0x1a0>
800031d8:	cd eb       	rjmp	80003194 <_ZN9__gnu_cxx27__verbose_terminate_handlerEv+0xd8>
800031da:	40 2c       	lddsp	r12,sp[0x8]
800031dc:	f0 1f 00 22 	mcall	80003264 <_ZN9__gnu_cxx27__verbose_terminate_handlerEv+0x1a8>
800031e0:	40 39       	lddsp	r9,sp[0xc]
800031e2:	78 08       	ld.w	r8,r12[0x0]
800031e4:	70 28       	ld.w	r8,r8[0x8]
800031e6:	50 69       	stdsp	sp[0x18],r9
800031e8:	5d 18       	icall	r8
800031ea:	49 18       	lddpc	r8,8000322c <_ZN9__gnu_cxx27__verbose_terminate_handlerEv+0x170>
800031ec:	70 08       	ld.w	r8,r8[0x0]
800031ee:	50 4c       	stdsp	sp[0x10],r12
800031f0:	70 29       	ld.w	r9,r8[0x8]
800031f2:	30 ba       	mov	r10,11
800031f4:	30 1b       	mov	r11,1
800031f6:	49 dc       	lddpc	r12,80003268 <_ZN9__gnu_cxx27__verbose_terminate_handlerEv+0x1ac>
800031f8:	f0 1f 00 0f 	mcall	80003234 <_ZN9__gnu_cxx27__verbose_terminate_handlerEv+0x178>
800031fc:	48 c8       	lddpc	r8,8000322c <_ZN9__gnu_cxx27__verbose_terminate_handlerEv+0x170>
800031fe:	70 08       	ld.w	r8,r8[0x0]
80003200:	40 4c       	lddsp	r12,sp[0x10]
80003202:	70 2b       	ld.w	r11,r8[0x8]
80003204:	f0 1f 00 11 	mcall	80003248 <_ZN9__gnu_cxx27__verbose_terminate_handlerEv+0x18c>
80003208:	48 98       	lddpc	r8,8000322c <_ZN9__gnu_cxx27__verbose_terminate_handlerEv+0x170>
8000320a:	70 08       	ld.w	r8,r8[0x0]
8000320c:	30 ac       	mov	r12,10
8000320e:	70 2b       	ld.w	r11,r8[0x8]
80003210:	f0 1f 00 17 	mcall	8000326c <_ZN9__gnu_cxx27__verbose_terminate_handlerEv+0x1b0>
80003214:	cd eb       	rjmp	800031d0 <_ZN9__gnu_cxx27__verbose_terminate_handlerEv+0x114>
80003216:	00 00       	add	r0,r0
80003218:	80 00       	ld.sh	r0,r0[0x0]
8000321a:	28 94       	sub	r4,-119
8000321c:	00 00       	add	r0,r0
8000321e:	00 74       	tst	r4,r0
80003220:	80 00       	ld.sh	r0,r0[0x0]
80003222:	31 a4       	mov	r4,26
80003224:	80 00       	ld.sh	r0,r0[0x0]
80003226:	72 a4       	ld.w	r4,r9[0x28]
80003228:	00 00       	add	r0,r0
8000322a:	0f 44       	ld.w	r4,--r7
8000322c:	00 00       	add	r0,r0
8000322e:	01 c4       	ld.ub	r4,r0[0x4]
80003230:	80 00       	ld.sh	r0,r0[0x0]
80003232:	d4 40       	acall	0x44
80003234:	80 00       	ld.sh	r0,r0[0x0]
80003236:	79 b4       	ld.w	r4,r12[0x6c]
80003238:	80 00       	ld.sh	r0,r0[0x0]
8000323a:	75 70       	ld.w	r0,r10[0x5c]
8000323c:	80 00       	ld.sh	r0,r0[0x0]
8000323e:	32 70       	mov	r0,39
80003240:	80 00       	ld.sh	r0,r0[0x0]
80003242:	5d 78       	*unknown*
80003244:	80 00       	ld.sh	r0,r0[0x0]
80003246:	d4 60       	acall	0x46
80003248:	80 00       	ld.sh	r0,r0[0x0]
8000324a:	76 68       	ld.w	r8,r11[0x18]
8000324c:	80 00       	ld.sh	r0,r0[0x0]
8000324e:	d4 94       	*unknown*
80003250:	80 00       	ld.sh	r0,r0[0x0]
80003252:	23 2c       	sub	r12,50
80003254:	80 00       	ld.sh	r0,r0[0x0]
80003256:	d4 a4       	*unknown*
80003258:	80 00       	ld.sh	r0,r0[0x0]
8000325a:	79 d0       	ld.w	r0,r12[0x74]
8000325c:	80 00       	ld.sh	r0,r0[0x0]
8000325e:	2e 10       	sub	r0,-31
80003260:	80 00       	ld.sh	r0,r0[0x0]
80003262:	74 6c       	ld.w	r12,r10[0x18]
80003264:	80 00       	ld.sh	r0,r0[0x0]
80003266:	2e 94       	sub	r4,-23
80003268:	80 00       	ld.sh	r0,r0[0x0]
8000326a:	d4 98       	*unknown*
8000326c:	80 00       	ld.sh	r0,r0[0x0]
8000326e:	75 e0       	ld.w	r0,r10[0x78]

80003270 <__cxa_current_exception_type>:
80003270:	eb cd 40 c0 	pushm	r6-r7,lr
80003274:	f0 1f 00 0b 	mcall	800032a0 <__cxa_current_exception_type+0x30>
80003278:	78 0c       	ld.w	r12,r12[0x0]
8000327a:	58 0c       	cp.w	r12,0
8000327c:	c0 d0       	breq	80003296 <__cxa_current_exception_type+0x26>
8000327e:	f8 e6 00 2c 	ld.d	r6,r12[44]
80003282:	30 1a       	mov	r10,1
80003284:	30 0b       	mov	r11,0
80003286:	ed ea 00 08 	and	r8,r6,r10
8000328a:	ef eb 00 09 	and	r9,r7,r11
8000328e:	58 08       	cp.w	r8,0
80003290:	5c 29       	cpc	r9
80003292:	c0 41       	brne	8000329a <__cxa_current_exception_type+0x2a>
80003294:	78 0c       	ld.w	r12,r12[0x0]
80003296:	e3 cd 80 c0 	ldm	sp++,r6-r7,pc
8000329a:	78 1c       	ld.w	r12,r12[0x4]
8000329c:	24 0c       	sub	r12,64
8000329e:	cf bb       	rjmp	80003294 <__cxa_current_exception_type+0x24>
800032a0:	80 00       	ld.sh	r0,r0[0x0]
800032a2:	2d 08       	sub	r8,-48

800032a4 <d_make_comp>:
800032a4:	d4 01       	pushm	lr
800032a6:	f6 c8 00 01 	sub	r8,r11,1
800032aa:	e0 48 00 39 	cp.w	r8,57
800032ae:	e0 8b 00 97 	brhi	800033dc <d_make_comp+0x138>
800032b2:	4c ce       	lddpc	lr,800033e0 <d_make_comp+0x13c>
800032b4:	fc 08 03 2f 	ld.w	pc,lr[r8<<0x2]
800032b8:	80 00       	ld.sh	r0,r0[0x0]
800032ba:	33 a0       	mov	r0,58
800032bc:	80 00       	ld.sh	r0,r0[0x0]
800032be:	33 a0       	mov	r0,58
800032c0:	80 00       	ld.sh	r0,r0[0x0]
800032c2:	33 a0       	mov	r0,58
800032c4:	80 00       	ld.sh	r0,r0[0x0]
800032c6:	33 a0       	mov	r0,58
800032c8:	80 00       	ld.sh	r0,r0[0x0]
800032ca:	33 dc       	mov	r12,61
800032cc:	80 00       	ld.sh	r0,r0[0x0]
800032ce:	33 dc       	mov	r12,61
800032d0:	80 00       	ld.sh	r0,r0[0x0]
800032d2:	33 dc       	mov	r12,61
800032d4:	80 00       	ld.sh	r0,r0[0x0]
800032d6:	33 dc       	mov	r12,61
800032d8:	80 00       	ld.sh	r0,r0[0x0]
800032da:	33 b0       	mov	r0,59
800032dc:	80 00       	ld.sh	r0,r0[0x0]
800032de:	33 b0       	mov	r0,59
800032e0:	80 00       	ld.sh	r0,r0[0x0]
800032e2:	33 a0       	mov	r0,58
800032e4:	80 00       	ld.sh	r0,r0[0x0]
800032e6:	33 b0       	mov	r0,59
800032e8:	80 00       	ld.sh	r0,r0[0x0]
800032ea:	33 b0       	mov	r0,59
800032ec:	80 00       	ld.sh	r0,r0[0x0]
800032ee:	33 b0       	mov	r0,59
800032f0:	80 00       	ld.sh	r0,r0[0x0]
800032f2:	33 b0       	mov	r0,59
800032f4:	80 00       	ld.sh	r0,r0[0x0]
800032f6:	33 b0       	mov	r0,59
800032f8:	80 00       	ld.sh	r0,r0[0x0]
800032fa:	33 b0       	mov	r0,59
800032fc:	80 00       	ld.sh	r0,r0[0x0]
800032fe:	33 b0       	mov	r0,59
80003300:	80 00       	ld.sh	r0,r0[0x0]
80003302:	33 b0       	mov	r0,59
80003304:	80 00       	ld.sh	r0,r0[0x0]
80003306:	33 b0       	mov	r0,59
80003308:	80 00       	ld.sh	r0,r0[0x0]
8000330a:	33 b0       	mov	r0,59
8000330c:	80 00       	ld.sh	r0,r0[0x0]
8000330e:	33 dc       	mov	r12,61
80003310:	80 00       	ld.sh	r0,r0[0x0]
80003312:	33 ba       	mov	r10,59
80003314:	80 00       	ld.sh	r0,r0[0x0]
80003316:	33 ba       	mov	r10,59
80003318:	80 00       	ld.sh	r0,r0[0x0]
8000331a:	33 ba       	mov	r10,59
8000331c:	80 00       	ld.sh	r0,r0[0x0]
8000331e:	33 ba       	mov	r10,59
80003320:	80 00       	ld.sh	r0,r0[0x0]
80003322:	33 ba       	mov	r10,59
80003324:	80 00       	ld.sh	r0,r0[0x0]
80003326:	33 ba       	mov	r10,59
80003328:	80 00       	ld.sh	r0,r0[0x0]
8000332a:	33 a0       	mov	r0,58
8000332c:	80 00       	ld.sh	r0,r0[0x0]
8000332e:	33 b0       	mov	r0,59
80003330:	80 00       	ld.sh	r0,r0[0x0]
80003332:	33 b0       	mov	r0,59
80003334:	80 00       	ld.sh	r0,r0[0x0]
80003336:	33 b0       	mov	r0,59
80003338:	80 00       	ld.sh	r0,r0[0x0]
8000333a:	33 b0       	mov	r0,59
8000333c:	80 00       	ld.sh	r0,r0[0x0]
8000333e:	33 b0       	mov	r0,59
80003340:	80 00       	ld.sh	r0,r0[0x0]
80003342:	33 dc       	mov	r12,61
80003344:	80 00       	ld.sh	r0,r0[0x0]
80003346:	33 b0       	mov	r0,59
80003348:	80 00       	ld.sh	r0,r0[0x0]
8000334a:	33 ba       	mov	r10,59
8000334c:	80 00       	ld.sh	r0,r0[0x0]
8000334e:	33 b6       	mov	r6,59
80003350:	80 00       	ld.sh	r0,r0[0x0]
80003352:	33 a0       	mov	r0,58
80003354:	80 00       	ld.sh	r0,r0[0x0]
80003356:	33 dc       	mov	r12,61
80003358:	80 00       	ld.sh	r0,r0[0x0]
8000335a:	33 ba       	mov	r10,59
8000335c:	80 00       	ld.sh	r0,r0[0x0]
8000335e:	33 ba       	mov	r10,59
80003360:	80 00       	ld.sh	r0,r0[0x0]
80003362:	33 dc       	mov	r12,61
80003364:	80 00       	ld.sh	r0,r0[0x0]
80003366:	33 dc       	mov	r12,61
80003368:	80 00       	ld.sh	r0,r0[0x0]
8000336a:	33 b0       	mov	r0,59
8000336c:	80 00       	ld.sh	r0,r0[0x0]
8000336e:	33 a0       	mov	r0,58
80003370:	80 00       	ld.sh	r0,r0[0x0]
80003372:	33 a0       	mov	r0,58
80003374:	80 00       	ld.sh	r0,r0[0x0]
80003376:	33 a0       	mov	r0,58
80003378:	80 00       	ld.sh	r0,r0[0x0]
8000337a:	33 a0       	mov	r0,58
8000337c:	80 00       	ld.sh	r0,r0[0x0]
8000337e:	33 a0       	mov	r0,58
80003380:	80 00       	ld.sh	r0,r0[0x0]
80003382:	33 a0       	mov	r0,58
80003384:	80 00       	ld.sh	r0,r0[0x0]
80003386:	33 a0       	mov	r0,58
80003388:	80 00       	ld.sh	r0,r0[0x0]
8000338a:	33 a0       	mov	r0,58
8000338c:	80 00       	ld.sh	r0,r0[0x0]
8000338e:	33 b0       	mov	r0,59
80003390:	80 00       	ld.sh	r0,r0[0x0]
80003392:	33 a0       	mov	r0,58
80003394:	80 00       	ld.sh	r0,r0[0x0]
80003396:	33 dc       	mov	r12,61
80003398:	80 00       	ld.sh	r0,r0[0x0]
8000339a:	33 b0       	mov	r0,59
8000339c:	80 00       	ld.sh	r0,r0[0x0]
8000339e:	33 b0       	mov	r0,59
800033a0:	58 09       	cp.w	r9,0
800033a2:	5f 0e       	sreq	lr
800033a4:	58 0a       	cp.w	r10,0
800033a6:	5f 08       	sreq	r8
800033a8:	fd e8 10 08 	or	r8,lr,r8
800033ac:	c0 70       	breq	800033ba <d_make_comp+0x116>
800033ae:	c1 78       	rjmp	800033dc <d_make_comp+0x138>
800033b0:	58 0a       	cp.w	r10,0
800033b2:	c0 41       	brne	800033ba <d_make_comp+0x116>
800033b4:	c1 48       	rjmp	800033dc <d_make_comp+0x138>
800033b6:	58 09       	cp.w	r9,0
800033b8:	c1 20       	breq	800033dc <d_make_comp+0x138>
800033ba:	78 58       	ld.w	r8,r12[0x14]
800033bc:	78 6e       	ld.w	lr,r12[0x18]
800033be:	1c 38       	cp.w	r8,lr
800033c0:	c0 e4       	brge	800033dc <d_make_comp+0x138>
800033c2:	f0 ce ff ff 	sub	lr,r8,-1
800033c6:	99 5e       	st.w	r12[0x14],lr
800033c8:	f0 08 00 18 	add	r8,r8,r8<<0x1
800033cc:	78 4e       	ld.w	lr,r12[0x10]
800033ce:	fc 08 00 2c 	add	r12,lr,r8<<0x2
800033d2:	c0 60       	breq	800033de <d_make_comp+0x13a>
800033d4:	99 0b       	st.w	r12[0x0],r11
800033d6:	99 1a       	st.w	r12[0x4],r10
800033d8:	99 29       	st.w	r12[0x8],r9
800033da:	d8 02       	popm	pc
800033dc:	30 0c       	mov	r12,0
800033de:	d8 02       	popm	pc
800033e0:	80 00       	ld.sh	r0,r0[0x0]
800033e2:	32 b8       	mov	r8,43

800033e4 <d_make_name>:
800033e4:	78 58       	ld.w	r8,r12[0x14]
800033e6:	78 69       	ld.w	r9,r12[0x18]
800033e8:	12 38       	cp.w	r8,r9
800033ea:	c0 35       	brlt	800033f0 <d_make_name+0xc>
800033ec:	30 0c       	mov	r12,0
800033ee:	c0 98       	rjmp	80003400 <d_make_name+0x1c>
800033f0:	f0 c9 ff ff 	sub	r9,r8,-1
800033f4:	f0 08 00 18 	add	r8,r8,r8<<0x1
800033f8:	99 59       	st.w	r12[0x14],r9
800033fa:	78 49       	ld.w	r9,r12[0x10]
800033fc:	f2 08 00 2c 	add	r12,r9,r8<<0x2
80003400:	58 0c       	cp.w	r12,0
80003402:	5f 09       	sreq	r9
80003404:	58 0b       	cp.w	r11,0
80003406:	5f 08       	sreq	r8
80003408:	f3 e8 10 08 	or	r8,r9,r8
8000340c:	c0 71       	brne	8000341a <d_make_name+0x36>
8000340e:	58 0a       	cp.w	r10,0
80003410:	c0 50       	breq	8000341a <d_make_name+0x36>
80003412:	99 1b       	st.w	r12[0x4],r11
80003414:	99 2a       	st.w	r12[0x8],r10
80003416:	99 08       	st.w	r12[0x0],r8
80003418:	5e fc       	retal	r12
8000341a:	5e fd       	retal	0

8000341c <d_number>:
8000341c:	d4 01       	pushm	lr
8000341e:	36 ea       	mov	r10,110
80003420:	78 38       	ld.w	r8,r12[0xc]
80003422:	11 89       	ld.ub	r9,r8[0x0]
80003424:	f4 09 18 00 	cp.b	r9,r10
80003428:	c0 30       	breq	8000342e <d_number+0x12>
8000342a:	30 0a       	mov	r10,0
8000342c:	c0 58       	rjmp	80003436 <d_number+0x1a>
8000342e:	2f f8       	sub	r8,-1
80003430:	30 1a       	mov	r10,1
80003432:	99 38       	st.w	r12[0xc],r8
80003434:	11 89       	ld.ub	r9,r8[0x0]
80003436:	30 08       	mov	r8,0
80003438:	30 9b       	mov	r11,9
8000343a:	f0 08 00 2e 	add	lr,r8,r8<<0x2
8000343e:	f2 0e 00 1e 	add	lr,r9,lr<<0x1
80003442:	23 09       	sub	r9,48
80003444:	f6 09 18 00 	cp.b	r9,r11
80003448:	e0 88 00 09 	brls	8000345a <d_number+0x3e>
8000344c:	f0 09 11 00 	rsub	r9,r8,0
80003450:	58 0a       	cp.w	r10,0
80003452:	f2 08 17 10 	movne	r8,r9
80003456:	10 9c       	mov	r12,r8
80003458:	d8 02       	popm	pc
8000345a:	78 39       	ld.w	r9,r12[0xc]
8000345c:	fc c8 00 30 	sub	r8,lr,48
80003460:	2f f9       	sub	r9,-1
80003462:	99 39       	st.w	r12[0xc],r9
80003464:	13 89       	ld.ub	r9,r9[0x0]
80003466:	ce ab       	rjmp	8000343a <d_number+0x1e>

80003468 <d_call_offset>:
80003468:	d4 21       	pushm	r4-r7,lr
8000346a:	18 97       	mov	r7,r12
8000346c:	58 0b       	cp.w	r11,0
8000346e:	c0 71       	brne	8000347c <d_call_offset+0x14>
80003470:	78 38       	ld.w	r8,r12[0xc]
80003472:	11 8b       	ld.ub	r11,r8[0x0]
80003474:	58 0b       	cp.w	r11,0
80003476:	c1 f0       	breq	800034b4 <d_call_offset+0x4c>
80003478:	2f f8       	sub	r8,-1
8000347a:	99 38       	st.w	r12[0xc],r8
8000347c:	e0 4b 00 68 	cp.w	r11,104
80003480:	c0 e0       	breq	8000349c <d_call_offset+0x34>
80003482:	e0 4b 00 76 	cp.w	r11,118
80003486:	c1 71       	brne	800034b4 <d_call_offset+0x4c>
80003488:	0e 9c       	mov	r12,r7
8000348a:	cc 9f       	rcall	8000341c <d_number>
8000348c:	6e 38       	ld.w	r8,r7[0xc]
8000348e:	35 f9       	mov	r9,95
80003490:	11 8a       	ld.ub	r10,r8[0x0]
80003492:	f2 0a 18 00 	cp.b	r10,r9
80003496:	c0 f1       	brne	800034b4 <d_call_offset+0x4c>
80003498:	2f f8       	sub	r8,-1
8000349a:	8f 38       	st.w	r7[0xc],r8
8000349c:	0e 9c       	mov	r12,r7
8000349e:	cb ff       	rcall	8000341c <d_number>
800034a0:	6e 38       	ld.w	r8,r7[0xc]
800034a2:	35 f9       	mov	r9,95
800034a4:	11 8a       	ld.ub	r10,r8[0x0]
800034a6:	f2 0a 18 00 	cp.b	r10,r9
800034aa:	c0 51       	brne	800034b4 <d_call_offset+0x4c>
800034ac:	2f f8       	sub	r8,-1
800034ae:	30 1c       	mov	r12,1
800034b0:	8f 38       	st.w	r7[0xc],r8
800034b2:	d8 22       	popm	r4-r7,pc
800034b4:	d8 2a       	popm	r4-r7,pc,r12=0
	...

800034b8 <d_cv_qualifiers>:
800034b8:	d4 31       	pushm	r0-r7,lr
800034ba:	20 1d       	sub	sp,4
800034bc:	78 38       	ld.w	r8,r12[0xc]
800034be:	18 97       	mov	r7,r12
800034c0:	11 89       	ld.ub	r9,r8[0x0]
800034c2:	16 96       	mov	r6,r11
800034c4:	58 0a       	cp.w	r10,0
800034c6:	f9 b1 01 1a 	movne	r1,26
800034ca:	f9 b1 00 17 	moveq	r1,23
800034ce:	37 24       	mov	r4,114
800034d0:	35 65       	mov	r5,86
800034d2:	30 03       	mov	r3,0
800034d4:	34 b2       	mov	r2,75
800034d6:	f9 b0 01 1c 	movne	r0,28
800034da:	f9 b0 00 19 	moveq	r0,25
800034de:	f9 b8 01 1b 	movne	r8,27
800034e2:	f9 b8 00 18 	moveq	r8,24
800034e6:	c2 48       	rjmp	8000352e <d_cv_qualifiers+0x76>
800034e8:	6e 39       	ld.w	r9,r7[0xc]
800034ea:	2f f9       	sub	r9,-1
800034ec:	8f 39       	st.w	r7[0xc],r9
800034ee:	58 0b       	cp.w	r11,0
800034f0:	c0 60       	breq	800034fc <d_cv_qualifiers+0x44>
800034f2:	6e c9       	ld.w	r9,r7[0x30]
800034f4:	02 9b       	mov	r11,r1
800034f6:	2f 79       	sub	r9,-9
800034f8:	8f c9       	st.w	r7[0x30],r9
800034fa:	c0 c8       	rjmp	80003512 <d_cv_qualifiers+0x5a>
800034fc:	58 0a       	cp.w	r10,0
800034fe:	c0 60       	breq	8000350a <d_cv_qualifiers+0x52>
80003500:	6e c9       	ld.w	r9,r7[0x30]
80003502:	10 9b       	mov	r11,r8
80003504:	2f 79       	sub	r9,-9
80003506:	8f c9       	st.w	r7[0x30],r9
80003508:	c0 58       	rjmp	80003512 <d_cv_qualifiers+0x5a>
8000350a:	6e c9       	ld.w	r9,r7[0x30]
8000350c:	00 9b       	mov	r11,r0
8000350e:	2f a9       	sub	r9,-6
80003510:	8f c9       	st.w	r7[0x30],r9
80003512:	30 09       	mov	r9,0
80003514:	50 08       	stdsp	sp[0x0],r8
80003516:	0e 9c       	mov	r12,r7
80003518:	12 9a       	mov	r10,r9
8000351a:	cc 5e       	rcall	800032a4 <d_make_comp>
8000351c:	8d 0c       	st.w	r6[0x0],r12
8000351e:	40 08       	lddsp	r8,sp[0x0]
80003520:	c0 31       	brne	80003526 <d_cv_qualifiers+0x6e>
80003522:	18 96       	mov	r6,r12
80003524:	c1 38       	rjmp	8000354a <d_cv_qualifiers+0x92>
80003526:	6e 39       	ld.w	r9,r7[0xc]
80003528:	f8 c6 ff fc 	sub	r6,r12,-4
8000352c:	13 89       	ld.ub	r9,r9[0x0]
8000352e:	e8 09 18 00 	cp.b	r9,r4
80003532:	5f 0b       	sreq	r11
80003534:	ea 09 18 00 	cp.b	r9,r5
80003538:	5f 0a       	sreq	r10
8000353a:	f5 eb 10 0c 	or	r12,r10,r11
8000353e:	e6 0c 18 00 	cp.b	r12,r3
80003542:	cd 31       	brne	800034e8 <d_cv_qualifiers+0x30>
80003544:	e4 09 18 00 	cp.b	r9,r2
80003548:	cd 00       	breq	800034e8 <d_cv_qualifiers+0x30>
8000354a:	0c 9c       	mov	r12,r6
8000354c:	2f fd       	sub	sp,-4
8000354e:	d8 32       	popm	r0-r7,pc

80003550 <d_template_param>:
80003550:	d4 21       	pushm	r4-r7,lr
80003552:	35 49       	mov	r9,84
80003554:	78 38       	ld.w	r8,r12[0xc]
80003556:	18 97       	mov	r7,r12
80003558:	11 8a       	ld.ub	r10,r8[0x0]
8000355a:	f2 0a 18 00 	cp.b	r10,r9
8000355e:	c2 a1       	brne	800035b2 <d_template_param+0x62>
80003560:	2f f8       	sub	r8,-1
80003562:	99 38       	st.w	r12[0xc],r8
80003564:	11 89       	ld.ub	r9,r8[0x0]
80003566:	35 f8       	mov	r8,95
80003568:	f0 09 18 00 	cp.b	r9,r8
8000356c:	c0 31       	brne	80003572 <d_template_param+0x22>
8000356e:	30 08       	mov	r8,0
80003570:	c0 58       	rjmp	8000357a <d_template_param+0x2a>
80003572:	c5 5f       	rcall	8000341c <d_number>
80003574:	c1 f5       	brlt	800035b2 <d_template_param+0x62>
80003576:	f8 c8 ff ff 	sub	r8,r12,-1
8000357a:	6e 39       	ld.w	r9,r7[0xc]
8000357c:	35 fa       	mov	r10,95
8000357e:	13 8b       	ld.ub	r11,r9[0x0]
80003580:	f4 0b 18 00 	cp.b	r11,r10
80003584:	c1 71       	brne	800035b2 <d_template_param+0x62>
80003586:	2f f9       	sub	r9,-1
80003588:	8f 39       	st.w	r7[0xc],r9
8000358a:	6e a9       	ld.w	r9,r7[0x28]
8000358c:	2f f9       	sub	r9,-1
8000358e:	8f a9       	st.w	r7[0x28],r9
80003590:	6e 5c       	ld.w	r12,r7[0x14]
80003592:	6e 69       	ld.w	r9,r7[0x18]
80003594:	12 3c       	cp.w	r12,r9
80003596:	c0 e4       	brge	800035b2 <d_template_param+0x62>
80003598:	f8 c9 ff ff 	sub	r9,r12,-1
8000359c:	8f 59       	st.w	r7[0x14],r9
8000359e:	f8 0c 00 1c 	add	r12,r12,r12<<0x1
800035a2:	6e 49       	ld.w	r9,r7[0x10]
800035a4:	f2 0c 00 2c 	add	r12,r9,r12<<0x2
800035a8:	c0 60       	breq	800035b4 <d_template_param+0x64>
800035aa:	99 18       	st.w	r12[0x4],r8
800035ac:	30 58       	mov	r8,5
800035ae:	99 08       	st.w	r12[0x0],r8
800035b0:	d8 22       	popm	r4-r7,pc
800035b2:	30 0c       	mov	r12,0
800035b4:	d8 22       	popm	r4-r7,pc
	...

800035b8 <d_substitution>:
800035b8:	d4 21       	pushm	r4-r7,lr
800035ba:	35 39       	mov	r9,83
800035bc:	18 98       	mov	r8,r12
800035be:	78 3a       	ld.w	r10,r12[0xc]
800035c0:	15 8c       	ld.ub	r12,r10[0x0]
800035c2:	f2 0c 18 00 	cp.b	r12,r9
800035c6:	e0 81 00 af 	brne	80003724 <d_substitution+0x16c>
800035ca:	2f fa       	sub	r10,-1
800035cc:	91 3a       	st.w	r8[0xc],r10
800035ce:	15 89       	ld.ub	r9,r10[0x0]
800035d0:	58 09       	cp.w	r9,0
800035d2:	c0 30       	breq	800035d8 <d_substitution+0x20>
800035d4:	2f fa       	sub	r10,-1
800035d6:	91 3a       	st.w	r8[0xc],r10
800035d8:	f2 cc 00 30 	sub	r12,r9,48
800035dc:	30 9a       	mov	r10,9
800035de:	f4 0c 18 00 	cp.b	r12,r10
800035e2:	5f 8e       	srls	lr
800035e4:	35 fc       	mov	r12,95
800035e6:	f8 09 18 00 	cp.b	r9,r12
800035ea:	5f 0a       	sreq	r10
800035ec:	fd ea 10 0a 	or	r10,lr,r10
800035f0:	30 0e       	mov	lr,0
800035f2:	fc 0a 18 00 	cp.b	r10,lr
800035f6:	c0 91       	brne	80003608 <d_substitution+0x50>
800035f8:	f2 ce 00 41 	sub	lr,r9,65
800035fc:	31 9c       	mov	r12,25
800035fe:	f8 0e 18 00 	cp.b	lr,r12
80003602:	e0 88 00 08 	brls	80003612 <d_substitution+0x5a>
80003606:	c3 b8       	rjmp	8000367c <d_substitution+0xc4>
80003608:	f8 09 18 00 	cp.b	r9,r12
8000360c:	c0 31       	brne	80003612 <d_substitution+0x5a>
8000360e:	30 0b       	mov	r11,0
80003610:	c2 c8       	rjmp	80003668 <d_substitution+0xb0>
80003612:	30 0a       	mov	r10,0
80003614:	30 97       	mov	r7,9
80003616:	31 9e       	mov	lr,25
80003618:	35 fc       	mov	r12,95
8000361a:	f2 cb 00 30 	sub	r11,r9,48
8000361e:	ee 0b 18 00 	cp.b	r11,r7
80003622:	e0 8b 00 09 	brhi	80003634 <d_substitution+0x7c>
80003626:	f4 0a 00 3b 	add	r11,r10,r10<<0x3
8000362a:	f2 0b 00 29 	add	r9,r9,r11<<0x2
8000362e:	f2 cb 00 30 	sub	r11,r9,48
80003632:	c0 d8       	rjmp	8000364c <d_substitution+0x94>
80003634:	f2 cb 00 41 	sub	r11,r9,65
80003638:	fc 0b 18 00 	cp.b	r11,lr
8000363c:	e0 8b 00 74 	brhi	80003724 <d_substitution+0x16c>
80003640:	f4 0a 00 3b 	add	r11,r10,r10<<0x3
80003644:	f2 0b 00 29 	add	r9,r9,r11<<0x2
80003648:	f2 cb 00 37 	sub	r11,r9,55
8000364c:	14 3b       	cp.w	r11,r10
8000364e:	c6 b3       	brcs	80003724 <d_substitution+0x16c>
80003650:	70 39       	ld.w	r9,r8[0xc]
80003652:	16 9a       	mov	r10,r11
80003654:	f2 c6 ff ff 	sub	r6,r9,-1
80003658:	13 89       	ld.ub	r9,r9[0x0]
8000365a:	58 09       	cp.w	r9,0
8000365c:	cd f0       	breq	8000361a <d_substitution+0x62>
8000365e:	91 36       	st.w	r8[0xc],r6
80003660:	f8 09 18 00 	cp.b	r9,r12
80003664:	cd b1       	brne	8000361a <d_substitution+0x62>
80003666:	2f fb       	sub	r11,-1
80003668:	70 89       	ld.w	r9,r8[0x20]
8000366a:	12 3b       	cp.w	r11,r9
8000366c:	c5 c2       	brcc	80003724 <d_substitution+0x16c>
8000366e:	70 79       	ld.w	r9,r8[0x1c]
80003670:	f2 0b 03 2c 	ld.w	r12,r9[r11<<0x2]
80003674:	70 a9       	ld.w	r9,r8[0x28]
80003676:	2f f9       	sub	r9,-1
80003678:	91 a9       	st.w	r8[0x28],r9
8000367a:	d8 22       	popm	r4-r7,pc
8000367c:	58 0b       	cp.w	r11,0
8000367e:	5f 1e       	srne	lr
80003680:	70 2b       	ld.w	r11,r8[0x8]
80003682:	f7 db c0 61 	bfextu	r11,r11,0x3,0x1
80003686:	16 9c       	mov	r12,r11
80003688:	ec 1c 00 01 	eorl	r12,0x1
8000368c:	fd ec 00 0c 	and	r12,lr,r12
80003690:	f4 0c 18 00 	cp.b	r12,r10
80003694:	c0 80       	breq	800036a4 <d_substitution+0xec>
80003696:	70 3a       	ld.w	r10,r8[0xc]
80003698:	15 8b       	ld.ub	r11,r10[0x0]
8000369a:	30 1a       	mov	r10,1
8000369c:	24 3b       	sub	r11,67
8000369e:	f4 0b 18 00 	cp.b	r11,r10
800036a2:	5f 8b       	srls	r11
800036a4:	4a 1c       	lddpc	r12,80003728 <d_substitution+0x170>
800036a6:	18 9a       	mov	r10,r12
800036a8:	f8 cc ff 3c 	sub	r12,r12,-196
800036ac:	c3 a8       	rjmp	80003720 <d_substitution+0x168>
800036ae:	15 8e       	ld.ub	lr,r10[0x0]
800036b0:	f2 0e 18 00 	cp.b	lr,r9
800036b4:	c3 51       	brne	8000371e <d_substitution+0x166>
800036b6:	74 5c       	ld.w	r12,r10[0x14]
800036b8:	58 0c       	cp.w	r12,0
800036ba:	c1 60       	breq	800036e6 <d_substitution+0x12e>
800036bc:	74 6e       	ld.w	lr,r10[0x18]
800036be:	70 59       	ld.w	r9,r8[0x14]
800036c0:	70 67       	ld.w	r7,r8[0x18]
800036c2:	0e 39       	cp.w	r9,r7
800036c4:	c0 35       	brlt	800036ca <d_substitution+0x112>
800036c6:	30 09       	mov	r9,0
800036c8:	c0 e8       	rjmp	800036e4 <d_substitution+0x12c>
800036ca:	f2 c7 ff ff 	sub	r7,r9,-1
800036ce:	91 57       	st.w	r8[0x14],r7
800036d0:	f2 09 00 19 	add	r9,r9,r9<<0x1
800036d4:	70 47       	ld.w	r7,r8[0x10]
800036d6:	ee 09 00 29 	add	r9,r7,r9<<0x2
800036da:	c0 50       	breq	800036e4 <d_substitution+0x12c>
800036dc:	93 1c       	st.w	r9[0x4],r12
800036de:	93 2e       	st.w	r9[0x8],lr
800036e0:	31 6c       	mov	r12,22
800036e2:	93 0c       	st.w	r9[0x0],r12
800036e4:	91 b9       	st.w	r8[0x2c],r9
800036e6:	58 0b       	cp.w	r11,0
800036e8:	c0 40       	breq	800036f0 <d_substitution+0x138>
800036ea:	74 49       	ld.w	r9,r10[0x10]
800036ec:	74 3a       	ld.w	r10,r10[0xc]
800036ee:	c0 38       	rjmp	800036f4 <d_substitution+0x13c>
800036f0:	74 29       	ld.w	r9,r10[0x8]
800036f2:	74 1a       	ld.w	r10,r10[0x4]
800036f4:	70 cb       	ld.w	r11,r8[0x30]
800036f6:	12 0b       	add	r11,r9
800036f8:	91 cb       	st.w	r8[0x30],r11
800036fa:	70 5c       	ld.w	r12,r8[0x14]
800036fc:	70 6b       	ld.w	r11,r8[0x18]
800036fe:	16 3c       	cp.w	r12,r11
80003700:	c1 24       	brge	80003724 <d_substitution+0x16c>
80003702:	f8 cb ff ff 	sub	r11,r12,-1
80003706:	91 5b       	st.w	r8[0x14],r11
80003708:	f8 0c 00 1c 	add	r12,r12,r12<<0x1
8000370c:	70 48       	ld.w	r8,r8[0x10]
8000370e:	f0 0c 00 2c 	add	r12,r8,r12<<0x2
80003712:	c0 a0       	breq	80003726 <d_substitution+0x16e>
80003714:	31 68       	mov	r8,22
80003716:	99 1a       	st.w	r12[0x4],r10
80003718:	99 29       	st.w	r12[0x8],r9
8000371a:	99 08       	st.w	r12[0x0],r8
8000371c:	d8 22       	popm	r4-r7,pc
8000371e:	2e 4a       	sub	r10,-28
80003720:	18 3a       	cp.w	r10,r12
80003722:	cc 61       	brne	800036ae <d_substitution+0xf6>
80003724:	30 0c       	mov	r12,0
80003726:	d8 22       	popm	r4-r7,pc
80003728:	80 00       	ld.sh	r0,r0[0x0]
8000372a:	5e bc       	rethi	r12

8000372c <d_append_char>:
8000372c:	d4 21       	pushm	r4-r7,lr
8000372e:	16 96       	mov	r6,r11
80003730:	18 97       	mov	r7,r12
80003732:	f8 fb 01 04 	ld.w	r11,r12[260]
80003736:	e0 4b 00 ff 	cp.w	r11,255
8000373a:	c1 21       	brne	8000375e <d_append_char+0x32>
8000373c:	30 08       	mov	r8,0
8000373e:	f8 fa 01 10 	ld.w	r10,r12[272]
80003742:	f9 68 01 03 	st.b	r12[259],r8
80003746:	f8 f8 01 0c 	ld.w	r8,r12[268]
8000374a:	2f cc       	sub	r12,-4
8000374c:	5d 18       	icall	r8
8000374e:	ee f8 01 24 	ld.w	r8,r7[292]
80003752:	2f f8       	sub	r8,-1
80003754:	ef 48 01 24 	st.w	r7[292],r8
80003758:	30 08       	mov	r8,0
8000375a:	ef 48 01 04 	st.w	r7[260],r8
8000375e:	ee f8 01 04 	ld.w	r8,r7[260]
80003762:	ef 66 01 08 	st.b	r7[264],r6
80003766:	f0 c9 ff ff 	sub	r9,r8,-1
8000376a:	ef 49 01 04 	st.w	r7[260],r9
8000376e:	10 07       	add	r7,r8
80003770:	ae c6       	st.b	r7[0x4],r6
80003772:	d8 22       	popm	r4-r7,pc

80003774 <d_append_buffer>:
80003774:	d4 21       	pushm	r4-r7,lr
80003776:	30 05       	mov	r5,0
80003778:	18 96       	mov	r6,r12
8000377a:	16 97       	mov	r7,r11
8000377c:	14 94       	mov	r4,r10
8000377e:	c0 68       	rjmp	8000378a <d_append_buffer+0x16>
80003780:	ee 05 07 0b 	ld.ub	r11,r7[r5]
80003784:	0c 9c       	mov	r12,r6
80003786:	2f f5       	sub	r5,-1
80003788:	cd 2f       	rcall	8000372c <d_append_char>
8000378a:	08 35       	cp.w	r5,r4
8000378c:	cf a3       	brcs	80003780 <d_append_buffer+0xc>
8000378e:	d8 22       	popm	r4-r7,pc

80003790 <d_find_pack>:
80003790:	d4 21       	pushm	r4-r7,lr
80003792:	18 96       	mov	r6,r12
80003794:	16 97       	mov	r7,r11
80003796:	58 07       	cp.w	r7,0
80003798:	c5 20       	breq	8000383c <d_find_pack+0xac>
8000379a:	6e 08       	ld.w	r8,r7[0x0]
8000379c:	59 68       	cp.w	r8,22
8000379e:	c4 f0       	breq	8000383c <d_find_pack+0xac>
800037a0:	e0 8b 00 10 	brhi	800037c0 <d_find_pack+0x30>
800037a4:	58 68       	cp.w	r8,6
800037a6:	c4 b0       	breq	8000383c <d_find_pack+0xac>
800037a8:	e0 8b 00 07 	brhi	800037b6 <d_find_pack+0x26>
800037ac:	58 08       	cp.w	r8,0
800037ae:	c4 70       	breq	8000383c <d_find_pack+0xac>
800037b0:	58 58       	cp.w	r8,5
800037b2:	c3 f1       	brne	80003830 <d_find_pack+0xa0>
800037b4:	c1 98       	rjmp	800037e6 <d_find_pack+0x56>
800037b6:	58 78       	cp.w	r8,7
800037b8:	c4 00       	breq	80003838 <d_find_pack+0xa8>
800037ba:	58 88       	cp.w	r8,8
800037bc:	c3 a1       	brne	80003830 <d_find_pack+0xa0>
800037be:	c3 d8       	rjmp	80003838 <d_find_pack+0xa8>
800037c0:	e0 48 00 2c 	cp.w	r8,44
800037c4:	c3 a0       	breq	80003838 <d_find_pack+0xa8>
800037c6:	e0 8b 00 09 	brhi	800037d8 <d_find_pack+0x48>
800037ca:	e0 48 00 23 	cp.w	r8,35
800037ce:	c3 70       	breq	8000383c <d_find_pack+0xac>
800037d0:	e0 48 00 2b 	cp.w	r8,43
800037d4:	c2 e1       	brne	80003830 <d_find_pack+0xa0>
800037d6:	c3 38       	rjmp	8000383c <d_find_pack+0xac>
800037d8:	e0 48 00 38 	cp.w	r8,56
800037dc:	c3 00       	breq	8000383c <d_find_pack+0xac>
800037de:	e0 48 00 3a 	cp.w	r8,58
800037e2:	c2 71       	brne	80003830 <d_find_pack+0xa0>
800037e4:	c2 c8       	rjmp	8000383c <d_find_pack+0xac>
800037e6:	ec fc 01 14 	ld.w	r12,r6[276]
800037ea:	58 0c       	cp.w	r12,0
800037ec:	c0 51       	brne	800037f6 <d_find_pack+0x66>
800037ee:	30 18       	mov	r8,1
800037f0:	ed 48 01 1c 	st.w	r6[284],r8
800037f4:	d8 22       	popm	r4-r7,pc
800037f6:	78 18       	ld.w	r8,r12[0x4]
800037f8:	6e 19       	ld.w	r9,r7[0x4]
800037fa:	c0 98       	rjmp	8000380c <d_find_pack+0x7c>
800037fc:	70 0a       	ld.w	r10,r8[0x0]
800037fe:	e0 4a 00 2a 	cp.w	r10,42
80003802:	c1 d1       	brne	8000383c <d_find_pack+0xac>
80003804:	58 09       	cp.w	r9,0
80003806:	e0 8a 00 06 	brle	80003812 <d_find_pack+0x82>
8000380a:	20 19       	sub	r9,1
8000380c:	70 28       	ld.w	r8,r8[0x8]
8000380e:	58 08       	cp.w	r8,0
80003810:	cf 61       	brne	800037fc <d_find_pack+0x6c>
80003812:	58 09       	cp.w	r9,0
80003814:	5f 19       	srne	r9
80003816:	58 08       	cp.w	r8,0
80003818:	5f 0a       	sreq	r10
8000381a:	f5 e9 10 09 	or	r9,r10,r9
8000381e:	c0 f1       	brne	8000383c <d_find_pack+0xac>
80003820:	70 1c       	ld.w	r12,r8[0x4]
80003822:	58 0c       	cp.w	r12,0
80003824:	c0 d0       	breq	8000383e <d_find_pack+0xae>
80003826:	78 08       	ld.w	r8,r12[0x0]
80003828:	e0 48 00 2a 	cp.w	r8,42
8000382c:	c0 81       	brne	8000383c <d_find_pack+0xac>
8000382e:	d8 22       	popm	r4-r7,pc
80003830:	6e 1b       	ld.w	r11,r7[0x4]
80003832:	0c 9c       	mov	r12,r6
80003834:	ca ef       	rcall	80003790 <d_find_pack>
80003836:	c0 41       	brne	8000383e <d_find_pack+0xae>
80003838:	6e 27       	ld.w	r7,r7[0x8]
8000383a:	ca eb       	rjmp	80003796 <d_find_pack+0x6>
8000383c:	30 0c       	mov	r12,0
8000383e:	d8 22       	popm	r4-r7,pc

80003840 <d_append_string>:
80003840:	d4 21       	pushm	r4-r7,lr
80003842:	20 1d       	sub	sp,4
80003844:	18 97       	mov	r7,r12
80003846:	50 0b       	stdsp	sp[0x0],r11
80003848:	16 9c       	mov	r12,r11
8000384a:	f0 1f 00 05 	mcall	8000385c <d_append_string+0x1c>
8000384e:	40 0b       	lddsp	r11,sp[0x0]
80003850:	18 9a       	mov	r10,r12
80003852:	0e 9c       	mov	r12,r7
80003854:	c9 0f       	rcall	80003774 <d_append_buffer>
80003856:	2f fd       	sub	sp,-4
80003858:	d8 22       	popm	r4-r7,pc
8000385a:	00 00       	add	r0,r0
8000385c:	80 00       	ld.sh	r0,r0[0x0]
8000385e:	85 6e       	st.w	r2[0x18],lr

80003860 <d_source_name>:
80003860:	d4 21       	pushm	r4-r7,lr
80003862:	18 97       	mov	r7,r12
80003864:	fe b0 fd dc 	rcall	8000341c <d_number>
80003868:	18 96       	mov	r6,r12
8000386a:	e0 89 00 03 	brgt	80003870 <d_source_name+0x10>
8000386e:	d8 2a       	popm	r4-r7,pc,r12=0
80003870:	6e 35       	ld.w	r5,r7[0xc]
80003872:	6e 18       	ld.w	r8,r7[0x4]
80003874:	0a 18       	sub	r8,r5
80003876:	18 38       	cp.w	r8,r12
80003878:	c0 34       	brge	8000387e <d_source_name+0x1e>
8000387a:	30 0c       	mov	r12,0
8000387c:	c3 d8       	rjmp	800038f6 <d_source_name+0x96>
8000387e:	ea 0c 00 08 	add	r8,r5,r12
80003882:	8f 38       	st.w	r7[0xc],r8
80003884:	6e 29       	ld.w	r9,r7[0x8]
80003886:	ed b9 00 02 	bld	r9,0x2
8000388a:	c0 81       	brne	8000389a <d_source_name+0x3a>
8000388c:	11 8a       	ld.ub	r10,r8[0x0]
8000388e:	32 49       	mov	r9,36
80003890:	f2 0a 18 00 	cp.b	r10,r9
80003894:	c0 31       	brne	8000389a <d_source_name+0x3a>
80003896:	2f f8       	sub	r8,-1
80003898:	8f 38       	st.w	r7[0xc],r8
8000389a:	58 96       	cp.w	r6,9
8000389c:	e0 8a 00 28 	brle	800038ec <d_source_name+0x8c>
800038a0:	30 8a       	mov	r10,8
800038a2:	49 7b       	lddpc	r11,800038fc <d_source_name+0x9c>
800038a4:	0a 9c       	mov	r12,r5
800038a6:	f0 1f 00 17 	mcall	80003900 <d_source_name+0xa0>
800038aa:	c2 11       	brne	800038ec <d_source_name+0x8c>
800038ac:	35 fa       	mov	r10,95
800038ae:	ea c9 ff f8 	sub	r9,r5,-8
800038b2:	13 88       	ld.ub	r8,r9[0x0]
800038b4:	f4 08 18 00 	cp.b	r8,r10
800038b8:	5f 0b       	sreq	r11
800038ba:	32 ea       	mov	r10,46
800038bc:	f4 08 18 00 	cp.b	r8,r10
800038c0:	5f 0a       	sreq	r10
800038c2:	f7 ea 10 0a 	or	r10,r11,r10
800038c6:	f8 0a 18 00 	cp.b	r10,r12
800038ca:	c0 51       	brne	800038d4 <d_source_name+0x74>
800038cc:	32 4a       	mov	r10,36
800038ce:	f4 08 18 00 	cp.b	r8,r10
800038d2:	c0 d1       	brne	800038ec <d_source_name+0x8c>
800038d4:	13 99       	ld.ub	r9,r9[0x1]
800038d6:	34 e8       	mov	r8,78
800038d8:	f0 09 18 00 	cp.b	r9,r8
800038dc:	c0 81       	brne	800038ec <d_source_name+0x8c>
800038de:	6e c8       	ld.w	r8,r7[0x30]
800038e0:	31 5a       	mov	r10,21
800038e2:	2e a8       	sub	r8,-22
800038e4:	48 8b       	lddpc	r11,80003904 <d_source_name+0xa4>
800038e6:	0c 18       	sub	r8,r6
800038e8:	8f c8       	st.w	r7[0x30],r8
800038ea:	c0 38       	rjmp	800038f0 <d_source_name+0x90>
800038ec:	0c 9a       	mov	r10,r6
800038ee:	0a 9b       	mov	r11,r5
800038f0:	0e 9c       	mov	r12,r7
800038f2:	fe b0 fd 79 	rcall	800033e4 <d_make_name>
800038f6:	8f bc       	st.w	r7[0x2c],r12
800038f8:	d8 22       	popm	r4-r7,pc
800038fa:	00 00       	add	r0,r0
800038fc:	80 00       	ld.sh	r0,r0[0x0]
800038fe:	d4 d4       	*unknown*
80003900:	80 00       	ld.sh	r0,r0[0x0]
80003902:	7e 62       	ld.w	r2,pc[0x18]
80003904:	80 00       	ld.sh	r0,r0[0x0]
80003906:	d4 e0       	acall	0x4e

80003908 <d_expression>:
80003908:	d4 21       	pushm	r4-r7,lr
8000390a:	34 ca       	mov	r10,76
8000390c:	78 38       	ld.w	r8,r12[0xc]
8000390e:	18 97       	mov	r7,r12
80003910:	11 89       	ld.ub	r9,r8[0x0]
80003912:	f4 09 18 00 	cp.b	r9,r10
80003916:	c0 41       	brne	8000391e <d_expression+0x16>
80003918:	e0 a0 05 b2 	rcall	8000447c <d_expr_primary>
8000391c:	c0 68       	rjmp	80003928 <d_expression+0x20>
8000391e:	35 4a       	mov	r10,84
80003920:	f4 09 18 00 	cp.b	r9,r10
80003924:	c0 41       	brne	8000392c <d_expression+0x24>
80003926:	c1 5e       	rcall	80003550 <d_template_param>
80003928:	18 96       	mov	r6,r12
8000392a:	cf e8       	rjmp	80003b26 <d_expression+0x21e>
8000392c:	37 3a       	mov	r10,115
8000392e:	f4 09 18 00 	cp.b	r9,r10
80003932:	c3 01       	brne	80003992 <d_expression+0x8a>
80003934:	11 9a       	ld.ub	r10,r8[0x1]
80003936:	37 2b       	mov	r11,114
80003938:	f6 0a 18 00 	cp.b	r10,r11
8000393c:	c1 f1       	brne	8000397a <d_expression+0x72>
8000393e:	2f e8       	sub	r8,-2
80003940:	99 38       	st.w	r12[0xc],r8
80003942:	cf bc       	rcall	80003b38 <d_type>
80003944:	18 96       	mov	r6,r12
80003946:	0e 9c       	mov	r12,r7
80003948:	e0 a0 04 de 	rcall	80004304 <d_unqualified_name>
8000394c:	6e 38       	ld.w	r8,r7[0xc]
8000394e:	18 95       	mov	r5,r12
80003950:	11 89       	ld.ub	r9,r8[0x0]
80003952:	34 98       	mov	r8,73
80003954:	f0 09 18 00 	cp.b	r9,r8
80003958:	c0 30       	breq	8000395e <d_expression+0x56>
8000395a:	18 99       	mov	r9,r12
8000395c:	c0 b8       	rjmp	80003972 <d_expression+0x6a>
8000395e:	0e 9c       	mov	r12,r7
80003960:	e0 a0 05 f4 	rcall	80004548 <d_template_args>
80003964:	18 99       	mov	r9,r12
80003966:	0a 9a       	mov	r10,r5
80003968:	30 4b       	mov	r11,4
8000396a:	0e 9c       	mov	r12,r7
8000396c:	fe b0 fc 9c 	rcall	800032a4 <d_make_comp>
80003970:	18 99       	mov	r9,r12
80003972:	0c 9a       	mov	r10,r6
80003974:	0e 9c       	mov	r12,r7
80003976:	30 1b       	mov	r11,1
80003978:	cb a8       	rjmp	80003aec <d_expression+0x1e4>
8000397a:	37 0b       	mov	r11,112
8000397c:	f6 0a 18 00 	cp.b	r10,r11
80003980:	c3 c1       	brne	800039f8 <d_expression+0xf0>
80003982:	2f e8       	sub	r8,-2
80003984:	99 38       	st.w	r12[0xc],r8
80003986:	cc 1f       	rcall	80003908 <d_expression>
80003988:	30 09       	mov	r9,0
8000398a:	18 9a       	mov	r10,r12
8000398c:	33 ab       	mov	r11,58
8000398e:	0e 9c       	mov	r12,r7
80003990:	ca e8       	rjmp	80003aec <d_expression+0x1e4>
80003992:	36 6a       	mov	r10,102
80003994:	f4 09 18 00 	cp.b	r9,r10
80003998:	c3 01       	brne	800039f8 <d_expression+0xf0>
8000399a:	11 9b       	ld.ub	r11,r8[0x1]
8000399c:	37 0a       	mov	r10,112
8000399e:	f4 0b 18 00 	cp.b	r11,r10
800039a2:	c2 b1       	brne	800039f8 <d_expression+0xf0>
800039a4:	2f e8       	sub	r8,-2
800039a6:	99 38       	st.w	r12[0xc],r8
800039a8:	11 89       	ld.ub	r9,r8[0x0]
800039aa:	35 f8       	mov	r8,95
800039ac:	f0 09 18 00 	cp.b	r9,r8
800039b0:	c0 31       	brne	800039b6 <d_expression+0xae>
800039b2:	30 1c       	mov	r12,1
800039b4:	c0 68       	rjmp	800039c0 <d_expression+0xb8>
800039b6:	fe b0 fd 33 	rcall	8000341c <d_number>
800039ba:	e0 85 00 b5 	brlt	80003b24 <d_expression+0x21c>
800039be:	2f ec       	sub	r12,-2
800039c0:	6e 38       	ld.w	r8,r7[0xc]
800039c2:	35 f9       	mov	r9,95
800039c4:	11 8a       	ld.ub	r10,r8[0x0]
800039c6:	f2 0a 18 00 	cp.b	r10,r9
800039ca:	e0 81 00 ad 	brne	80003b24 <d_expression+0x21c>
800039ce:	2f f8       	sub	r8,-1
800039d0:	8f 38       	st.w	r7[0xc],r8
800039d2:	6e 56       	ld.w	r6,r7[0x14]
800039d4:	6e 68       	ld.w	r8,r7[0x18]
800039d6:	10 36       	cp.w	r6,r8
800039d8:	e0 84 00 a6 	brge	80003b24 <d_expression+0x21c>
800039dc:	ec c8 ff ff 	sub	r8,r6,-1
800039e0:	8f 58       	st.w	r7[0x14],r8
800039e2:	ec 06 00 16 	add	r6,r6,r6<<0x1
800039e6:	6e 48       	ld.w	r8,r7[0x10]
800039e8:	f0 06 00 26 	add	r6,r8,r6<<0x2
800039ec:	e0 80 00 9d 	breq	80003b26 <d_expression+0x21e>
800039f0:	30 68       	mov	r8,6
800039f2:	8d 1c       	st.w	r6[0x4],r12
800039f4:	8d 08       	st.w	r6[0x0],r8
800039f6:	c9 88       	rjmp	80003b26 <d_expression+0x21e>
800039f8:	23 09       	sub	r9,48
800039fa:	30 98       	mov	r8,9
800039fc:	f0 09 18 00 	cp.b	r9,r8
80003a00:	e0 8b 00 17 	brhi	80003a2e <d_expression+0x126>
80003a04:	0e 9c       	mov	r12,r7
80003a06:	e0 a0 04 7f 	rcall	80004304 <d_unqualified_name>
80003a0a:	18 96       	mov	r6,r12
80003a0c:	e0 80 00 8d 	breq	80003b26 <d_expression+0x21e>
80003a10:	6e 38       	ld.w	r8,r7[0xc]
80003a12:	11 89       	ld.ub	r9,r8[0x0]
80003a14:	34 98       	mov	r8,73
80003a16:	f0 09 18 00 	cp.b	r9,r8
80003a1a:	e0 81 00 86 	brne	80003b26 <d_expression+0x21e>
80003a1e:	0e 9c       	mov	r12,r7
80003a20:	e0 a0 05 94 	rcall	80004548 <d_template_args>
80003a24:	0c 9a       	mov	r10,r6
80003a26:	18 99       	mov	r9,r12
80003a28:	30 4b       	mov	r11,4
80003a2a:	0e 9c       	mov	r12,r7
80003a2c:	c6 08       	rjmp	80003aec <d_expression+0x1e4>
80003a2e:	0e 9c       	mov	r12,r7
80003a30:	e0 a0 03 e8 	rcall	80004200 <d_operator_name>
80003a34:	18 96       	mov	r6,r12
80003a36:	c7 70       	breq	80003b24 <d_expression+0x21c>
80003a38:	78 08       	ld.w	r8,r12[0x0]
80003a3a:	e0 48 00 2b 	cp.w	r8,43
80003a3e:	c0 81       	brne	80003a4e <d_expression+0x146>
80003a40:	78 18       	ld.w	r8,r12[0x4]
80003a42:	6e c9       	ld.w	r9,r7[0x30]
80003a44:	70 28       	ld.w	r8,r8[0x8]
80003a46:	f2 08 00 08 	add	r8,r9,r8
80003a4a:	20 28       	sub	r8,2
80003a4c:	8f c8       	st.w	r7[0x30],r8
80003a4e:	6c 05       	ld.w	r5,r6[0x0]
80003a50:	e0 45 00 2b 	cp.w	r5,43
80003a54:	c0 a1       	brne	80003a68 <d_expression+0x160>
80003a56:	6c 18       	ld.w	r8,r6[0x4]
80003a58:	4b 5b       	lddpc	r11,80003b2c <d_expression+0x224>
80003a5a:	70 0c       	ld.w	r12,r8[0x0]
80003a5c:	f0 1f 00 35 	mcall	80003b30 <d_expression+0x228>
80003a60:	c0 d1       	brne	80003a7a <d_expression+0x172>
80003a62:	0e 9c       	mov	r12,r7
80003a64:	c6 ac       	rcall	80003b38 <d_type>
80003a66:	c2 58       	rjmp	80003ab0 <d_expression+0x1a8>
80003a68:	e0 45 00 2c 	cp.w	r5,44
80003a6c:	c0 a0       	breq	80003a80 <d_expression+0x178>
80003a6e:	e0 45 00 2d 	cp.w	r5,45
80003a72:	c1 10       	breq	80003a94 <d_expression+0x18c>
80003a74:	e0 45 00 2b 	cp.w	r5,43
80003a78:	c5 61       	brne	80003b24 <d_expression+0x21c>
80003a7a:	6c 18       	ld.w	r8,r6[0x4]
80003a7c:	70 38       	ld.w	r8,r8[0xc]
80003a7e:	c0 28       	rjmp	80003a82 <d_expression+0x17a>
80003a80:	6c 18       	ld.w	r8,r6[0x4]
80003a82:	58 28       	cp.w	r8,2
80003a84:	c1 b0       	breq	80003aba <d_expression+0x1b2>
80003a86:	58 38       	cp.w	r8,3
80003a88:	c3 50       	breq	80003af2 <d_expression+0x1ea>
80003a8a:	58 18       	cp.w	r8,1
80003a8c:	c4 c1       	brne	80003b24 <d_expression+0x21c>
80003a8e:	e0 45 00 2d 	cp.w	r5,45
80003a92:	c0 d1       	brne	80003aac <d_expression+0x1a4>
80003a94:	6e 38       	ld.w	r8,r7[0xc]
80003a96:	35 f9       	mov	r9,95
80003a98:	11 8a       	ld.ub	r10,r8[0x0]
80003a9a:	f2 0a 18 00 	cp.b	r10,r9
80003a9e:	c0 71       	brne	80003aac <d_expression+0x1a4>
80003aa0:	2f f8       	sub	r8,-1
80003aa2:	0e 9c       	mov	r12,r7
80003aa4:	8f 38       	st.w	r7[0xc],r8
80003aa6:	e0 a0 08 bb 	rcall	80004c1c <d_exprlist>
80003aaa:	c0 38       	rjmp	80003ab0 <d_expression+0x1a8>
80003aac:	0e 9c       	mov	r12,r7
80003aae:	c2 df       	rcall	80003908 <d_expression>
80003ab0:	18 99       	mov	r9,r12
80003ab2:	0c 9a       	mov	r10,r6
80003ab4:	0e 9c       	mov	r12,r7
80003ab6:	32 eb       	mov	r11,46
80003ab8:	c1 a8       	rjmp	80003aec <d_expression+0x1e4>
80003aba:	0e 9c       	mov	r12,r7
80003abc:	c2 6f       	rcall	80003908 <d_expression>
80003abe:	6c 18       	ld.w	r8,r6[0x4]
80003ac0:	18 95       	mov	r5,r12
80003ac2:	49 db       	lddpc	r11,80003b34 <d_expression+0x22c>
80003ac4:	70 0c       	ld.w	r12,r8[0x0]
80003ac6:	f0 1f 00 1b 	mcall	80003b30 <d_expression+0x228>
80003aca:	c0 51       	brne	80003ad4 <d_expression+0x1cc>
80003acc:	0e 9c       	mov	r12,r7
80003ace:	e0 a0 08 a7 	rcall	80004c1c <d_exprlist>
80003ad2:	c0 38       	rjmp	80003ad8 <d_expression+0x1d0>
80003ad4:	0e 9c       	mov	r12,r7
80003ad6:	c1 9f       	rcall	80003908 <d_expression>
80003ad8:	18 99       	mov	r9,r12
80003ada:	0a 9a       	mov	r10,r5
80003adc:	33 0b       	mov	r11,48
80003ade:	0e 9c       	mov	r12,r7
80003ae0:	fe b0 fb e2 	rcall	800032a4 <d_make_comp>
80003ae4:	0c 9a       	mov	r10,r6
80003ae6:	18 99       	mov	r9,r12
80003ae8:	32 fb       	mov	r11,47
80003aea:	0e 9c       	mov	r12,r7
80003aec:	fe b0 fb dc 	rcall	800032a4 <d_make_comp>
80003af0:	c1 cb       	rjmp	80003928 <d_expression+0x20>
80003af2:	0e 9c       	mov	r12,r7
80003af4:	c0 af       	rcall	80003908 <d_expression>
80003af6:	18 95       	mov	r5,r12
80003af8:	0e 9c       	mov	r12,r7
80003afa:	c0 7f       	rcall	80003908 <d_expression>
80003afc:	18 94       	mov	r4,r12
80003afe:	0e 9c       	mov	r12,r7
80003b00:	c0 4f       	rcall	80003908 <d_expression>
80003b02:	08 9a       	mov	r10,r4
80003b04:	18 99       	mov	r9,r12
80003b06:	33 3b       	mov	r11,51
80003b08:	0e 9c       	mov	r12,r7
80003b0a:	fe b0 fb cd 	rcall	800032a4 <d_make_comp>
80003b0e:	0a 9a       	mov	r10,r5
80003b10:	18 99       	mov	r9,r12
80003b12:	33 2b       	mov	r11,50
80003b14:	0e 9c       	mov	r12,r7
80003b16:	fe b0 fb c7 	rcall	800032a4 <d_make_comp>
80003b1a:	0c 9a       	mov	r10,r6
80003b1c:	18 99       	mov	r9,r12
80003b1e:	33 1b       	mov	r11,49
80003b20:	0e 9c       	mov	r12,r7
80003b22:	ce 5b       	rjmp	80003aec <d_expression+0x1e4>
80003b24:	30 06       	mov	r6,0
80003b26:	0c 9c       	mov	r12,r6
80003b28:	d8 22       	popm	r4-r7,pc
80003b2a:	00 00       	add	r0,r0
80003b2c:	80 00       	ld.sh	r0,r0[0x0]
80003b2e:	d6 fc       	*unknown*
80003b30:	80 00       	ld.sh	r0,r0[0x0]
80003b32:	84 b4       	ld.uh	r4,r2[0x6]
80003b34:	80 00       	ld.sh	r0,r0[0x0]
80003b36:	d4 f8       	*unknown*

80003b38 <d_type>:
80003b38:	d4 21       	pushm	r4-r7,lr
80003b3a:	20 2d       	sub	sp,8
80003b3c:	35 69       	mov	r9,86
80003b3e:	78 3b       	ld.w	r11,r12[0xc]
80003b40:	18 97       	mov	r7,r12
80003b42:	17 88       	ld.ub	r8,r11[0x0]
80003b44:	f2 08 18 00 	cp.b	r8,r9
80003b48:	5f 0a       	sreq	r10
80003b4a:	37 29       	mov	r9,114
80003b4c:	f2 08 18 00 	cp.b	r8,r9
80003b50:	5f 09       	sreq	r9
80003b52:	f5 e9 10 09 	or	r9,r10,r9
80003b56:	c0 51       	brne	80003b60 <d_type+0x28>
80003b58:	34 b9       	mov	r9,75
80003b5a:	f2 08 18 00 	cp.b	r8,r9
80003b5e:	c1 11       	brne	80003b80 <d_type+0x48>
80003b60:	30 0a       	mov	r10,0
80003b62:	fa cb ff fc 	sub	r11,sp,-4
80003b66:	0e 9c       	mov	r12,r7
80003b68:	fe b0 fc a8 	rcall	800034b8 <d_cv_qualifiers>
80003b6c:	18 96       	mov	r6,r12
80003b6e:	e0 80 02 ee 	breq	8000414a <d_type+0x612>
80003b72:	0e 9c       	mov	r12,r7
80003b74:	ce 2f       	rcall	80003b38 <d_type>
80003b76:	8d 0c       	st.w	r6[0x0],r12
80003b78:	e0 80 02 e9 	breq	8000414a <d_type+0x612>
80003b7c:	e0 8f 02 ea 	bral	80004150 <d_type+0x618>
80003b80:	f0 c9 00 30 	sub	r9,r8,48
80003b84:	e0 49 00 4a 	cp.w	r9,74
80003b88:	e0 8b 02 e1 	brhi	8000414a <d_type+0x612>
80003b8c:	fe fa 02 24 	ld.w	r10,pc[548]
80003b90:	f4 09 03 2f 	ld.w	pc,r10[r9<<0x2]
80003b94:	80 00       	ld.sh	r0,r0[0x0]
80003b96:	3d 48       	mov	r8,-44
80003b98:	80 00       	ld.sh	r0,r0[0x0]
80003b9a:	3d 48       	mov	r8,-44
80003b9c:	80 00       	ld.sh	r0,r0[0x0]
80003b9e:	3d 48       	mov	r8,-44
80003ba0:	80 00       	ld.sh	r0,r0[0x0]
80003ba2:	3d 48       	mov	r8,-44
80003ba4:	80 00       	ld.sh	r0,r0[0x0]
80003ba6:	3d 48       	mov	r8,-44
80003ba8:	80 00       	ld.sh	r0,r0[0x0]
80003baa:	3d 48       	mov	r8,-44
80003bac:	80 00       	ld.sh	r0,r0[0x0]
80003bae:	3d 48       	mov	r8,-44
80003bb0:	80 00       	ld.sh	r0,r0[0x0]
80003bb2:	3d 48       	mov	r8,-44
80003bb4:	80 00       	ld.sh	r0,r0[0x0]
80003bb6:	3d 48       	mov	r8,-44
80003bb8:	80 00       	ld.sh	r0,r0[0x0]
80003bba:	3d 48       	mov	r8,-44
80003bbc:	80 00       	ld.sh	r0,r0[0x0]
80003bbe:	41 4a       	lddsp	r10,sp[0x50]
80003bc0:	80 00       	ld.sh	r0,r0[0x0]
80003bc2:	41 4a       	lddsp	r10,sp[0x50]
80003bc4:	80 00       	ld.sh	r0,r0[0x0]
80003bc6:	41 4a       	lddsp	r10,sp[0x50]
80003bc8:	80 00       	ld.sh	r0,r0[0x0]
80003bca:	41 4a       	lddsp	r10,sp[0x50]
80003bcc:	80 00       	ld.sh	r0,r0[0x0]
80003bce:	41 4a       	lddsp	r10,sp[0x50]
80003bd0:	80 00       	ld.sh	r0,r0[0x0]
80003bd2:	41 4a       	lddsp	r10,sp[0x50]
80003bd4:	80 00       	ld.sh	r0,r0[0x0]
80003bd6:	41 4a       	lddsp	r10,sp[0x50]
80003bd8:	80 00       	ld.sh	r0,r0[0x0]
80003bda:	3d 4e       	mov	lr,-44
80003bdc:	80 00       	ld.sh	r0,r0[0x0]
80003bde:	41 4a       	lddsp	r10,sp[0x50]
80003be0:	80 00       	ld.sh	r0,r0[0x0]
80003be2:	3e c8       	mov	r8,-20
80003be4:	80 00       	ld.sh	r0,r0[0x0]
80003be6:	3f 04       	mov	r4,-16
80003be8:	80 00       	ld.sh	r0,r0[0x0]
80003bea:	41 4a       	lddsp	r10,sp[0x50]
80003bec:	80 00       	ld.sh	r0,r0[0x0]
80003bee:	3d 1c       	mov	r12,-47
80003bf0:	80 00       	ld.sh	r0,r0[0x0]
80003bf2:	3e d6       	mov	r6,-19
80003bf4:	80 00       	ld.sh	r0,r0[0x0]
80003bf6:	41 4a       	lddsp	r10,sp[0x50]
80003bf8:	80 00       	ld.sh	r0,r0[0x0]
80003bfa:	41 4a       	lddsp	r10,sp[0x50]
80003bfc:	80 00       	ld.sh	r0,r0[0x0]
80003bfe:	41 4a       	lddsp	r10,sp[0x50]
80003c00:	80 00       	ld.sh	r0,r0[0x0]
80003c02:	41 4a       	lddsp	r10,sp[0x50]
80003c04:	80 00       	ld.sh	r0,r0[0x0]
80003c06:	41 4a       	lddsp	r10,sp[0x50]
80003c08:	80 00       	ld.sh	r0,r0[0x0]
80003c0a:	3d b8       	mov	r8,-37
80003c0c:	80 00       	ld.sh	r0,r0[0x0]
80003c0e:	3d 48       	mov	r8,-44
80003c10:	80 00       	ld.sh	r0,r0[0x0]
80003c12:	3e 9e       	mov	lr,-23
80003c14:	80 00       	ld.sh	r0,r0[0x0]
80003c16:	3e ac       	mov	r12,-22
80003c18:	80 00       	ld.sh	r0,r0[0x0]
80003c1a:	41 4a       	lddsp	r10,sp[0x50]
80003c1c:	80 00       	ld.sh	r0,r0[0x0]
80003c1e:	3e ba       	mov	r10,-21
80003c20:	80 00       	ld.sh	r0,r0[0x0]
80003c22:	3e 3c       	mov	r12,-29
80003c24:	80 00       	ld.sh	r0,r0[0x0]
80003c26:	3e 0a       	mov	r10,-32
80003c28:	80 00       	ld.sh	r0,r0[0x0]
80003c2a:	3e ec       	mov	r12,-18
80003c2c:	80 00       	ld.sh	r0,r0[0x0]
80003c2e:	41 4a       	lddsp	r10,sp[0x50]
80003c30:	80 00       	ld.sh	r0,r0[0x0]
80003c32:	41 4a       	lddsp	r10,sp[0x50]
80003c34:	80 00       	ld.sh	r0,r0[0x0]
80003c36:	41 4a       	lddsp	r10,sp[0x50]
80003c38:	80 00       	ld.sh	r0,r0[0x0]
80003c3a:	41 4a       	lddsp	r10,sp[0x50]
80003c3c:	80 00       	ld.sh	r0,r0[0x0]
80003c3e:	3d 48       	mov	r8,-44
80003c40:	80 00       	ld.sh	r0,r0[0x0]
80003c42:	41 4a       	lddsp	r10,sp[0x50]
80003c44:	80 00       	ld.sh	r0,r0[0x0]
80003c46:	41 4a       	lddsp	r10,sp[0x50]
80003c48:	80 00       	ld.sh	r0,r0[0x0]
80003c4a:	41 4a       	lddsp	r10,sp[0x50]
80003c4c:	80 00       	ld.sh	r0,r0[0x0]
80003c4e:	41 4a       	lddsp	r10,sp[0x50]
80003c50:	80 00       	ld.sh	r0,r0[0x0]
80003c52:	41 4a       	lddsp	r10,sp[0x50]
80003c54:	80 00       	ld.sh	r0,r0[0x0]
80003c56:	41 4a       	lddsp	r10,sp[0x50]
80003c58:	80 00       	ld.sh	r0,r0[0x0]
80003c5a:	3c c0       	mov	r0,-52
80003c5c:	80 00       	ld.sh	r0,r0[0x0]
80003c5e:	3c c0       	mov	r0,-52
80003c60:	80 00       	ld.sh	r0,r0[0x0]
80003c62:	3c c0       	mov	r0,-52
80003c64:	80 00       	ld.sh	r0,r0[0x0]
80003c66:	3c c0       	mov	r0,-52
80003c68:	80 00       	ld.sh	r0,r0[0x0]
80003c6a:	3c c0       	mov	r0,-52
80003c6c:	80 00       	ld.sh	r0,r0[0x0]
80003c6e:	3c c0       	mov	r0,-52
80003c70:	80 00       	ld.sh	r0,r0[0x0]
80003c72:	3c c0       	mov	r0,-52
80003c74:	80 00       	ld.sh	r0,r0[0x0]
80003c76:	3c c0       	mov	r0,-52
80003c78:	80 00       	ld.sh	r0,r0[0x0]
80003c7a:	3c c0       	mov	r0,-52
80003c7c:	80 00       	ld.sh	r0,r0[0x0]
80003c7e:	3c c0       	mov	r0,-52
80003c80:	80 00       	ld.sh	r0,r0[0x0]
80003c82:	41 4a       	lddsp	r10,sp[0x50]
80003c84:	80 00       	ld.sh	r0,r0[0x0]
80003c86:	3c c0       	mov	r0,-52
80003c88:	80 00       	ld.sh	r0,r0[0x0]
80003c8a:	3c c0       	mov	r0,-52
80003c8c:	80 00       	ld.sh	r0,r0[0x0]
80003c8e:	3c c0       	mov	r0,-52
80003c90:	80 00       	ld.sh	r0,r0[0x0]
80003c92:	3c c0       	mov	r0,-52
80003c94:	80 00       	ld.sh	r0,r0[0x0]
80003c96:	41 4a       	lddsp	r10,sp[0x50]
80003c98:	80 00       	ld.sh	r0,r0[0x0]
80003c9a:	41 4a       	lddsp	r10,sp[0x50]
80003c9c:	80 00       	ld.sh	r0,r0[0x0]
80003c9e:	41 4a       	lddsp	r10,sp[0x50]
80003ca0:	80 00       	ld.sh	r0,r0[0x0]
80003ca2:	3c c0       	mov	r0,-52
80003ca4:	80 00       	ld.sh	r0,r0[0x0]
80003ca6:	3c c0       	mov	r0,-52
80003ca8:	80 00       	ld.sh	r0,r0[0x0]
80003caa:	3d 0c       	mov	r12,-48
80003cac:	80 00       	ld.sh	r0,r0[0x0]
80003cae:	3c c0       	mov	r0,-52
80003cb0:	80 00       	ld.sh	r0,r0[0x0]
80003cb2:	3c c0       	mov	r0,-52
80003cb4:	80 00       	ld.sh	r0,r0[0x0]
80003cb6:	3c c0       	mov	r0,-52
80003cb8:	80 00       	ld.sh	r0,r0[0x0]
80003cba:	3c c0       	mov	r0,-52
80003cbc:	80 00       	ld.sh	r0,r0[0x0]
80003cbe:	3c c0       	mov	r0,-52
80003cc0:	f0 08 00 28 	add	r8,r8,r8<<0x2
80003cc4:	4b c9       	lddpc	r9,80003db4 <d_type+0x27c>
80003cc6:	f2 08 00 29 	add	r9,r9,r8<<0x2
80003cca:	f2 c9 06 d0 	sub	r9,r9,1744
80003cce:	c1 20       	breq	80003cf2 <d_type+0x1ba>
80003cd0:	78 58       	ld.w	r8,r12[0x14]
80003cd2:	78 6a       	ld.w	r10,r12[0x18]
80003cd4:	14 38       	cp.w	r8,r10
80003cd6:	c0 e4       	brge	80003cf2 <d_type+0x1ba>
80003cd8:	f0 ca ff ff 	sub	r10,r8,-1
80003cdc:	99 5a       	st.w	r12[0x14],r10
80003cde:	f0 08 00 18 	add	r8,r8,r8<<0x1
80003ce2:	78 4a       	ld.w	r10,r12[0x10]
80003ce4:	f4 08 00 28 	add	r8,r10,r8<<0x2
80003ce8:	c0 60       	breq	80003cf4 <d_type+0x1bc>
80003cea:	91 19       	st.w	r8[0x4],r9
80003cec:	32 39       	mov	r9,35
80003cee:	91 09       	st.w	r8[0x0],r9
80003cf0:	c0 28       	rjmp	80003cf4 <d_type+0x1bc>
80003cf2:	30 08       	mov	r8,0
80003cf4:	6e c9       	ld.w	r9,r7[0x30]
80003cf6:	50 18       	stdsp	sp[0x4],r8
80003cf8:	70 18       	ld.w	r8,r8[0x4]
80003cfa:	70 18       	ld.w	r8,r8[0x4]
80003cfc:	f2 08 00 08 	add	r8,r9,r8
80003d00:	8f c8       	st.w	r7[0x30],r8
80003d02:	6e 38       	ld.w	r8,r7[0xc]
80003d04:	2f f8       	sub	r8,-1
80003d06:	8f 38       	st.w	r7[0xc],r8
80003d08:	e0 8f 02 1f 	bral	80004146 <d_type+0x60e>
80003d0c:	2f fb       	sub	r11,-1
80003d0e:	99 3b       	st.w	r12[0xc],r11
80003d10:	fe b0 fd a8 	rcall	80003860 <d_source_name>
80003d14:	30 09       	mov	r9,0
80003d16:	18 9a       	mov	r10,r12
80003d18:	32 4b       	mov	r11,36
80003d1a:	ce 48       	rjmp	80003ee2 <d_type+0x3aa>
80003d1c:	2f fb       	sub	r11,-1
80003d1e:	99 3b       	st.w	r12[0xc],r11
80003d20:	35 98       	mov	r8,89
80003d22:	17 89       	ld.ub	r9,r11[0x0]
80003d24:	f0 09 18 00 	cp.b	r9,r8
80003d28:	c0 31       	brne	80003d2e <d_type+0x1f6>
80003d2a:	2f fb       	sub	r11,-1
80003d2c:	99 3b       	st.w	r12[0xc],r11
80003d2e:	30 1b       	mov	r11,1
80003d30:	0e 9c       	mov	r12,r7
80003d32:	e0 a0 02 13 	rcall	80004158 <d_bare_function_type>
80003d36:	6e 38       	ld.w	r8,r7[0xc]
80003d38:	34 59       	mov	r9,69
80003d3a:	11 8a       	ld.ub	r10,r8[0x0]
80003d3c:	f2 0a 18 00 	cp.b	r10,r9
80003d40:	c6 31       	brne	80003e06 <d_type+0x2ce>
80003d42:	2f f8       	sub	r8,-1
80003d44:	8f 38       	st.w	r7[0xc],r8
80003d46:	cd 18       	rjmp	80003ee8 <d_type+0x3b0>
80003d48:	e0 a0 04 5c 	rcall	80004600 <d_name>
80003d4c:	cc e8       	rjmp	80003ee8 <d_type+0x3b0>
80003d4e:	2f fb       	sub	r11,-1
80003d50:	99 3b       	st.w	r12[0xc],r11
80003d52:	35 f9       	mov	r9,95
80003d54:	17 88       	ld.ub	r8,r11[0x0]
80003d56:	f2 08 18 00 	cp.b	r8,r9
80003d5a:	c0 31       	brne	80003d60 <d_type+0x228>
80003d5c:	30 06       	mov	r6,0
80003d5e:	c1 b8       	rjmp	80003d94 <d_type+0x25c>
80003d60:	f0 c9 00 30 	sub	r9,r8,48
80003d64:	30 98       	mov	r8,9
80003d66:	f0 09 18 00 	cp.b	r9,r8
80003d6a:	e0 8b 00 10 	brhi	80003d8a <d_type+0x252>
80003d6e:	6e 3a       	ld.w	r10,r7[0xc]
80003d70:	2f fa       	sub	r10,-1
80003d72:	8f 3a       	st.w	r7[0xc],r10
80003d74:	15 89       	ld.ub	r9,r10[0x0]
80003d76:	23 09       	sub	r9,48
80003d78:	f0 09 18 00 	cp.b	r9,r8
80003d7c:	fe 98 ff f9 	brls	80003d6e <d_type+0x236>
80003d80:	16 1a       	sub	r10,r11
80003d82:	0e 9c       	mov	r12,r7
80003d84:	fe b0 fb 30 	rcall	800033e4 <d_make_name>
80003d88:	c0 38       	rjmp	80003d8e <d_type+0x256>
80003d8a:	fe b0 fd bf 	rcall	80003908 <d_expression>
80003d8e:	18 96       	mov	r6,r12
80003d90:	58 0c       	cp.w	r12,0
80003d92:	c3 a0       	breq	80003e06 <d_type+0x2ce>
80003d94:	6e 38       	ld.w	r8,r7[0xc]
80003d96:	35 f9       	mov	r9,95
80003d98:	11 8a       	ld.ub	r10,r8[0x0]
80003d9a:	f2 0a 18 00 	cp.b	r10,r9
80003d9e:	c3 41       	brne	80003e06 <d_type+0x2ce>
80003da0:	2f f8       	sub	r8,-1
80003da2:	0e 9c       	mov	r12,r7
80003da4:	8f 38       	st.w	r7[0xc],r8
80003da6:	cc 9e       	rcall	80003b38 <d_type>
80003da8:	0c 9a       	mov	r10,r6
80003daa:	18 99       	mov	r9,r12
80003dac:	32 6b       	mov	r11,38
80003dae:	c9 a8       	rjmp	80003ee2 <d_type+0x3aa>
80003db0:	80 00       	ld.sh	r0,r0[0x0]
80003db2:	3b 94       	mov	r4,-71
80003db4:	80 00       	ld.sh	r0,r0[0x0]
80003db6:	5e bc       	rethi	r12
80003db8:	2f fb       	sub	r11,-1
80003dba:	99 3b       	st.w	r12[0xc],r11
80003dbc:	cb ee       	rcall	80003b38 <d_type>
80003dbe:	30 1a       	mov	r10,1
80003dc0:	18 95       	mov	r5,r12
80003dc2:	1a 9b       	mov	r11,sp
80003dc4:	0e 9c       	mov	r12,r7
80003dc6:	1a 96       	mov	r6,sp
80003dc8:	fe b0 fb 78 	rcall	800034b8 <d_cv_qualifiers>
80003dcc:	18 94       	mov	r4,r12
80003dce:	c1 c0       	breq	80003e06 <d_type+0x2ce>
80003dd0:	0e 9c       	mov	r12,r7
80003dd2:	cb 3e       	rcall	80003b38 <d_type>
80003dd4:	89 0c       	st.w	r4[0x0],r12
80003dd6:	c1 80       	breq	80003e06 <d_type+0x2ce>
80003dd8:	1a 34       	cp.w	r4,sp
80003dda:	c1 20       	breq	80003dfe <d_type+0x2c6>
80003ddc:	78 08       	ld.w	r8,r12[0x0]
80003dde:	e0 48 00 25 	cp.w	r8,37
80003de2:	c0 e0       	breq	80003dfe <d_type+0x2c6>
80003de4:	40 09       	lddsp	r9,sp[0x0]
80003de6:	58 09       	cp.w	r9,0
80003de8:	c0 f0       	breq	80003e06 <d_type+0x2ce>
80003dea:	6e 88       	ld.w	r8,r7[0x20]
80003dec:	6e 9a       	ld.w	r10,r7[0x24]
80003dee:	14 38       	cp.w	r8,r10
80003df0:	c0 b4       	brge	80003e06 <d_type+0x2ce>
80003df2:	f0 ca ff ff 	sub	r10,r8,-1
80003df6:	8f 8a       	st.w	r7[0x20],r10
80003df8:	6e 7a       	ld.w	r10,r7[0x1c]
80003dfa:	f4 08 09 29 	st.w	r10[r8<<0x2],r9
80003dfe:	0a 9a       	mov	r10,r5
80003e00:	40 09       	lddsp	r9,sp[0x0]
80003e02:	32 7b       	mov	r11,39
80003e04:	c6 f8       	rjmp	80003ee2 <d_type+0x3aa>
80003e06:	30 0c       	mov	r12,0
80003e08:	c7 08       	rjmp	80003ee8 <d_type+0x3b0>
80003e0a:	fe b0 fb a3 	rcall	80003550 <d_template_param>
80003e0e:	6e 38       	ld.w	r8,r7[0xc]
80003e10:	50 1c       	stdsp	sp[0x4],r12
80003e12:	11 89       	ld.ub	r9,r8[0x0]
80003e14:	34 98       	mov	r8,73
80003e16:	f0 09 18 00 	cp.b	r9,r8
80003e1a:	e0 81 01 9b 	brne	80004150 <d_type+0x618>
80003e1e:	58 0c       	cp.w	r12,0
80003e20:	e0 80 01 95 	breq	8000414a <d_type+0x612>
80003e24:	6e 88       	ld.w	r8,r7[0x20]
80003e26:	6e 99       	ld.w	r9,r7[0x24]
80003e28:	12 38       	cp.w	r8,r9
80003e2a:	e0 84 01 90 	brge	8000414a <d_type+0x612>
80003e2e:	f0 c9 ff ff 	sub	r9,r8,-1
80003e32:	8f 89       	st.w	r7[0x20],r9
80003e34:	6e 79       	ld.w	r9,r7[0x1c]
80003e36:	f2 08 09 2c 	st.w	r9[r8<<0x2],r12
80003e3a:	c2 18       	rjmp	80003e7c <d_type+0x344>
80003e3c:	30 99       	mov	r9,9
80003e3e:	17 98       	ld.ub	r8,r11[0x1]
80003e40:	f0 ca 00 30 	sub	r10,r8,48
80003e44:	f2 0a 18 00 	cp.b	r10,r9
80003e48:	5f 8a       	srls	r10
80003e4a:	35 f9       	mov	r9,95
80003e4c:	f2 08 18 00 	cp.b	r8,r9
80003e50:	5f 09       	sreq	r9
80003e52:	f5 e9 10 09 	or	r9,r10,r9
80003e56:	c0 71       	brne	80003e64 <d_type+0x32c>
80003e58:	24 18       	sub	r8,65
80003e5a:	31 99       	mov	r9,25
80003e5c:	f2 08 18 00 	cp.b	r8,r9
80003e60:	e0 8b 00 15 	brhi	80003e8a <d_type+0x352>
80003e64:	30 0b       	mov	r11,0
80003e66:	0e 9c       	mov	r12,r7
80003e68:	fe b0 fb a8 	rcall	800035b8 <d_substitution>
80003e6c:	6e 38       	ld.w	r8,r7[0xc]
80003e6e:	50 1c       	stdsp	sp[0x4],r12
80003e70:	11 89       	ld.ub	r9,r8[0x0]
80003e72:	34 98       	mov	r8,73
80003e74:	f0 09 18 00 	cp.b	r9,r8
80003e78:	e0 81 01 67 	brne	80004146 <d_type+0x60e>
80003e7c:	0e 9c       	mov	r12,r7
80003e7e:	e0 a0 03 65 	rcall	80004548 <d_template_args>
80003e82:	40 1a       	lddsp	r10,sp[0x4]
80003e84:	18 99       	mov	r9,r12
80003e86:	30 4b       	mov	r11,4
80003e88:	c2 d8       	rjmp	80003ee2 <d_type+0x3aa>
80003e8a:	e0 a0 03 bb 	rcall	80004600 <d_name>
80003e8e:	50 1c       	stdsp	sp[0x4],r12
80003e90:	e0 80 01 60 	breq	80004150 <d_type+0x618>
80003e94:	78 08       	ld.w	r8,r12[0x0]
80003e96:	59 68       	cp.w	r8,22
80003e98:	e0 81 01 5c 	brne	80004150 <d_type+0x618>
80003e9c:	c5 59       	rjmp	80004146 <d_type+0x60e>
80003e9e:	2f fb       	sub	r11,-1
80003ea0:	99 3b       	st.w	r12[0xc],r11
80003ea2:	c4 be       	rcall	80003b38 <d_type>
80003ea4:	30 09       	mov	r9,0
80003ea6:	18 9a       	mov	r10,r12
80003ea8:	32 0b       	mov	r11,32
80003eaa:	c1 c8       	rjmp	80003ee2 <d_type+0x3aa>
80003eac:	2f fb       	sub	r11,-1
80003eae:	99 3b       	st.w	r12[0xc],r11
80003eb0:	c4 4e       	rcall	80003b38 <d_type>
80003eb2:	30 09       	mov	r9,0
80003eb4:	18 9a       	mov	r10,r12
80003eb6:	31 eb       	mov	r11,30
80003eb8:	c1 58       	rjmp	80003ee2 <d_type+0x3aa>
80003eba:	2f fb       	sub	r11,-1
80003ebc:	99 3b       	st.w	r12[0xc],r11
80003ebe:	c3 de       	rcall	80003b38 <d_type>
80003ec0:	30 09       	mov	r9,0
80003ec2:	18 9a       	mov	r10,r12
80003ec4:	31 fb       	mov	r11,31
80003ec6:	c0 e8       	rjmp	80003ee2 <d_type+0x3aa>
80003ec8:	2f fb       	sub	r11,-1
80003eca:	99 3b       	st.w	r12[0xc],r11
80003ecc:	c3 6e       	rcall	80003b38 <d_type>
80003ece:	30 09       	mov	r9,0
80003ed0:	18 9a       	mov	r10,r12
80003ed2:	32 1b       	mov	r11,33
80003ed4:	c0 78       	rjmp	80003ee2 <d_type+0x3aa>
80003ed6:	2f fb       	sub	r11,-1
80003ed8:	99 3b       	st.w	r12[0xc],r11
80003eda:	c2 fe       	rcall	80003b38 <d_type>
80003edc:	30 09       	mov	r9,0
80003ede:	18 9a       	mov	r10,r12
80003ee0:	32 2b       	mov	r11,34
80003ee2:	0e 9c       	mov	r12,r7
80003ee4:	fe b0 f9 e0 	rcall	800032a4 <d_make_comp>
80003ee8:	50 1c       	stdsp	sp[0x4],r12
80003eea:	c3 39       	rjmp	80004150 <d_type+0x618>
80003eec:	2f fb       	sub	r11,-1
80003eee:	99 3b       	st.w	r12[0xc],r11
80003ef0:	fe b0 fc b8 	rcall	80003860 <d_source_name>
80003ef4:	18 96       	mov	r6,r12
80003ef6:	50 1c       	stdsp	sp[0x4],r12
80003ef8:	0e 9c       	mov	r12,r7
80003efa:	c1 fe       	rcall	80003b38 <d_type>
80003efc:	0c 99       	mov	r9,r6
80003efe:	18 9a       	mov	r10,r12
80003f00:	31 db       	mov	r11,29
80003f02:	cf 0b       	rjmp	80003ee2 <d_type+0x3aa>
80003f04:	2f fb       	sub	r11,-1
80003f06:	99 3b       	st.w	r12[0xc],r11
80003f08:	17 88       	ld.ub	r8,r11[0x0]
80003f0a:	58 08       	cp.w	r8,0
80003f0c:	e0 80 01 1f 	breq	8000414a <d_type+0x612>
80003f10:	2f fb       	sub	r11,-1
80003f12:	99 3b       	st.w	r12[0xc],r11
80003f14:	36 69       	mov	r9,102
80003f16:	f2 08 18 00 	cp.b	r8,r9
80003f1a:	c5 60       	breq	80003fc6 <d_type+0x48e>
80003f1c:	e0 8b 00 18 	brhi	80003f4c <d_type+0x414>
80003f20:	35 49       	mov	r9,84
80003f22:	f2 08 18 00 	cp.b	r8,r9
80003f26:	c2 c0       	breq	80003f7e <d_type+0x446>
80003f28:	e0 8b 00 08 	brhi	80003f38 <d_type+0x400>
80003f2c:	34 69       	mov	r9,70
80003f2e:	f2 08 18 00 	cp.b	r8,r9
80003f32:	e0 81 01 0c 	brne	8000414a <d_type+0x612>
80003f36:	cc 48       	rjmp	800040be <d_type+0x586>
80003f38:	36 49       	mov	r9,100
80003f3a:	f2 08 18 00 	cp.b	r8,r9
80003f3e:	c5 70       	breq	80003fec <d_type+0x4b4>
80003f40:	36 59       	mov	r9,101
80003f42:	f2 08 18 00 	cp.b	r8,r9
80003f46:	e0 81 01 02 	brne	8000414a <d_type+0x612>
80003f4a:	c6 48       	rjmp	80004012 <d_type+0x4da>
80003f4c:	37 09       	mov	r9,112
80003f4e:	f2 08 18 00 	cp.b	r8,r9
80003f52:	c3 00       	breq	80003fb2 <d_type+0x47a>
80003f54:	e0 8b 00 0c 	brhi	80003f6c <d_type+0x434>
80003f58:	36 89       	mov	r9,104
80003f5a:	f2 08 18 00 	cp.b	r8,r9
80003f5e:	c6 d0       	breq	80004038 <d_type+0x500>
80003f60:	36 99       	mov	r9,105
80003f62:	f2 08 18 00 	cp.b	r8,r9
80003f66:	e0 81 00 f2 	brne	8000414a <d_type+0x612>
80003f6a:	c8 d8       	rjmp	80004084 <d_type+0x54c>
80003f6c:	37 39       	mov	r9,115
80003f6e:	f2 08 18 00 	cp.b	r8,r9
80003f72:	c7 60       	breq	8000405e <d_type+0x526>
80003f74:	37 49       	mov	r9,116
80003f76:	f2 08 18 00 	cp.b	r8,r9
80003f7a:	e0 81 00 e8 	brne	8000414a <d_type+0x612>
80003f7e:	0e 9c       	mov	r12,r7
80003f80:	fe b0 fc c4 	rcall	80003908 <d_expression>
80003f84:	30 09       	mov	r9,0
80003f86:	18 9a       	mov	r10,r12
80003f88:	33 9b       	mov	r11,57
80003f8a:	0e 9c       	mov	r12,r7
80003f8c:	fe b0 f9 8c 	rcall	800032a4 <d_make_comp>
80003f90:	50 1c       	stdsp	sp[0x4],r12
80003f92:	e0 80 00 da 	breq	80004146 <d_type+0x60e>
80003f96:	6e 39       	ld.w	r9,r7[0xc]
80003f98:	13 88       	ld.ub	r8,r9[0x0]
80003f9a:	58 08       	cp.w	r8,0
80003f9c:	c0 80       	breq	80003fac <d_type+0x474>
80003f9e:	2f f9       	sub	r9,-1
80003fa0:	8f 39       	st.w	r7[0xc],r9
80003fa2:	34 59       	mov	r9,69
80003fa4:	f2 08 18 00 	cp.b	r8,r9
80003fa8:	e0 80 00 cf 	breq	80004146 <d_type+0x60e>
80003fac:	30 08       	mov	r8,0
80003fae:	50 18       	stdsp	sp[0x4],r8
80003fb0:	cc b8       	rjmp	80004146 <d_type+0x60e>
80003fb2:	fe b0 fd c3 	rcall	80003b38 <d_type>
80003fb6:	30 09       	mov	r9,0
80003fb8:	18 9a       	mov	r10,r12
80003fba:	33 ab       	mov	r11,58
80003fbc:	0e 9c       	mov	r12,r7
80003fbe:	fe b0 f9 73 	rcall	800032a4 <d_make_comp>
80003fc2:	50 1c       	stdsp	sp[0x4],r12
80003fc4:	cc 18       	rjmp	80004146 <d_type+0x60e>
80003fc6:	78 58       	ld.w	r8,r12[0x14]
80003fc8:	78 69       	ld.w	r9,r12[0x18]
80003fca:	12 38       	cp.w	r8,r9
80003fcc:	c6 04       	brge	8000408c <d_type+0x554>
80003fce:	f0 c9 ff ff 	sub	r9,r8,-1
80003fd2:	99 59       	st.w	r12[0x14],r9
80003fd4:	f0 08 00 18 	add	r8,r8,r8<<0x1
80003fd8:	78 49       	ld.w	r9,r12[0x10]
80003fda:	f2 08 00 28 	add	r8,r9,r8<<0x2
80003fde:	c6 80       	breq	800040ae <d_type+0x576>
80003fe0:	32 39       	mov	r9,35
80003fe2:	91 09       	st.w	r8[0x0],r9
80003fe4:	4b a9       	lddpc	r9,800040cc <d_type+0x594>
80003fe6:	f2 c9 fd 34 	sub	r9,r9,-716
80003fea:	c6 18       	rjmp	800040ac <d_type+0x574>
80003fec:	78 58       	ld.w	r8,r12[0x14]
80003fee:	78 69       	ld.w	r9,r12[0x18]
80003ff0:	12 38       	cp.w	r8,r9
80003ff2:	c4 d4       	brge	8000408c <d_type+0x554>
80003ff4:	f0 c9 ff ff 	sub	r9,r8,-1
80003ff8:	99 59       	st.w	r12[0x14],r9
80003ffa:	f0 08 00 18 	add	r8,r8,r8<<0x1
80003ffe:	78 49       	ld.w	r9,r12[0x10]
80004000:	f2 08 00 28 	add	r8,r9,r8<<0x2
80004004:	c5 50       	breq	800040ae <d_type+0x576>
80004006:	32 39       	mov	r9,35
80004008:	91 09       	st.w	r8[0x0],r9
8000400a:	4b 19       	lddpc	r9,800040cc <d_type+0x594>
8000400c:	f2 c9 fd 20 	sub	r9,r9,-736
80004010:	c4 e8       	rjmp	800040ac <d_type+0x574>
80004012:	78 58       	ld.w	r8,r12[0x14]
80004014:	78 69       	ld.w	r9,r12[0x18]
80004016:	12 38       	cp.w	r8,r9
80004018:	c3 a4       	brge	8000408c <d_type+0x554>
8000401a:	f0 c9 ff ff 	sub	r9,r8,-1
8000401e:	99 59       	st.w	r12[0x14],r9
80004020:	f0 08 00 18 	add	r8,r8,r8<<0x1
80004024:	78 49       	ld.w	r9,r12[0x10]
80004026:	f2 08 00 28 	add	r8,r9,r8<<0x2
8000402a:	c4 20       	breq	800040ae <d_type+0x576>
8000402c:	32 39       	mov	r9,35
8000402e:	91 09       	st.w	r8[0x0],r9
80004030:	4a 79       	lddpc	r9,800040cc <d_type+0x594>
80004032:	f2 c9 fd 0c 	sub	r9,r9,-756
80004036:	c3 b8       	rjmp	800040ac <d_type+0x574>
80004038:	78 58       	ld.w	r8,r12[0x14]
8000403a:	78 69       	ld.w	r9,r12[0x18]
8000403c:	12 38       	cp.w	r8,r9
8000403e:	c2 74       	brge	8000408c <d_type+0x554>
80004040:	f0 c9 ff ff 	sub	r9,r8,-1
80004044:	99 59       	st.w	r12[0x14],r9
80004046:	f0 08 00 18 	add	r8,r8,r8<<0x1
8000404a:	78 49       	ld.w	r9,r12[0x10]
8000404c:	f2 08 00 28 	add	r8,r9,r8<<0x2
80004050:	c2 f0       	breq	800040ae <d_type+0x576>
80004052:	32 39       	mov	r9,35
80004054:	91 09       	st.w	r8[0x0],r9
80004056:	49 e9       	lddpc	r9,800040cc <d_type+0x594>
80004058:	f2 c9 fc f8 	sub	r9,r9,-776
8000405c:	c2 88       	rjmp	800040ac <d_type+0x574>
8000405e:	78 58       	ld.w	r8,r12[0x14]
80004060:	78 69       	ld.w	r9,r12[0x18]
80004062:	12 38       	cp.w	r8,r9
80004064:	c1 44       	brge	8000408c <d_type+0x554>
80004066:	f0 c9 ff ff 	sub	r9,r8,-1
8000406a:	99 59       	st.w	r12[0x14],r9
8000406c:	f0 08 00 18 	add	r8,r8,r8<<0x1
80004070:	78 49       	ld.w	r9,r12[0x10]
80004072:	f2 08 00 28 	add	r8,r9,r8<<0x2
80004076:	c1 c0       	breq	800040ae <d_type+0x576>
80004078:	32 39       	mov	r9,35
8000407a:	91 09       	st.w	r8[0x0],r9
8000407c:	49 49       	lddpc	r9,800040cc <d_type+0x594>
8000407e:	f2 c9 fc e4 	sub	r9,r9,-796
80004082:	c1 58       	rjmp	800040ac <d_type+0x574>
80004084:	78 58       	ld.w	r8,r12[0x14]
80004086:	78 69       	ld.w	r9,r12[0x18]
80004088:	12 38       	cp.w	r8,r9
8000408a:	c0 35       	brlt	80004090 <d_type+0x558>
8000408c:	30 08       	mov	r8,0
8000408e:	c1 08       	rjmp	800040ae <d_type+0x576>
80004090:	f0 c9 ff ff 	sub	r9,r8,-1
80004094:	99 59       	st.w	r12[0x14],r9
80004096:	f0 08 00 18 	add	r8,r8,r8<<0x1
8000409a:	78 49       	ld.w	r9,r12[0x10]
8000409c:	f2 08 00 28 	add	r8,r9,r8<<0x2
800040a0:	c0 70       	breq	800040ae <d_type+0x576>
800040a2:	32 39       	mov	r9,35
800040a4:	91 09       	st.w	r8[0x0],r9
800040a6:	48 a9       	lddpc	r9,800040cc <d_type+0x594>
800040a8:	f2 c9 fc d0 	sub	r9,r9,-816
800040ac:	91 19       	st.w	r8[0x4],r9
800040ae:	6e c9       	ld.w	r9,r7[0x30]
800040b0:	50 18       	stdsp	sp[0x4],r8
800040b2:	70 18       	ld.w	r8,r8[0x4]
800040b4:	70 18       	ld.w	r8,r8[0x4]
800040b6:	f2 08 00 08 	add	r8,r9,r8
800040ba:	8f c8       	st.w	r7[0x30],r8
800040bc:	c4 58       	rjmp	80004146 <d_type+0x60e>
800040be:	78 58       	ld.w	r8,r12[0x14]
800040c0:	78 69       	ld.w	r9,r12[0x18]
800040c2:	12 38       	cp.w	r8,r9
800040c4:	c0 65       	brlt	800040d0 <d_type+0x598>
800040c6:	30 08       	mov	r8,0
800040c8:	c0 c8       	rjmp	800040e0 <d_type+0x5a8>
800040ca:	00 00       	add	r0,r0
800040cc:	80 00       	ld.sh	r0,r0[0x0]
800040ce:	5e bc       	rethi	r12
800040d0:	f0 c9 ff ff 	sub	r9,r8,-1
800040d4:	f0 08 00 18 	add	r8,r8,r8<<0x1
800040d8:	99 59       	st.w	r12[0x14],r9
800040da:	78 49       	ld.w	r9,r12[0x10]
800040dc:	f2 08 00 28 	add	r8,r9,r8<<0x2
800040e0:	6e 39       	ld.w	r9,r7[0xc]
800040e2:	50 18       	stdsp	sp[0x4],r8
800040e4:	32 8a       	mov	r10,40
800040e6:	91 0a       	st.w	r8[0x0],r10
800040e8:	13 8a       	ld.ub	r10,r9[0x0]
800040ea:	30 99       	mov	r9,9
800040ec:	23 0a       	sub	r10,48
800040ee:	f2 0a 18 00 	cp.b	r10,r9
800040f2:	5f 89       	srls	r9
800040f4:	b0 49       	st.h	r8[0x8],r9
800040f6:	58 09       	cp.w	r9,0
800040f8:	c0 40       	breq	80004100 <d_type+0x5c8>
800040fa:	0e 9c       	mov	r12,r7
800040fc:	fe b0 f9 90 	rcall	8000341c <d_number>
80004100:	40 16       	lddsp	r6,sp[0x4]
80004102:	0e 9c       	mov	r12,r7
80004104:	fe b0 fd 1a 	rcall	80003b38 <d_type>
80004108:	8d 1c       	st.w	r6[0x4],r12
8000410a:	40 18       	lddsp	r8,sp[0x4]
8000410c:	70 18       	ld.w	r8,r8[0x4]
8000410e:	58 08       	cp.w	r8,0
80004110:	c1 d0       	breq	8000414a <d_type+0x612>
80004112:	0e 9c       	mov	r12,r7
80004114:	fe b0 f9 84 	rcall	8000341c <d_number>
80004118:	6e 39       	ld.w	r9,r7[0xc]
8000411a:	13 88       	ld.ub	r8,r9[0x0]
8000411c:	58 08       	cp.w	r8,0
8000411e:	c0 30       	breq	80004124 <d_type+0x5ec>
80004120:	2f f9       	sub	r9,-1
80004122:	8f 39       	st.w	r7[0xc],r9
80004124:	37 39       	mov	r9,115
80004126:	f2 08 18 00 	cp.b	r8,r9
8000412a:	5f 09       	sreq	r9
8000412c:	40 18       	lddsp	r8,sp[0x4]
8000412e:	b0 59       	st.h	r8[0xa],r9
80004130:	c0 b8       	rjmp	80004146 <d_type+0x60e>
80004132:	6e 88       	ld.w	r8,r7[0x20]
80004134:	6e 9a       	ld.w	r10,r7[0x24]
80004136:	14 38       	cp.w	r8,r10
80004138:	c0 94       	brge	8000414a <d_type+0x612>
8000413a:	f0 ca ff ff 	sub	r10,r8,-1
8000413e:	8f 8a       	st.w	r7[0x20],r10
80004140:	6e 7a       	ld.w	r10,r7[0x1c]
80004142:	f4 08 09 29 	st.w	r10[r8<<0x2],r9
80004146:	40 1c       	lddsp	r12,sp[0x4]
80004148:	c0 28       	rjmp	8000414c <d_type+0x614>
8000414a:	30 0c       	mov	r12,0
8000414c:	2f ed       	sub	sp,-8
8000414e:	d8 22       	popm	r4-r7,pc
80004150:	40 19       	lddsp	r9,sp[0x4]
80004152:	58 09       	cp.w	r9,0
80004154:	ce f1       	brne	80004132 <d_type+0x5fa>
80004156:	cf ab       	rjmp	8000414a <d_type+0x612>

80004158 <d_bare_function_type>:
80004158:	d4 31       	pushm	r0-r7,lr
8000415a:	20 1d       	sub	sp,4
8000415c:	34 a9       	mov	r9,74
8000415e:	78 38       	ld.w	r8,r12[0xc]
80004160:	18 96       	mov	r6,r12
80004162:	16 95       	mov	r5,r11
80004164:	11 8a       	ld.ub	r10,r8[0x0]
80004166:	f2 0a 18 00 	cp.b	r10,r9
8000416a:	c0 41       	brne	80004172 <d_bare_function_type+0x1a>
8000416c:	2f f8       	sub	r8,-1
8000416e:	30 15       	mov	r5,1
80004170:	99 38       	st.w	r12[0xc],r8
80004172:	30 08       	mov	r8,0
80004174:	fa c7 ff fc 	sub	r7,sp,-4
80004178:	10 94       	mov	r4,r8
8000417a:	0e d8       	st.w	--r7,r8
8000417c:	34 52       	mov	r2,69
8000417e:	10 93       	mov	r3,r8
80004180:	6c 38       	ld.w	r8,r6[0xc]
80004182:	11 88       	ld.ub	r8,r8[0x0]
80004184:	e6 08 18 00 	cp.b	r8,r3
80004188:	5f 09       	sreq	r9
8000418a:	e4 08 18 00 	cp.b	r8,r2
8000418e:	5f 08       	sreq	r8
80004190:	12 48       	or	r8,r9
80004192:	e6 08 18 00 	cp.b	r8,r3
80004196:	c1 51       	brne	800041c0 <d_bare_function_type+0x68>
80004198:	0c 9c       	mov	r12,r6
8000419a:	fe b0 fc cf 	rcall	80003b38 <d_type>
8000419e:	18 9a       	mov	r10,r12
800041a0:	c2 c0       	breq	800041f8 <d_bare_function_type+0xa0>
800041a2:	58 05       	cp.w	r5,0
800041a4:	c0 40       	breq	800041ac <d_bare_function_type+0x54>
800041a6:	18 94       	mov	r4,r12
800041a8:	30 05       	mov	r5,0
800041aa:	ce bb       	rjmp	80004180 <d_bare_function_type+0x28>
800041ac:	0a 99       	mov	r9,r5
800041ae:	32 9b       	mov	r11,41
800041b0:	0c 9c       	mov	r12,r6
800041b2:	fe b0 f8 79 	rcall	800032a4 <d_make_comp>
800041b6:	8f 0c       	st.w	r7[0x0],r12
800041b8:	c2 00       	breq	800041f8 <d_bare_function_type+0xa0>
800041ba:	f8 c7 ff f8 	sub	r7,r12,-8
800041be:	ce 1b       	rjmp	80004180 <d_bare_function_type+0x28>
800041c0:	40 08       	lddsp	r8,sp[0x0]
800041c2:	58 08       	cp.w	r8,0
800041c4:	c1 a0       	breq	800041f8 <d_bare_function_type+0xa0>
800041c6:	70 29       	ld.w	r9,r8[0x8]
800041c8:	58 09       	cp.w	r9,0
800041ca:	c1 01       	brne	800041ea <d_bare_function_type+0x92>
800041cc:	70 18       	ld.w	r8,r8[0x4]
800041ce:	70 0a       	ld.w	r10,r8[0x0]
800041d0:	e0 4a 00 23 	cp.w	r10,35
800041d4:	c0 b1       	brne	800041ea <d_bare_function_type+0x92>
800041d6:	70 18       	ld.w	r8,r8[0x4]
800041d8:	70 4a       	ld.w	r10,r8[0x10]
800041da:	58 9a       	cp.w	r10,9
800041dc:	c0 71       	brne	800041ea <d_bare_function_type+0x92>
800041de:	70 18       	ld.w	r8,r8[0x4]
800041e0:	50 09       	stdsp	sp[0x0],r9
800041e2:	6c c9       	ld.w	r9,r6[0x30]
800041e4:	f2 08 01 08 	sub	r8,r9,r8
800041e8:	8d c8       	st.w	r6[0x30],r8
800041ea:	08 9a       	mov	r10,r4
800041ec:	0c 9c       	mov	r12,r6
800041ee:	40 09       	lddsp	r9,sp[0x0]
800041f0:	32 5b       	mov	r11,37
800041f2:	fe b0 f8 59 	rcall	800032a4 <d_make_comp>
800041f6:	c0 28       	rjmp	800041fa <d_bare_function_type+0xa2>
800041f8:	30 0c       	mov	r12,0
800041fa:	2f fd       	sub	sp,-4
800041fc:	d8 32       	popm	r0-r7,pc
	...

80004200 <d_operator_name>:
80004200:	d4 31       	pushm	r0-r7,lr
80004202:	78 39       	ld.w	r9,r12[0xc]
80004204:	18 97       	mov	r7,r12
80004206:	13 88       	ld.ub	r8,r9[0x0]
80004208:	58 08       	cp.w	r8,0
8000420a:	c0 30       	breq	80004210 <d_operator_name+0x10>
8000420c:	2f f9       	sub	r9,-1
8000420e:	99 39       	st.w	r12[0xc],r9
80004210:	6e 39       	ld.w	r9,r7[0xc]
80004212:	13 86       	ld.ub	r6,r9[0x0]
80004214:	58 06       	cp.w	r6,0
80004216:	c0 30       	breq	8000421c <d_operator_name+0x1c>
80004218:	2f f9       	sub	r9,-1
8000421a:	8f 39       	st.w	r7[0xc],r9
8000421c:	37 69       	mov	r9,118
8000421e:	f2 08 18 00 	cp.b	r8,r9
80004222:	c2 01       	brne	80004262 <d_operator_name+0x62>
80004224:	ec ca 00 30 	sub	r10,r6,48
80004228:	30 99       	mov	r9,9
8000422a:	f2 0a 18 00 	cp.b	r10,r9
8000422e:	e0 8b 00 1a 	brhi	80004262 <d_operator_name+0x62>
80004232:	0e 9c       	mov	r12,r7
80004234:	fe b0 fb 16 	rcall	80003860 <d_source_name>
80004238:	6e 58       	ld.w	r8,r7[0x14]
8000423a:	18 99       	mov	r9,r12
8000423c:	6e 6a       	ld.w	r10,r7[0x18]
8000423e:	14 38       	cp.w	r8,r10
80004240:	c5 d4       	brge	800042fa <d_operator_name+0xfa>
80004242:	f0 ca ff ff 	sub	r10,r8,-1
80004246:	8f 5a       	st.w	r7[0x14],r10
80004248:	f0 08 00 18 	add	r8,r8,r8<<0x1
8000424c:	6e 4a       	ld.w	r10,r7[0x10]
8000424e:	f4 08 00 2c 	add	r12,r10,r8<<0x2
80004252:	c5 50       	breq	800042fc <d_operator_name+0xfc>
80004254:	58 09       	cp.w	r9,0
80004256:	c5 20       	breq	800042fa <d_operator_name+0xfa>
80004258:	23 06       	sub	r6,48
8000425a:	99 29       	st.w	r12[0x8],r9
8000425c:	99 16       	st.w	r12[0x4],r6
8000425e:	32 c8       	mov	r8,44
80004260:	c3 e8       	rjmp	800042dc <d_operator_name+0xdc>
80004262:	37 69       	mov	r9,118
80004264:	f2 06 18 00 	cp.b	r6,r9
80004268:	5f 0a       	sreq	r10
8000426a:	36 39       	mov	r9,99
8000426c:	f2 08 18 00 	cp.b	r8,r9
80004270:	5f 09       	sreq	r9
80004272:	f5 e9 00 09 	and	r9,r10,r9
80004276:	c0 b0       	breq	8000428c <d_operator_name+0x8c>
80004278:	0e 9c       	mov	r12,r7
8000427a:	fe b0 fc 5f 	rcall	80003b38 <d_type>
8000427e:	30 09       	mov	r9,0
80004280:	18 9a       	mov	r10,r12
80004282:	32 db       	mov	r11,45
80004284:	0e 9c       	mov	r12,r7
80004286:	fe b0 f8 0f 	rcall	800032a4 <d_make_comp>
8000428a:	d8 32       	popm	r0-r7,pc
8000428c:	49 d3       	lddpc	r3,80004300 <d_operator_name+0x100>
8000428e:	33 4a       	mov	r10,52
80004290:	e6 c3 fc bc 	sub	r3,r3,-836
80004294:	30 09       	mov	r9,0
80004296:	30 24       	mov	r4,2
80004298:	f4 09 01 01 	sub	r1,r10,r9
8000429c:	e2 04 0c 00 	divs	r0,r1,r4
800042a0:	f2 00 00 0b 	add	r11,r9,r0
800042a4:	f6 0e 15 04 	lsl	lr,r11,0x4
800042a8:	e6 0e 00 0e 	add	lr,r3,lr
800042ac:	7c 05       	ld.w	r5,lr[0x0]
800042ae:	0b 8c       	ld.ub	r12,r5[0x0]
800042b0:	f8 08 18 00 	cp.b	r8,r12
800042b4:	c1 61       	brne	800042e0 <d_operator_name+0xe0>
800042b6:	0b 9c       	ld.ub	r12,r5[0x1]
800042b8:	f8 06 18 00 	cp.b	r6,r12
800042bc:	c1 61       	brne	800042e8 <d_operator_name+0xe8>
800042be:	6e 5c       	ld.w	r12,r7[0x14]
800042c0:	6e 68       	ld.w	r8,r7[0x18]
800042c2:	10 3c       	cp.w	r12,r8
800042c4:	c1 b4       	brge	800042fa <d_operator_name+0xfa>
800042c6:	f8 c8 ff ff 	sub	r8,r12,-1
800042ca:	8f 58       	st.w	r7[0x14],r8
800042cc:	f8 0c 00 1c 	add	r12,r12,r12<<0x1
800042d0:	6e 48       	ld.w	r8,r7[0x10]
800042d2:	f0 0c 00 2c 	add	r12,r8,r12<<0x2
800042d6:	c1 30       	breq	800042fc <d_operator_name+0xfc>
800042d8:	99 1e       	st.w	r12[0x4],lr
800042da:	32 b8       	mov	r8,43
800042dc:	99 08       	st.w	r12[0x0],r8
800042de:	d8 32       	popm	r0-r7,pc
800042e0:	f8 08 18 00 	cp.b	r8,r12
800042e4:	c0 83       	brcs	800042f4 <d_operator_name+0xf4>
800042e6:	c0 48       	rjmp	800042ee <d_operator_name+0xee>
800042e8:	f8 06 18 00 	cp.b	r6,r12
800042ec:	c0 43       	brcs	800042f4 <d_operator_name+0xf4>
800042ee:	f6 c9 ff ff 	sub	r9,r11,-1
800042f2:	c0 28       	rjmp	800042f6 <d_operator_name+0xf6>
800042f4:	16 9a       	mov	r10,r11
800042f6:	14 39       	cp.w	r9,r10
800042f8:	cd 01       	brne	80004298 <d_operator_name+0x98>
800042fa:	30 0c       	mov	r12,0
800042fc:	d8 32       	popm	r0-r7,pc
800042fe:	00 00       	add	r0,r0
80004300:	80 00       	ld.sh	r0,r0[0x0]
80004302:	5e bc       	rethi	r12

80004304 <d_unqualified_name>:
80004304:	d4 21       	pushm	r4-r7,lr
80004306:	30 9a       	mov	r10,9
80004308:	78 39       	ld.w	r9,r12[0xc]
8000430a:	18 97       	mov	r7,r12
8000430c:	13 88       	ld.ub	r8,r9[0x0]
8000430e:	f0 cb 00 30 	sub	r11,r8,48
80004312:	f4 0b 18 00 	cp.b	r11,r10
80004316:	e0 8b 00 05 	brhi	80004320 <d_unqualified_name+0x1c>
8000431a:	fe b0 fa a3 	rcall	80003860 <d_source_name>
8000431e:	d8 22       	popm	r4-r7,pc
80004320:	f0 cb 00 61 	sub	r11,r8,97
80004324:	31 9a       	mov	r10,25
80004326:	f4 0b 18 00 	cp.b	r11,r10
8000432a:	e0 8b 00 12 	brhi	8000434e <d_unqualified_name+0x4a>
8000432e:	c6 9f       	rcall	80004200 <d_operator_name>
80004330:	e0 80 00 a5 	breq	8000447a <d_unqualified_name+0x176>
80004334:	78 08       	ld.w	r8,r12[0x0]
80004336:	e0 48 00 2b 	cp.w	r8,43
8000433a:	e0 81 00 a0 	brne	8000447a <d_unqualified_name+0x176>
8000433e:	78 18       	ld.w	r8,r12[0x4]
80004340:	6e c9       	ld.w	r9,r7[0x30]
80004342:	70 28       	ld.w	r8,r8[0x8]
80004344:	f2 08 00 08 	add	r8,r9,r8
80004348:	2f 98       	sub	r8,-7
8000434a:	8f c8       	st.w	r7[0x30],r8
8000434c:	d8 22       	popm	r4-r7,pc
8000434e:	f0 cb 00 43 	sub	r11,r8,67
80004352:	30 1a       	mov	r10,1
80004354:	f4 0b 18 00 	cp.b	r11,r10
80004358:	e0 8b 00 79 	brhi	8000444a <d_unqualified_name+0x146>
8000435c:	78 b8       	ld.w	r8,r12[0x2c]
8000435e:	58 08       	cp.w	r8,0
80004360:	c0 b0       	breq	80004376 <d_unqualified_name+0x72>
80004362:	70 09       	ld.w	r9,r8[0x0]
80004364:	58 09       	cp.w	r9,0
80004366:	c0 30       	breq	8000436c <d_unqualified_name+0x68>
80004368:	59 69       	cp.w	r9,22
8000436a:	c0 61       	brne	80004376 <d_unqualified_name+0x72>
8000436c:	70 28       	ld.w	r8,r8[0x8]
8000436e:	6e c9       	ld.w	r9,r7[0x30]
80004370:	f2 08 00 08 	add	r8,r9,r8
80004374:	8f c8       	st.w	r7[0x30],r8
80004376:	6e 38       	ld.w	r8,r7[0xc]
80004378:	34 3a       	mov	r10,67
8000437a:	11 89       	ld.ub	r9,r8[0x0]
8000437c:	f4 09 18 00 	cp.b	r9,r10
80004380:	c0 60       	breq	8000438c <d_unqualified_name+0x88>
80004382:	34 4a       	mov	r10,68
80004384:	f4 09 18 00 	cp.b	r9,r10
80004388:	c7 71       	brne	80004476 <d_unqualified_name+0x172>
8000438a:	c3 08       	rjmp	800043ea <d_unqualified_name+0xe6>
8000438c:	11 99       	ld.ub	r9,r8[0x1]
8000438e:	33 2a       	mov	r10,50
80004390:	f4 09 18 00 	cp.b	r9,r10
80004394:	c0 a0       	breq	800043a8 <d_unqualified_name+0xa4>
80004396:	33 3a       	mov	r10,51
80004398:	f4 09 18 00 	cp.b	r9,r10
8000439c:	c0 a0       	breq	800043b0 <d_unqualified_name+0xac>
8000439e:	33 1a       	mov	r10,49
800043a0:	f4 09 18 00 	cp.b	r9,r10
800043a4:	c6 91       	brne	80004476 <d_unqualified_name+0x172>
800043a6:	c0 38       	rjmp	800043ac <d_unqualified_name+0xa8>
800043a8:	30 29       	mov	r9,2
800043aa:	c0 48       	rjmp	800043b2 <d_unqualified_name+0xae>
800043ac:	30 19       	mov	r9,1
800043ae:	c0 28       	rjmp	800043b2 <d_unqualified_name+0xae>
800043b0:	30 39       	mov	r9,3
800043b2:	2f e8       	sub	r8,-2
800043b4:	8f 38       	st.w	r7[0xc],r8
800043b6:	6e 5c       	ld.w	r12,r7[0x14]
800043b8:	6e b8       	ld.w	r8,r7[0x2c]
800043ba:	6e 6a       	ld.w	r10,r7[0x18]
800043bc:	14 3c       	cp.w	r12,r10
800043be:	c0 35       	brlt	800043c4 <d_unqualified_name+0xc0>
800043c0:	30 0c       	mov	r12,0
800043c2:	c0 98       	rjmp	800043d4 <d_unqualified_name+0xd0>
800043c4:	f8 ca ff ff 	sub	r10,r12,-1
800043c8:	f8 0c 00 1c 	add	r12,r12,r12<<0x1
800043cc:	8f 5a       	st.w	r7[0x14],r10
800043ce:	6e 4a       	ld.w	r10,r7[0x10]
800043d0:	f4 0c 00 2c 	add	r12,r10,r12<<0x2
800043d4:	58 0c       	cp.w	r12,0
800043d6:	5f 0b       	sreq	r11
800043d8:	58 08       	cp.w	r8,0
800043da:	5f 0a       	sreq	r10
800043dc:	f7 ea 10 0a 	or	r10,r11,r10
800043e0:	c4 b1       	brne	80004476 <d_unqualified_name+0x172>
800043e2:	99 28       	st.w	r12[0x8],r8
800043e4:	99 19       	st.w	r12[0x4],r9
800043e6:	30 78       	mov	r8,7
800043e8:	c2 f8       	rjmp	80004446 <d_unqualified_name+0x142>
800043ea:	11 99       	ld.ub	r9,r8[0x1]
800043ec:	33 1a       	mov	r10,49
800043ee:	f4 09 18 00 	cp.b	r9,r10
800043f2:	c0 a0       	breq	80004406 <d_unqualified_name+0x102>
800043f4:	33 2a       	mov	r10,50
800043f6:	f4 09 18 00 	cp.b	r9,r10
800043fa:	c0 a0       	breq	8000440e <d_unqualified_name+0x10a>
800043fc:	33 0a       	mov	r10,48
800043fe:	f4 09 18 00 	cp.b	r9,r10
80004402:	c3 a1       	brne	80004476 <d_unqualified_name+0x172>
80004404:	c0 38       	rjmp	8000440a <d_unqualified_name+0x106>
80004406:	30 29       	mov	r9,2
80004408:	c0 48       	rjmp	80004410 <d_unqualified_name+0x10c>
8000440a:	30 19       	mov	r9,1
8000440c:	c0 28       	rjmp	80004410 <d_unqualified_name+0x10c>
8000440e:	30 39       	mov	r9,3
80004410:	2f e8       	sub	r8,-2
80004412:	8f 38       	st.w	r7[0xc],r8
80004414:	6e 5c       	ld.w	r12,r7[0x14]
80004416:	6e b8       	ld.w	r8,r7[0x2c]
80004418:	6e 6a       	ld.w	r10,r7[0x18]
8000441a:	14 3c       	cp.w	r12,r10
8000441c:	c0 35       	brlt	80004422 <d_unqualified_name+0x11e>
8000441e:	30 0c       	mov	r12,0
80004420:	c0 98       	rjmp	80004432 <d_unqualified_name+0x12e>
80004422:	f8 ca ff ff 	sub	r10,r12,-1
80004426:	f8 0c 00 1c 	add	r12,r12,r12<<0x1
8000442a:	8f 5a       	st.w	r7[0x14],r10
8000442c:	6e 4a       	ld.w	r10,r7[0x10]
8000442e:	f4 0c 00 2c 	add	r12,r10,r12<<0x2
80004432:	58 0c       	cp.w	r12,0
80004434:	5f 0b       	sreq	r11
80004436:	58 08       	cp.w	r8,0
80004438:	5f 0a       	sreq	r10
8000443a:	f7 ea 10 0a 	or	r10,r11,r10
8000443e:	c1 c1       	brne	80004476 <d_unqualified_name+0x172>
80004440:	99 28       	st.w	r12[0x8],r8
80004442:	99 19       	st.w	r12[0x4],r9
80004444:	30 88       	mov	r8,8
80004446:	99 08       	st.w	r12[0x0],r8
80004448:	d8 22       	popm	r4-r7,pc
8000444a:	34 ca       	mov	r10,76
8000444c:	f4 08 18 00 	cp.b	r8,r10
80004450:	c1 31       	brne	80004476 <d_unqualified_name+0x172>
80004452:	2f f9       	sub	r9,-1
80004454:	99 39       	st.w	r12[0xc],r9
80004456:	fe b0 fa 05 	rcall	80003860 <d_source_name>
8000445a:	18 96       	mov	r6,r12
8000445c:	c0 d0       	breq	80004476 <d_unqualified_name+0x172>
8000445e:	6e 38       	ld.w	r8,r7[0xc]
80004460:	35 f9       	mov	r9,95
80004462:	11 8a       	ld.ub	r10,r8[0x0]
80004464:	f2 0a 18 00 	cp.b	r10,r9
80004468:	c0 81       	brne	80004478 <d_unqualified_name+0x174>
8000446a:	2f f8       	sub	r8,-1
8000446c:	0e 9c       	mov	r12,r7
8000446e:	8f 38       	st.w	r7[0xc],r8
80004470:	fe b0 f7 d6 	rcall	8000341c <d_number>
80004474:	c0 24       	brge	80004478 <d_unqualified_name+0x174>
80004476:	d8 2a       	popm	r4-r7,pc,r12=0
80004478:	0c 9c       	mov	r12,r6
8000447a:	d8 22       	popm	r4-r7,pc

8000447c <d_expr_primary>:
8000447c:	d4 21       	pushm	r4-r7,lr
8000447e:	34 c9       	mov	r9,76
80004480:	78 38       	ld.w	r8,r12[0xc]
80004482:	18 97       	mov	r7,r12
80004484:	11 8a       	ld.ub	r10,r8[0x0]
80004486:	f2 0a 18 00 	cp.b	r10,r9
8000448a:	c5 d1       	brne	80004544 <d_expr_primary+0xc8>
8000448c:	2f f8       	sub	r8,-1
8000448e:	99 38       	st.w	r12[0xc],r8
80004490:	35 f9       	mov	r9,95
80004492:	11 8a       	ld.ub	r10,r8[0x0]
80004494:	35 ab       	mov	r11,90
80004496:	f2 0a 18 00 	cp.b	r10,r9
8000449a:	5f 09       	sreq	r9
8000449c:	f6 0a 18 00 	cp.b	r10,r11
800044a0:	5f 0a       	sreq	r10
800044a2:	f3 ea 10 0a 	or	r10,r9,r10
800044a6:	c1 30       	breq	800044cc <d_expr_primary+0x50>
800044a8:	58 09       	cp.w	r9,0
800044aa:	c0 30       	breq	800044b0 <d_expr_primary+0x34>
800044ac:	2f f8       	sub	r8,-1
800044ae:	99 38       	st.w	r12[0xc],r8
800044b0:	6e 38       	ld.w	r8,r7[0xc]
800044b2:	35 a9       	mov	r9,90
800044b4:	11 8a       	ld.ub	r10,r8[0x0]
800044b6:	f2 0a 18 00 	cp.b	r10,r9
800044ba:	c0 30       	breq	800044c0 <d_expr_primary+0x44>
800044bc:	30 0c       	mov	r12,0
800044be:	c3 a8       	rjmp	80004532 <d_expr_primary+0xb6>
800044c0:	2f f8       	sub	r8,-1
800044c2:	30 0b       	mov	r11,0
800044c4:	8f 38       	st.w	r7[0xc],r8
800044c6:	0e 9c       	mov	r12,r7
800044c8:	cc ad       	rcall	8000485c <d_encoding>
800044ca:	c3 48       	rjmp	80004532 <d_expr_primary+0xb6>
800044cc:	fe b0 fb 36 	rcall	80003b38 <d_type>
800044d0:	18 96       	mov	r6,r12
800044d2:	c3 90       	breq	80004544 <d_expr_primary+0xc8>
800044d4:	78 08       	ld.w	r8,r12[0x0]
800044d6:	e0 48 00 23 	cp.w	r8,35
800044da:	c0 a1       	brne	800044ee <d_expr_primary+0x72>
800044dc:	78 18       	ld.w	r8,r12[0x4]
800044de:	70 49       	ld.w	r9,r8[0x10]
800044e0:	58 09       	cp.w	r9,0
800044e2:	c0 60       	breq	800044ee <d_expr_primary+0x72>
800044e4:	70 18       	ld.w	r8,r8[0x4]
800044e6:	6e c9       	ld.w	r9,r7[0x30]
800044e8:	f2 08 01 08 	sub	r8,r9,r8
800044ec:	8f c8       	st.w	r7[0x30],r8
800044ee:	6e 38       	ld.w	r8,r7[0xc]
800044f0:	36 e9       	mov	r9,110
800044f2:	11 8a       	ld.ub	r10,r8[0x0]
800044f4:	f2 0a 18 00 	cp.b	r10,r9
800044f8:	c0 30       	breq	800044fe <d_expr_primary+0x82>
800044fa:	33 45       	mov	r5,52
800044fc:	c0 48       	rjmp	80004504 <d_expr_primary+0x88>
800044fe:	2f f8       	sub	r8,-1
80004500:	33 55       	mov	r5,53
80004502:	8f 38       	st.w	r7[0xc],r8
80004504:	6e 3b       	ld.w	r11,r7[0xc]
80004506:	34 59       	mov	r9,69
80004508:	c0 48       	rjmp	80004510 <d_expr_primary+0x94>
8000450a:	58 08       	cp.w	r8,0
8000450c:	c1 c0       	breq	80004544 <d_expr_primary+0xc8>
8000450e:	8f 3c       	st.w	r7[0xc],r12
80004510:	6e 3a       	ld.w	r10,r7[0xc]
80004512:	f4 cc ff ff 	sub	r12,r10,-1
80004516:	15 88       	ld.ub	r8,r10[0x0]
80004518:	f2 08 18 00 	cp.b	r8,r9
8000451c:	cf 71       	brne	8000450a <d_expr_primary+0x8e>
8000451e:	16 1a       	sub	r10,r11
80004520:	0e 9c       	mov	r12,r7
80004522:	fe b0 f7 61 	rcall	800033e4 <d_make_name>
80004526:	0c 9a       	mov	r10,r6
80004528:	18 99       	mov	r9,r12
8000452a:	0a 9b       	mov	r11,r5
8000452c:	0e 9c       	mov	r12,r7
8000452e:	fe b0 f6 bb 	rcall	800032a4 <d_make_comp>
80004532:	6e 38       	ld.w	r8,r7[0xc]
80004534:	34 59       	mov	r9,69
80004536:	11 8a       	ld.ub	r10,r8[0x0]
80004538:	f2 0a 18 00 	cp.b	r10,r9
8000453c:	c0 41       	brne	80004544 <d_expr_primary+0xc8>
8000453e:	2f f8       	sub	r8,-1
80004540:	8f 38       	st.w	r7[0xc],r8
80004542:	d8 22       	popm	r4-r7,pc
80004544:	d8 2a       	popm	r4-r7,pc,r12=0
	...

80004548 <d_template_args>:
80004548:	d4 31       	pushm	r0-r7,lr
8000454a:	20 1d       	sub	sp,4
8000454c:	34 99       	mov	r9,73
8000454e:	78 38       	ld.w	r8,r12[0xc]
80004550:	18 96       	mov	r6,r12
80004552:	78 b1       	ld.w	r1,r12[0x2c]
80004554:	11 84       	ld.ub	r4,r8[0x0]
80004556:	f2 04 18 00 	cp.b	r4,r9
8000455a:	c4 f1       	brne	800045f8 <d_template_args+0xb0>
8000455c:	2f f8       	sub	r8,-1
8000455e:	99 38       	st.w	r12[0xc],r8
80004560:	34 55       	mov	r5,69
80004562:	11 89       	ld.ub	r9,r8[0x0]
80004564:	ea 09 18 00 	cp.b	r9,r5
80004568:	c0 91       	brne	8000457a <d_template_args+0x32>
8000456a:	2f f8       	sub	r8,-1
8000456c:	30 09       	mov	r9,0
8000456e:	99 38       	st.w	r12[0xc],r8
80004570:	32 ab       	mov	r11,42
80004572:	12 9a       	mov	r10,r9
80004574:	fe b0 f6 98 	rcall	800032a4 <d_make_comp>
80004578:	c4 18       	rjmp	800045fa <d_template_args+0xb2>
8000457a:	fa c7 ff fc 	sub	r7,sp,-4
8000457e:	30 08       	mov	r8,0
80004580:	34 c3       	mov	r3,76
80004582:	0e d8       	st.w	--r7,r8
80004584:	35 82       	mov	r2,88
80004586:	6c 39       	ld.w	r9,r6[0xc]
80004588:	13 88       	ld.ub	r8,r9[0x0]
8000458a:	e6 08 18 00 	cp.b	r8,r3
8000458e:	c1 50       	breq	800045b8 <d_template_args+0x70>
80004590:	e4 08 18 00 	cp.b	r8,r2
80004594:	c0 50       	breq	8000459e <d_template_args+0x56>
80004596:	e8 08 18 00 	cp.b	r8,r4
8000459a:	c1 51       	brne	800045c4 <d_template_args+0x7c>
8000459c:	c1 18       	rjmp	800045be <d_template_args+0x76>
8000459e:	2f f9       	sub	r9,-1
800045a0:	0c 9c       	mov	r12,r6
800045a2:	8d 39       	st.w	r6[0xc],r9
800045a4:	fe b0 f9 b2 	rcall	80003908 <d_expression>
800045a8:	6c 38       	ld.w	r8,r6[0xc]
800045aa:	11 89       	ld.ub	r9,r8[0x0]
800045ac:	ea 09 18 00 	cp.b	r9,r5
800045b0:	c2 41       	brne	800045f8 <d_template_args+0xb0>
800045b2:	2f f8       	sub	r8,-1
800045b4:	8d 38       	st.w	r6[0xc],r8
800045b6:	c0 a8       	rjmp	800045ca <d_template_args+0x82>
800045b8:	0c 9c       	mov	r12,r6
800045ba:	c6 1f       	rcall	8000447c <d_expr_primary>
800045bc:	c0 78       	rjmp	800045ca <d_template_args+0x82>
800045be:	0c 9c       	mov	r12,r6
800045c0:	cc 4f       	rcall	80004548 <d_template_args>
800045c2:	c0 48       	rjmp	800045ca <d_template_args+0x82>
800045c4:	0c 9c       	mov	r12,r6
800045c6:	fe b0 fa b9 	rcall	80003b38 <d_type>
800045ca:	58 0c       	cp.w	r12,0
800045cc:	c1 60       	breq	800045f8 <d_template_args+0xb0>
800045ce:	18 9a       	mov	r10,r12
800045d0:	30 09       	mov	r9,0
800045d2:	32 ab       	mov	r11,42
800045d4:	0c 9c       	mov	r12,r6
800045d6:	fe b0 f6 67 	rcall	800032a4 <d_make_comp>
800045da:	8f 0c       	st.w	r7[0x0],r12
800045dc:	c0 e0       	breq	800045f8 <d_template_args+0xb0>
800045de:	6c 38       	ld.w	r8,r6[0xc]
800045e0:	11 89       	ld.ub	r9,r8[0x0]
800045e2:	ea 09 18 00 	cp.b	r9,r5
800045e6:	c0 40       	breq	800045ee <d_template_args+0xa6>
800045e8:	f8 c7 ff f8 	sub	r7,r12,-8
800045ec:	cc db       	rjmp	80004586 <d_template_args+0x3e>
800045ee:	8d b1       	st.w	r6[0x2c],r1
800045f0:	2f f8       	sub	r8,-1
800045f2:	40 0c       	lddsp	r12,sp[0x0]
800045f4:	8d 38       	st.w	r6[0xc],r8
800045f6:	c0 28       	rjmp	800045fa <d_template_args+0xb2>
800045f8:	30 0c       	mov	r12,0
800045fa:	2f fd       	sub	sp,-4
800045fc:	d8 32       	popm	r0-r7,pc
	...

80004600 <d_name>:
80004600:	d4 31       	pushm	r0-r7,lr
80004602:	20 1d       	sub	sp,4
80004604:	34 ea       	mov	r10,78
80004606:	78 38       	ld.w	r8,r12[0xc]
80004608:	18 97       	mov	r7,r12
8000460a:	11 89       	ld.ub	r9,r8[0x0]
8000460c:	f4 09 18 00 	cp.b	r9,r10
80004610:	c1 40       	breq	80004638 <d_name+0x38>
80004612:	e0 8b 00 08 	brhi	80004622 <d_name+0x22>
80004616:	34 c8       	mov	r8,76
80004618:	f0 09 18 00 	cp.b	r9,r8
8000461c:	e0 81 00 f8 	brne	8000480c <d_name+0x20c>
80004620:	cc 98       	rjmp	800047b2 <d_name+0x1b2>
80004622:	35 3a       	mov	r10,83
80004624:	f4 09 18 00 	cp.b	r9,r10
80004628:	e0 80 00 c9 	breq	800047ba <d_name+0x1ba>
8000462c:	35 aa       	mov	r10,90
8000462e:	f4 09 18 00 	cp.b	r9,r10
80004632:	e0 81 00 ed 	brne	8000480c <d_name+0x20c>
80004636:	c8 48       	rjmp	8000473e <d_name+0x13e>
80004638:	2f f8       	sub	r8,-1
8000463a:	30 1a       	mov	r10,1
8000463c:	99 38       	st.w	r12[0xc],r8
8000463e:	1a 9b       	mov	r11,sp
80004640:	fe b0 f7 3c 	rcall	800034b8 <d_cv_qualifiers>
80004644:	18 93       	mov	r3,r12
80004646:	e0 80 01 02 	breq	8000484a <d_name+0x24a>
8000464a:	30 02       	mov	r2,0
8000464c:	31 91       	mov	r1,25
8000464e:	30 90       	mov	r0,9
80004650:	04 94       	mov	r4,r2
80004652:	35 35       	mov	r5,83
80004654:	6e 38       	ld.w	r8,r7[0xc]
80004656:	11 86       	ld.ub	r6,r8[0x0]
80004658:	58 06       	cp.w	r6,0
8000465a:	c6 20       	breq	8000471e <d_name+0x11e>
8000465c:	ec c8 00 61 	sub	r8,r6,97
80004660:	e2 08 18 00 	cp.b	r8,r1
80004664:	5f 89       	srls	r9
80004666:	ec c8 00 30 	sub	r8,r6,48
8000466a:	e0 08 18 00 	cp.b	r8,r0
8000466e:	5f 88       	srls	r8
80004670:	f3 e8 10 08 	or	r8,r9,r8
80004674:	e8 08 18 00 	cp.b	r8,r4
80004678:	c1 21       	brne	8000469c <d_name+0x9c>
8000467a:	34 48       	mov	r8,68
8000467c:	f0 06 18 00 	cp.b	r6,r8
80004680:	5f 09       	sreq	r9
80004682:	34 38       	mov	r8,67
80004684:	f0 06 18 00 	cp.b	r6,r8
80004688:	5f 08       	sreq	r8
8000468a:	f3 e8 10 08 	or	r8,r9,r8
8000468e:	e8 08 18 00 	cp.b	r8,r4
80004692:	c0 51       	brne	8000469c <d_name+0x9c>
80004694:	34 c8       	mov	r8,76
80004696:	f0 06 18 00 	cp.b	r6,r8
8000469a:	c0 41       	brne	800046a2 <d_name+0xa2>
8000469c:	0e 9c       	mov	r12,r7
8000469e:	c3 3e       	rcall	80004304 <d_unqualified_name>
800046a0:	c2 08       	rjmp	800046e0 <d_name+0xe0>
800046a2:	ea 06 18 00 	cp.b	r6,r5
800046a6:	c0 61       	brne	800046b2 <d_name+0xb2>
800046a8:	30 1b       	mov	r11,1
800046aa:	0e 9c       	mov	r12,r7
800046ac:	fe b0 f7 86 	rcall	800035b8 <d_substitution>
800046b0:	c1 88       	rjmp	800046e0 <d_name+0xe0>
800046b2:	34 98       	mov	r8,73
800046b4:	f0 06 18 00 	cp.b	r6,r8
800046b8:	c0 71       	brne	800046c6 <d_name+0xc6>
800046ba:	58 02       	cp.w	r2,0
800046bc:	c3 20       	breq	80004720 <d_name+0x120>
800046be:	0e 9c       	mov	r12,r7
800046c0:	c4 4f       	rcall	80004548 <d_template_args>
800046c2:	30 4b       	mov	r11,4
800046c4:	c1 18       	rjmp	800046e6 <d_name+0xe6>
800046c6:	35 48       	mov	r8,84
800046c8:	f0 06 18 00 	cp.b	r6,r8
800046cc:	c0 51       	brne	800046d6 <d_name+0xd6>
800046ce:	0e 9c       	mov	r12,r7
800046d0:	fe b0 f7 40 	rcall	80003550 <d_template_param>
800046d4:	c0 68       	rjmp	800046e0 <d_name+0xe0>
800046d6:	34 58       	mov	r8,69
800046d8:	f0 06 18 00 	cp.b	r6,r8
800046dc:	c2 11       	brne	8000471e <d_name+0x11e>
800046de:	c2 18       	rjmp	80004720 <d_name+0x120>
800046e0:	58 02       	cp.w	r2,0
800046e2:	c0 70       	breq	800046f0 <d_name+0xf0>
800046e4:	30 1b       	mov	r11,1
800046e6:	18 99       	mov	r9,r12
800046e8:	04 9a       	mov	r10,r2
800046ea:	0e 9c       	mov	r12,r7
800046ec:	fe b0 f5 dc 	rcall	800032a4 <d_make_comp>
800046f0:	18 92       	mov	r2,r12
800046f2:	ea 06 18 00 	cp.b	r6,r5
800046f6:	ca f0       	breq	80004654 <d_name+0x54>
800046f8:	6e 38       	ld.w	r8,r7[0xc]
800046fa:	11 89       	ld.ub	r9,r8[0x0]
800046fc:	34 58       	mov	r8,69
800046fe:	f0 09 18 00 	cp.b	r9,r8
80004702:	ca 90       	breq	80004654 <d_name+0x54>
80004704:	58 0c       	cp.w	r12,0
80004706:	c0 d0       	breq	80004720 <d_name+0x120>
80004708:	6e 88       	ld.w	r8,r7[0x20]
8000470a:	6e 99       	ld.w	r9,r7[0x24]
8000470c:	12 38       	cp.w	r8,r9
8000470e:	c0 84       	brge	8000471e <d_name+0x11e>
80004710:	f0 c9 ff ff 	sub	r9,r8,-1
80004714:	8f 89       	st.w	r7[0x20],r9
80004716:	6e 79       	ld.w	r9,r7[0x1c]
80004718:	f2 08 09 2c 	st.w	r9[r8<<0x2],r12
8000471c:	c9 cb       	rjmp	80004654 <d_name+0x54>
8000471e:	30 02       	mov	r2,0
80004720:	87 02       	st.w	r3[0x0],r2
80004722:	58 02       	cp.w	r2,0
80004724:	e0 80 00 93 	breq	8000484a <d_name+0x24a>
80004728:	6e 38       	ld.w	r8,r7[0xc]
8000472a:	34 59       	mov	r9,69
8000472c:	11 8a       	ld.ub	r10,r8[0x0]
8000472e:	f2 0a 18 00 	cp.b	r10,r9
80004732:	e0 81 00 8c 	brne	8000484a <d_name+0x24a>
80004736:	2f f8       	sub	r8,-1
80004738:	40 06       	lddsp	r6,sp[0x0]
8000473a:	8f 38       	st.w	r7[0xc],r8
8000473c:	c8 88       	rjmp	8000484c <d_name+0x24c>
8000473e:	2f f8       	sub	r8,-1
80004740:	30 0b       	mov	r11,0
80004742:	99 38       	st.w	r12[0xc],r8
80004744:	c8 cc       	rcall	8000485c <d_encoding>
80004746:	6e 38       	ld.w	r8,r7[0xc]
80004748:	18 96       	mov	r6,r12
8000474a:	11 8a       	ld.ub	r10,r8[0x0]
8000474c:	34 59       	mov	r9,69
8000474e:	f2 0a 18 00 	cp.b	r10,r9
80004752:	c7 c1       	brne	8000484a <d_name+0x24a>
80004754:	2f f8       	sub	r8,-1
80004756:	8f 38       	st.w	r7[0xc],r8
80004758:	37 39       	mov	r9,115
8000475a:	11 8a       	ld.ub	r10,r8[0x0]
8000475c:	f2 0a 18 00 	cp.b	r10,r9
80004760:	c1 51       	brne	8000478a <d_name+0x18a>
80004762:	2f f8       	sub	r8,-1
80004764:	8f 38       	st.w	r7[0xc],r8
80004766:	35 f9       	mov	r9,95
80004768:	11 8a       	ld.ub	r10,r8[0x0]
8000476a:	f2 0a 18 00 	cp.b	r10,r9
8000476e:	c0 71       	brne	8000477c <d_name+0x17c>
80004770:	2f f8       	sub	r8,-1
80004772:	0e 9c       	mov	r12,r7
80004774:	8f 38       	st.w	r7[0xc],r8
80004776:	fe b0 f6 53 	rcall	8000341c <d_number>
8000477a:	c6 85       	brlt	8000484a <d_name+0x24a>
8000477c:	4b 6b       	lddpc	r11,80004854 <d_name+0x254>
8000477e:	30 ea       	mov	r10,14
80004780:	0e 9c       	mov	r12,r7
80004782:	fe b0 f6 31 	rcall	800033e4 <d_make_name>
80004786:	18 99       	mov	r9,r12
80004788:	c1 18       	rjmp	800047aa <d_name+0x1aa>
8000478a:	0e 9c       	mov	r12,r7
8000478c:	c3 af       	rcall	80004600 <d_name>
8000478e:	6e 38       	ld.w	r8,r7[0xc]
80004790:	18 95       	mov	r5,r12
80004792:	11 8a       	ld.ub	r10,r8[0x0]
80004794:	35 f9       	mov	r9,95
80004796:	f2 0a 18 00 	cp.b	r10,r9
8000479a:	c0 71       	brne	800047a8 <d_name+0x1a8>
8000479c:	2f f8       	sub	r8,-1
8000479e:	0e 9c       	mov	r12,r7
800047a0:	8f 38       	st.w	r7[0xc],r8
800047a2:	fe b0 f6 3d 	rcall	8000341c <d_number>
800047a6:	c5 25       	brlt	8000484a <d_name+0x24a>
800047a8:	0a 99       	mov	r9,r5
800047aa:	0c 9a       	mov	r10,r6
800047ac:	0e 9c       	mov	r12,r7
800047ae:	30 2b       	mov	r11,2
800047b0:	c4 a8       	rjmp	80004844 <d_name+0x244>
800047b2:	fe b0 fd a9 	rcall	80004304 <d_unqualified_name>
800047b6:	18 96       	mov	r6,r12
800047b8:	c4 a8       	rjmp	8000484c <d_name+0x24c>
800047ba:	11 9a       	ld.ub	r10,r8[0x1]
800047bc:	37 49       	mov	r9,116
800047be:	f2 0a 18 00 	cp.b	r10,r9
800047c2:	c0 70       	breq	800047d0 <d_name+0x1d0>
800047c4:	30 0b       	mov	r11,0
800047c6:	fe b0 f6 f9 	rcall	800035b8 <d_substitution>
800047ca:	30 18       	mov	r8,1
800047cc:	18 96       	mov	r6,r12
800047ce:	c1 68       	rjmp	800047fa <d_name+0x1fa>
800047d0:	2f e8       	sub	r8,-2
800047d2:	99 38       	st.w	r12[0xc],r8
800047d4:	fe b0 fd 98 	rcall	80004304 <d_unqualified_name>
800047d8:	4a 0b       	lddpc	r11,80004858 <d_name+0x258>
800047da:	18 96       	mov	r6,r12
800047dc:	30 3a       	mov	r10,3
800047de:	0e 9c       	mov	r12,r7
800047e0:	fe b0 f6 02 	rcall	800033e4 <d_make_name>
800047e4:	0c 99       	mov	r9,r6
800047e6:	18 9a       	mov	r10,r12
800047e8:	30 1b       	mov	r11,1
800047ea:	0e 9c       	mov	r12,r7
800047ec:	fe b0 f5 5c 	rcall	800032a4 <d_make_comp>
800047f0:	6e c8       	ld.w	r8,r7[0x30]
800047f2:	2f d8       	sub	r8,-3
800047f4:	18 96       	mov	r6,r12
800047f6:	8f c8       	st.w	r7[0x30],r8
800047f8:	30 08       	mov	r8,0
800047fa:	6e 39       	ld.w	r9,r7[0xc]
800047fc:	13 8a       	ld.ub	r10,r9[0x0]
800047fe:	34 99       	mov	r9,73
80004800:	f2 0a 18 00 	cp.b	r10,r9
80004804:	c2 41       	brne	8000484c <d_name+0x24c>
80004806:	58 08       	cp.w	r8,0
80004808:	c1 81       	brne	80004838 <d_name+0x238>
8000480a:	c0 b8       	rjmp	80004820 <d_name+0x220>
8000480c:	0e 9c       	mov	r12,r7
8000480e:	fe b0 fd 7b 	rcall	80004304 <d_unqualified_name>
80004812:	6e 38       	ld.w	r8,r7[0xc]
80004814:	18 96       	mov	r6,r12
80004816:	11 89       	ld.ub	r9,r8[0x0]
80004818:	34 98       	mov	r8,73
8000481a:	f0 09 18 00 	cp.b	r9,r8
8000481e:	c1 71       	brne	8000484c <d_name+0x24c>
80004820:	58 06       	cp.w	r6,0
80004822:	c1 50       	breq	8000484c <d_name+0x24c>
80004824:	6e 88       	ld.w	r8,r7[0x20]
80004826:	6e 99       	ld.w	r9,r7[0x24]
80004828:	12 38       	cp.w	r8,r9
8000482a:	c1 04       	brge	8000484a <d_name+0x24a>
8000482c:	f0 c9 ff ff 	sub	r9,r8,-1
80004830:	8f 89       	st.w	r7[0x20],r9
80004832:	6e 79       	ld.w	r9,r7[0x1c]
80004834:	f2 08 09 26 	st.w	r9[r8<<0x2],r6
80004838:	0e 9c       	mov	r12,r7
8000483a:	c8 7e       	rcall	80004548 <d_template_args>
8000483c:	0c 9a       	mov	r10,r6
8000483e:	18 99       	mov	r9,r12
80004840:	30 4b       	mov	r11,4
80004842:	0e 9c       	mov	r12,r7
80004844:	fe b0 f5 30 	rcall	800032a4 <d_make_comp>
80004848:	cb 7b       	rjmp	800047b6 <d_name+0x1b6>
8000484a:	30 06       	mov	r6,0
8000484c:	0c 9c       	mov	r12,r6
8000484e:	2f fd       	sub	sp,-4
80004850:	d8 32       	popm	r0-r7,pc
80004852:	00 00       	add	r0,r0
80004854:	80 00       	ld.sh	r0,r0[0x0]
80004856:	d4 fc       	*unknown*
80004858:	80 00       	ld.sh	r0,r0[0x0]
8000485a:	d5 0c       	*unknown*

8000485c <d_encoding>:
8000485c:	d4 31       	pushm	r0-r7,lr
8000485e:	78 38       	ld.w	r8,r12[0xc]
80004860:	11 89       	ld.ub	r9,r8[0x0]
80004862:	16 94       	mov	r4,r11
80004864:	35 4a       	mov	r10,84
80004866:	34 7b       	mov	r11,71
80004868:	f4 09 18 00 	cp.b	r9,r10
8000486c:	5f 05       	sreq	r5
8000486e:	f6 09 18 00 	cp.b	r9,r11
80004872:	5f 06       	sreq	r6
80004874:	18 97       	mov	r7,r12
80004876:	0c 45       	or	r5,r6
80004878:	30 09       	mov	r9,0
8000487a:	f2 05 18 00 	cp.b	r5,r9
8000487e:	e0 80 01 66 	breq	80004b4a <d_encoding+0x2ee>
80004882:	78 c9       	ld.w	r9,r12[0x30]
80004884:	f2 c6 ff ec 	sub	r6,r9,-20
80004888:	99 c6       	st.w	r12[0x30],r6
8000488a:	11 86       	ld.ub	r6,r8[0x0]
8000488c:	f4 06 18 00 	cp.b	r6,r10
80004890:	c0 81       	brne	800048a0 <d_encoding+0x44>
80004892:	f0 cb ff ff 	sub	r11,r8,-1
80004896:	99 3b       	st.w	r12[0xc],r11
80004898:	17 88       	ld.ub	r8,r11[0x0]
8000489a:	58 08       	cp.w	r8,0
8000489c:	c0 71       	brne	800048aa <d_encoding+0x4e>
8000489e:	c5 49       	rjmp	80004b46 <d_encoding+0x2ea>
800048a0:	f6 06 18 00 	cp.b	r6,r11
800048a4:	e0 81 01 51 	brne	80004b46 <d_encoding+0x2ea>
800048a8:	cb 08       	rjmp	80004a08 <d_encoding+0x1ac>
800048aa:	2f fb       	sub	r11,-1
800048ac:	99 3b       	st.w	r12[0xc],r11
800048ae:	35 3b       	mov	r11,83
800048b0:	f6 08 18 00 	cp.b	r8,r11
800048b4:	c4 c0       	breq	8000494c <d_encoding+0xf0>
800048b6:	e0 8b 00 19 	brhi	800048e8 <d_encoding+0x8c>
800048ba:	34 69       	mov	r9,70
800048bc:	f2 08 18 00 	cp.b	r8,r9
800048c0:	e0 80 00 96 	breq	800049ec <d_encoding+0x190>
800048c4:	e0 8b 00 08 	brhi	800048d4 <d_encoding+0x78>
800048c8:	34 39       	mov	r9,67
800048ca:	f2 08 18 00 	cp.b	r8,r9
800048ce:	e0 81 01 3c 	brne	80004b46 <d_encoding+0x2ea>
800048d2:	c7 18       	rjmp	800049b4 <d_encoding+0x158>
800048d4:	34 99       	mov	r9,73
800048d6:	f2 08 18 00 	cp.b	r8,r9
800048da:	c3 20       	breq	8000493e <d_encoding+0xe2>
800048dc:	34 a9       	mov	r9,74
800048de:	f2 08 18 00 	cp.b	r8,r9
800048e2:	e0 81 01 32 	brne	80004b46 <d_encoding+0x2ea>
800048e6:	c8 a8       	rjmp	800049fa <d_encoding+0x19e>
800048e8:	36 3b       	mov	r11,99
800048ea:	f6 08 18 00 	cp.b	r8,r11
800048ee:	c5 00       	breq	8000498e <d_encoding+0x132>
800048f0:	e0 8b 00 0b 	brhi	80004906 <d_encoding+0xaa>
800048f4:	f4 08 18 00 	cp.b	r8,r10
800048f8:	c1 a0       	breq	8000492c <d_encoding+0xd0>
800048fa:	35 6a       	mov	r10,86
800048fc:	f4 08 18 00 	cp.b	r8,r10
80004900:	e0 81 01 23 	brne	80004b46 <d_encoding+0x2ea>
80004904:	c0 b8       	rjmp	8000491a <d_encoding+0xbe>
80004906:	36 89       	mov	r9,104
80004908:	f2 08 18 00 	cp.b	r8,r9
8000490c:	c2 70       	breq	8000495a <d_encoding+0xfe>
8000490e:	37 69       	mov	r9,118
80004910:	f2 08 18 00 	cp.b	r8,r9
80004914:	e0 81 01 19 	brne	80004b46 <d_encoding+0x2ea>
80004918:	c2 e8       	rjmp	80004974 <d_encoding+0x118>
8000491a:	2f 19       	sub	r9,-15
8000491c:	99 c9       	st.w	r12[0x30],r9
8000491e:	fe b0 f9 0d 	rcall	80003b38 <d_type>
80004922:	30 09       	mov	r9,0
80004924:	18 9a       	mov	r10,r12
80004926:	30 9b       	mov	r11,9
80004928:	0e 9c       	mov	r12,r7
8000492a:	c7 49       	rjmp	80004c12 <d_encoding+0x3b6>
8000492c:	2f 69       	sub	r9,-10
8000492e:	99 c9       	st.w	r12[0x30],r9
80004930:	fe b0 f9 04 	rcall	80003b38 <d_type>
80004934:	30 09       	mov	r9,0
80004936:	18 9a       	mov	r10,r12
80004938:	30 ab       	mov	r11,10
8000493a:	0e 9c       	mov	r12,r7
8000493c:	c6 b9       	rjmp	80004c12 <d_encoding+0x3b6>
8000493e:	fe b0 f8 fd 	rcall	80003b38 <d_type>
80004942:	30 09       	mov	r9,0
80004944:	18 9a       	mov	r10,r12
80004946:	30 cb       	mov	r11,12
80004948:	0e 9c       	mov	r12,r7
8000494a:	c6 49       	rjmp	80004c12 <d_encoding+0x3b6>
8000494c:	fe b0 f8 f6 	rcall	80003b38 <d_type>
80004950:	30 09       	mov	r9,0
80004952:	18 9a       	mov	r10,r12
80004954:	30 db       	mov	r11,13
80004956:	0e 9c       	mov	r12,r7
80004958:	c5 d9       	rjmp	80004c12 <d_encoding+0x3b6>
8000495a:	36 8b       	mov	r11,104
8000495c:	fe b0 f5 86 	rcall	80003468 <d_call_offset>
80004960:	e0 80 00 f3 	breq	80004b46 <d_encoding+0x2ea>
80004964:	30 0b       	mov	r11,0
80004966:	0e 9c       	mov	r12,r7
80004968:	c7 af       	rcall	8000485c <d_encoding>
8000496a:	30 09       	mov	r9,0
8000496c:	18 9a       	mov	r10,r12
8000496e:	30 fb       	mov	r11,15
80004970:	0e 9c       	mov	r12,r7
80004972:	c5 09       	rjmp	80004c12 <d_encoding+0x3b6>
80004974:	37 6b       	mov	r11,118
80004976:	fe b0 f5 79 	rcall	80003468 <d_call_offset>
8000497a:	e0 80 00 e6 	breq	80004b46 <d_encoding+0x2ea>
8000497e:	30 0b       	mov	r11,0
80004980:	0e 9c       	mov	r12,r7
80004982:	c6 df       	rcall	8000485c <d_encoding>
80004984:	30 09       	mov	r9,0
80004986:	18 9a       	mov	r10,r12
80004988:	31 0b       	mov	r11,16
8000498a:	0e 9c       	mov	r12,r7
8000498c:	c4 39       	rjmp	80004c12 <d_encoding+0x3b6>
8000498e:	30 0b       	mov	r11,0
80004990:	fe b0 f5 6c 	rcall	80003468 <d_call_offset>
80004994:	e0 80 00 d9 	breq	80004b46 <d_encoding+0x2ea>
80004998:	30 0b       	mov	r11,0
8000499a:	0e 9c       	mov	r12,r7
8000499c:	fe b0 f5 66 	rcall	80003468 <d_call_offset>
800049a0:	e0 80 00 d3 	breq	80004b46 <d_encoding+0x2ea>
800049a4:	30 0b       	mov	r11,0
800049a6:	0e 9c       	mov	r12,r7
800049a8:	c5 af       	rcall	8000485c <d_encoding>
800049aa:	30 09       	mov	r9,0
800049ac:	18 9a       	mov	r10,r12
800049ae:	31 1b       	mov	r11,17
800049b0:	0e 9c       	mov	r12,r7
800049b2:	c3 09       	rjmp	80004c12 <d_encoding+0x3b6>
800049b4:	fe b0 f8 c2 	rcall	80003b38 <d_type>
800049b8:	18 96       	mov	r6,r12
800049ba:	0e 9c       	mov	r12,r7
800049bc:	fe b0 f5 30 	rcall	8000341c <d_number>
800049c0:	e0 85 00 c3 	brlt	80004b46 <d_encoding+0x2ea>
800049c4:	6e 38       	ld.w	r8,r7[0xc]
800049c6:	35 f9       	mov	r9,95
800049c8:	11 8a       	ld.ub	r10,r8[0x0]
800049ca:	f2 0a 18 00 	cp.b	r10,r9
800049ce:	e0 81 00 bc 	brne	80004b46 <d_encoding+0x2ea>
800049d2:	2f f8       	sub	r8,-1
800049d4:	0e 9c       	mov	r12,r7
800049d6:	8f 38       	st.w	r7[0xc],r8
800049d8:	fe b0 f8 b0 	rcall	80003b38 <d_type>
800049dc:	6e c8       	ld.w	r8,r7[0x30]
800049de:	18 9a       	mov	r10,r12
800049e0:	2f b8       	sub	r8,-5
800049e2:	0c 99       	mov	r9,r6
800049e4:	0e 9c       	mov	r12,r7
800049e6:	8f c8       	st.w	r7[0x30],r8
800049e8:	30 bb       	mov	r11,11
800049ea:	c1 49       	rjmp	80004c12 <d_encoding+0x3b6>
800049ec:	fe b0 f8 a6 	rcall	80003b38 <d_type>
800049f0:	30 09       	mov	r9,0
800049f2:	18 9a       	mov	r10,r12
800049f4:	30 eb       	mov	r11,14
800049f6:	0e 9c       	mov	r12,r7
800049f8:	c0 d9       	rjmp	80004c12 <d_encoding+0x3b6>
800049fa:	fe b0 f8 9f 	rcall	80003b38 <d_type>
800049fe:	30 09       	mov	r9,0
80004a00:	18 9a       	mov	r10,r12
80004a02:	31 2b       	mov	r11,18
80004a04:	0e 9c       	mov	r12,r7
80004a06:	c0 69       	rjmp	80004c12 <d_encoding+0x3b6>
80004a08:	f0 c9 ff ff 	sub	r9,r8,-1
80004a0c:	99 39       	st.w	r12[0xc],r9
80004a0e:	13 88       	ld.ub	r8,r9[0x0]
80004a10:	58 08       	cp.w	r8,0
80004a12:	e0 80 00 9a 	breq	80004b46 <d_encoding+0x2ea>
80004a16:	2f f9       	sub	r9,-1
80004a18:	99 39       	st.w	r12[0xc],r9
80004a1a:	35 29       	mov	r9,82
80004a1c:	f2 08 18 00 	cp.b	r8,r9
80004a20:	c1 a0       	breq	80004a54 <d_encoding+0x1f8>
80004a22:	e0 8b 00 08 	brhi	80004a32 <d_encoding+0x1d6>
80004a26:	34 19       	mov	r9,65
80004a28:	f2 08 18 00 	cp.b	r8,r9
80004a2c:	e0 81 00 8d 	brne	80004b46 <d_encoding+0x2ea>
80004a30:	c1 98       	rjmp	80004a62 <d_encoding+0x206>
80004a32:	35 69       	mov	r9,86
80004a34:	f2 08 18 00 	cp.b	r8,r9
80004a38:	c0 70       	breq	80004a46 <d_encoding+0x1ea>
80004a3a:	37 29       	mov	r9,114
80004a3c:	f2 08 18 00 	cp.b	r8,r9
80004a40:	e0 81 00 83 	brne	80004b46 <d_encoding+0x2ea>
80004a44:	c1 68       	rjmp	80004a70 <d_encoding+0x214>
80004a46:	fe b0 fd dd 	rcall	80004600 <d_name>
80004a4a:	30 09       	mov	r9,0
80004a4c:	18 9a       	mov	r10,r12
80004a4e:	31 3b       	mov	r11,19
80004a50:	0e 9c       	mov	r12,r7
80004a52:	ce 08       	rjmp	80004c12 <d_encoding+0x3b6>
80004a54:	fe b0 fd d6 	rcall	80004600 <d_name>
80004a58:	30 09       	mov	r9,0
80004a5a:	18 9a       	mov	r10,r12
80004a5c:	31 4b       	mov	r11,20
80004a5e:	0e 9c       	mov	r12,r7
80004a60:	cd 98       	rjmp	80004c12 <d_encoding+0x3b6>
80004a62:	30 0b       	mov	r11,0
80004a64:	cf ce       	rcall	8000485c <d_encoding>
80004a66:	30 09       	mov	r9,0
80004a68:	18 9a       	mov	r10,r12
80004a6a:	31 5b       	mov	r11,21
80004a6c:	0e 9c       	mov	r12,r7
80004a6e:	cd 28       	rjmp	80004c12 <d_encoding+0x3b6>
80004a70:	fe b0 f4 d6 	rcall	8000341c <d_number>
80004a74:	58 1c       	cp.w	r12,1
80004a76:	e0 8a 00 68 	brle	80004b46 <d_encoding+0x2ea>
80004a7a:	6e 36       	ld.w	r6,r7[0xc]
80004a7c:	0d 81       	ld.ub	r1,r6[0x0]
80004a7e:	58 01       	cp.w	r1,0
80004a80:	c6 30       	breq	80004b46 <d_encoding+0x2ea>
80004a82:	2f f6       	sub	r6,-1
80004a84:	8f 36       	st.w	r7[0xc],r6
80004a86:	35 f8       	mov	r8,95
80004a88:	f0 01 18 00 	cp.b	r1,r8
80004a8c:	c5 d1       	brne	80004b46 <d_encoding+0x2ea>
80004a8e:	f8 c5 00 01 	sub	r5,r12,1
80004a92:	30 03       	mov	r3,0
80004a94:	32 44       	mov	r4,36
80004a96:	35 30       	mov	r0,83
80004a98:	0d 88       	ld.ub	r8,r6[0x0]
80004a9a:	58 08       	cp.w	r8,0
80004a9c:	c5 50       	breq	80004b46 <d_encoding+0x2ea>
80004a9e:	e8 08 18 00 	cp.b	r8,r4
80004aa2:	c0 30       	breq	80004aa8 <d_encoding+0x24c>
80004aa4:	30 02       	mov	r2,0
80004aa6:	c2 b8       	rjmp	80004afc <d_encoding+0x2a0>
80004aa8:	0d 99       	ld.ub	r9,r6[0x1]
80004aaa:	e0 09 18 00 	cp.b	r9,r0
80004aae:	c0 a0       	breq	80004ac2 <d_encoding+0x266>
80004ab0:	e2 09 18 00 	cp.b	r9,r1
80004ab4:	c0 50       	breq	80004abe <d_encoding+0x262>
80004ab6:	e8 09 18 00 	cp.b	r9,r4
80004aba:	c4 61       	brne	80004b46 <d_encoding+0x2ea>
80004abc:	c0 48       	rjmp	80004ac4 <d_encoding+0x268>
80004abe:	32 e8       	mov	r8,46
80004ac0:	c0 28       	rjmp	80004ac4 <d_encoding+0x268>
80004ac2:	32 f8       	mov	r8,47
80004ac4:	6e 5c       	ld.w	r12,r7[0x14]
80004ac6:	6e 69       	ld.w	r9,r7[0x18]
80004ac8:	12 3c       	cp.w	r12,r9
80004aca:	c0 35       	brlt	80004ad0 <d_encoding+0x274>
80004acc:	30 0c       	mov	r12,0
80004ace:	c0 d8       	rjmp	80004ae8 <d_encoding+0x28c>
80004ad0:	f8 c9 ff ff 	sub	r9,r12,-1
80004ad4:	8f 59       	st.w	r7[0x14],r9
80004ad6:	f8 0c 00 1c 	add	r12,r12,r12<<0x1
80004ada:	6e 49       	ld.w	r9,r7[0x10]
80004adc:	f2 0c 00 2c 	add	r12,r9,r12<<0x2
80004ae0:	c0 40       	breq	80004ae8 <d_encoding+0x28c>
80004ae2:	99 18       	st.w	r12[0x4],r8
80004ae4:	33 88       	mov	r8,56
80004ae6:	99 08       	st.w	r12[0x0],r8
80004ae8:	6e 36       	ld.w	r6,r7[0xc]
80004aea:	2f e6       	sub	r6,-2
80004aec:	8f 36       	st.w	r7[0xc],r6
80004aee:	58 0c       	cp.w	r12,0
80004af0:	c2 b0       	breq	80004b46 <d_encoding+0x2ea>
80004af2:	20 25       	sub	r5,2
80004af4:	c1 68       	rjmp	80004b20 <d_encoding+0x2c4>
80004af6:	2f f2       	sub	r2,-1
80004af8:	0a 32       	cp.w	r2,r5
80004afa:	c0 84       	brge	80004b0a <d_encoding+0x2ae>
80004afc:	ec 02 07 08 	ld.ub	r8,r6[r2]
80004b00:	58 08       	cp.w	r8,0
80004b02:	c0 40       	breq	80004b0a <d_encoding+0x2ae>
80004b04:	e8 08 18 00 	cp.b	r8,r4
80004b08:	cf 71       	brne	80004af6 <d_encoding+0x29a>
80004b0a:	0c 9b       	mov	r11,r6
80004b0c:	04 9a       	mov	r10,r2
80004b0e:	0e 9c       	mov	r12,r7
80004b10:	fe b0 f4 6a 	rcall	800033e4 <d_make_name>
80004b14:	6e 36       	ld.w	r6,r7[0xc]
80004b16:	04 06       	add	r6,r2
80004b18:	8f 36       	st.w	r7[0xc],r6
80004b1a:	58 0c       	cp.w	r12,0
80004b1c:	c1 50       	breq	80004b46 <d_encoding+0x2ea>
80004b1e:	04 15       	sub	r5,r2
80004b20:	58 03       	cp.w	r3,0
80004b22:	c0 80       	breq	80004b32 <d_encoding+0x2d6>
80004b24:	18 99       	mov	r9,r12
80004b26:	06 9a       	mov	r10,r3
80004b28:	33 7b       	mov	r11,55
80004b2a:	0e 9c       	mov	r12,r7
80004b2c:	fe b0 f3 bc 	rcall	800032a4 <d_make_comp>
80004b30:	c0 b0       	breq	80004b46 <d_encoding+0x2ea>
80004b32:	58 05       	cp.w	r5,0
80004b34:	e0 8a 00 04 	brle	80004b3c <d_encoding+0x2e0>
80004b38:	18 93       	mov	r3,r12
80004b3a:	ca fb       	rjmp	80004a98 <d_encoding+0x23c>
80004b3c:	18 9a       	mov	r10,r12
80004b3e:	30 09       	mov	r9,0
80004b40:	0e 9c       	mov	r12,r7
80004b42:	33 6b       	mov	r11,54
80004b44:	c6 78       	rjmp	80004c12 <d_encoding+0x3b6>
80004b46:	30 06       	mov	r6,0
80004b48:	c6 88       	rjmp	80004c18 <d_encoding+0x3bc>
80004b4a:	fe b0 fd 5b 	rcall	80004600 <d_name>
80004b4e:	58 04       	cp.w	r4,0
80004b50:	5f 18       	srne	r8
80004b52:	58 0c       	cp.w	r12,0
80004b54:	5f 19       	srne	r9
80004b56:	18 96       	mov	r6,r12
80004b58:	f3 e8 00 08 	and	r8,r9,r8
80004b5c:	ea 08 18 00 	cp.b	r8,r5
80004b60:	c1 90       	breq	80004b92 <d_encoding+0x336>
80004b62:	6e 28       	ld.w	r8,r7[0x8]
80004b64:	ed b8 00 00 	bld	r8,0x0
80004b68:	c0 31       	brne	80004b6e <d_encoding+0x312>
80004b6a:	c1 48       	rjmp	80004b92 <d_encoding+0x336>
80004b6c:	6c 16       	ld.w	r6,r6[0x4]
80004b6e:	6c 08       	ld.w	r8,r6[0x0]
80004b70:	f0 c9 00 1a 	sub	r9,r8,26
80004b74:	58 29       	cp.w	r9,2
80004b76:	fe 98 ff fb 	brls	80004b6c <d_encoding+0x310>
80004b7a:	58 28       	cp.w	r8,2
80004b7c:	c4 e1       	brne	80004c18 <d_encoding+0x3bc>
80004b7e:	6c 28       	ld.w	r8,r6[0x8]
80004b80:	c0 28       	rjmp	80004b84 <d_encoding+0x328>
80004b82:	70 18       	ld.w	r8,r8[0x4]
80004b84:	70 09       	ld.w	r9,r8[0x0]
80004b86:	21 a9       	sub	r9,26
80004b88:	58 29       	cp.w	r9,2
80004b8a:	fe 98 ff fc 	brls	80004b82 <d_encoding+0x326>
80004b8e:	8d 28       	st.w	r6[0x8],r8
80004b90:	c4 48       	rjmp	80004c18 <d_encoding+0x3bc>
80004b92:	58 06       	cp.w	r6,0
80004b94:	5f 0b       	sreq	r11
80004b96:	6e 38       	ld.w	r8,r7[0xc]
80004b98:	30 09       	mov	r9,0
80004b9a:	11 88       	ld.ub	r8,r8[0x0]
80004b9c:	f2 08 18 00 	cp.b	r8,r9
80004ba0:	5f 0a       	sreq	r10
80004ba2:	f7 ea 10 0a 	or	r10,r11,r10
80004ba6:	f2 0a 18 00 	cp.b	r10,r9
80004baa:	c3 71       	brne	80004c18 <d_encoding+0x3bc>
80004bac:	34 59       	mov	r9,69
80004bae:	f2 08 18 00 	cp.b	r8,r9
80004bb2:	c3 30       	breq	80004c18 <d_encoding+0x3bc>
80004bb4:	0c 98       	mov	r8,r6
80004bb6:	58 08       	cp.w	r8,0
80004bb8:	c2 50       	breq	80004c02 <d_encoding+0x3a6>
80004bba:	70 09       	ld.w	r9,r8[0x0]
80004bbc:	58 49       	cp.w	r9,4
80004bbe:	c0 70       	breq	80004bcc <d_encoding+0x370>
80004bc0:	c2 13       	brcs	80004c02 <d_encoding+0x3a6>
80004bc2:	21 a9       	sub	r9,26
80004bc4:	58 29       	cp.w	r9,2
80004bc6:	e0 8b 00 1e 	brhi	80004c02 <d_encoding+0x3a6>
80004bca:	c1 a8       	rjmp	80004bfe <d_encoding+0x3a2>
80004bcc:	70 19       	ld.w	r9,r8[0x4]
80004bce:	58 09       	cp.w	r9,0
80004bd0:	c1 30       	breq	80004bf6 <d_encoding+0x39a>
80004bd2:	72 08       	ld.w	r8,r9[0x0]
80004bd4:	58 88       	cp.w	r8,8
80004bd6:	e0 8b 00 09 	brhi	80004be8 <d_encoding+0x38c>
80004bda:	58 78       	cp.w	r8,7
80004bdc:	c0 92       	brcc	80004bee <d_encoding+0x392>
80004bde:	20 18       	sub	r8,1
80004be0:	58 18       	cp.w	r8,1
80004be2:	e0 8b 00 0a 	brhi	80004bf6 <d_encoding+0x39a>
80004be6:	c0 68       	rjmp	80004bf2 <d_encoding+0x396>
80004be8:	e0 48 00 2d 	cp.w	r8,45
80004bec:	c0 51       	brne	80004bf6 <d_encoding+0x39a>
80004bee:	30 1b       	mov	r11,1
80004bf0:	c0 48       	rjmp	80004bf8 <d_encoding+0x39c>
80004bf2:	72 29       	ld.w	r9,r9[0x8]
80004bf4:	ce db       	rjmp	80004bce <d_encoding+0x372>
80004bf6:	30 0b       	mov	r11,0
80004bf8:	ec 1b 00 01 	eorl	r11,0x1
80004bfc:	c0 48       	rjmp	80004c04 <d_encoding+0x3a8>
80004bfe:	70 18       	ld.w	r8,r8[0x4]
80004c00:	cd bb       	rjmp	80004bb6 <d_encoding+0x35a>
80004c02:	30 0b       	mov	r11,0
80004c04:	0e 9c       	mov	r12,r7
80004c06:	fe b0 fa a9 	rcall	80004158 <d_bare_function_type>
80004c0a:	0c 9a       	mov	r10,r6
80004c0c:	18 99       	mov	r9,r12
80004c0e:	30 3b       	mov	r11,3
80004c10:	0e 9c       	mov	r12,r7
80004c12:	fe b0 f3 49 	rcall	800032a4 <d_make_comp>
80004c16:	18 96       	mov	r6,r12
80004c18:	0c 9c       	mov	r12,r6
80004c1a:	d8 32       	popm	r0-r7,pc

80004c1c <d_exprlist>:
80004c1c:	d4 21       	pushm	r4-r7,lr
80004c1e:	20 1d       	sub	sp,4
80004c20:	30 09       	mov	r9,0
80004c22:	50 09       	stdsp	sp[0x0],r9
80004c24:	78 38       	ld.w	r8,r12[0xc]
80004c26:	18 97       	mov	r7,r12
80004c28:	34 55       	mov	r5,69
80004c2a:	11 8a       	ld.ub	r10,r8[0x0]
80004c2c:	ea 0a 18 00 	cp.b	r10,r5
80004c30:	c0 81       	brne	80004c40 <d_exprlist+0x24>
80004c32:	2f f8       	sub	r8,-1
80004c34:	32 9b       	mov	r11,41
80004c36:	99 38       	st.w	r12[0xc],r8
80004c38:	12 9a       	mov	r10,r9
80004c3a:	fe b0 f3 35 	rcall	800032a4 <d_make_comp>
80004c3e:	c1 c8       	rjmp	80004c76 <d_exprlist+0x5a>
80004c40:	1a 96       	mov	r6,sp
80004c42:	0e 9c       	mov	r12,r7
80004c44:	fe b0 f6 62 	rcall	80003908 <d_expression>
80004c48:	30 09       	mov	r9,0
80004c4a:	18 98       	mov	r8,r12
80004c4c:	18 9a       	mov	r10,r12
80004c4e:	32 9b       	mov	r11,41
80004c50:	0e 9c       	mov	r12,r7
80004c52:	58 08       	cp.w	r8,0
80004c54:	c1 00       	breq	80004c74 <d_exprlist+0x58>
80004c56:	fe b0 f3 27 	rcall	800032a4 <d_make_comp>
80004c5a:	8d 0c       	st.w	r6[0x0],r12
80004c5c:	c0 c0       	breq	80004c74 <d_exprlist+0x58>
80004c5e:	6e 38       	ld.w	r8,r7[0xc]
80004c60:	f8 c6 ff f8 	sub	r6,r12,-8
80004c64:	11 89       	ld.ub	r9,r8[0x0]
80004c66:	ea 09 18 00 	cp.b	r9,r5
80004c6a:	ce c1       	brne	80004c42 <d_exprlist+0x26>
80004c6c:	2f f8       	sub	r8,-1
80004c6e:	40 0c       	lddsp	r12,sp[0x0]
80004c70:	8f 38       	st.w	r7[0xc],r8
80004c72:	c0 28       	rjmp	80004c76 <d_exprlist+0x5a>
80004c74:	30 0c       	mov	r12,0
80004c76:	2f fd       	sub	sp,-4
80004c78:	d8 22       	popm	r4-r7,pc
	...

80004c7c <d_print_comp>:
80004c7c:	d4 31       	pushm	r0-r7,lr
80004c7e:	21 2d       	sub	sp,72
80004c80:	18 97       	mov	r7,r12
80004c82:	16 96       	mov	r6,r11
80004c84:	58 0b       	cp.w	r11,0
80004c86:	e0 80 05 48 	breq	80005716 <d_print_comp+0xa9a>
80004c8a:	f8 f8 01 1c 	ld.w	r8,r12[284]
80004c8e:	58 08       	cp.w	r8,0
80004c90:	e0 81 05 46 	brne	8000571c <d_print_comp+0xaa0>
80004c94:	76 08       	ld.w	r8,r11[0x0]
80004c96:	e0 48 00 3a 	cp.w	r8,58
80004c9a:	e0 8b 05 3e 	brhi	80005716 <d_print_comp+0xa9a>
80004c9e:	fe f9 02 4e 	ld.w	r9,pc[590]
80004ca2:	f2 08 03 2f 	ld.w	pc,r9[r8<<0x2]
80004ca6:	00 00       	add	r0,r0
80004ca8:	80 00       	ld.sh	r0,r0[0x0]
80004caa:	4d 94       	lddpc	r4,80004e0c <d_print_comp+0x190>
80004cac:	80 00       	ld.sh	r0,r0[0x0]
80004cae:	4e 4c       	lddpc	r12,80004e3c <d_print_comp+0x1c0>
80004cb0:	80 00       	ld.sh	r0,r0[0x0]
80004cb2:	4e 4c       	lddpc	r12,80004e40 <d_print_comp+0x1c4>
80004cb4:	80 00       	ld.sh	r0,r0[0x0]
80004cb6:	4e 66       	lddpc	r6,80004e4c <d_print_comp+0x1d0>
80004cb8:	80 00       	ld.sh	r0,r0[0x0]
80004cba:	4f 7e       	lddpc	lr,80004e94 <d_print_comp+0x218>
80004cbc:	80 00       	ld.sh	r0,r0[0x0]
80004cbe:	50 04       	stdsp	sp[0x0],r4
80004cc0:	80 00       	ld.sh	r0,r0[0x0]
80004cc2:	56 f4       	stdsp	sp[0x1bc],r4
80004cc4:	80 00       	ld.sh	r0,r0[0x0]
80004cc6:	56 56       	stdsp	sp[0x194],r6
80004cc8:	80 00       	ld.sh	r0,r0[0x0]
80004cca:	50 9c       	stdsp	sp[0x24],r12
80004ccc:	80 00       	ld.sh	r0,r0[0x0]
80004cce:	50 a6       	stdsp	sp[0x28],r6
80004cd0:	80 00       	ld.sh	r0,r0[0x0]
80004cd2:	50 ac       	stdsp	sp[0x28],r12
80004cd4:	80 00       	ld.sh	r0,r0[0x0]
80004cd6:	50 b2       	stdsp	sp[0x2c],r2
80004cd8:	80 00       	ld.sh	r0,r0[0x0]
80004cda:	50 e4       	stdsp	sp[0x38],r4
80004cdc:	80 00       	ld.sh	r0,r0[0x0]
80004cde:	50 ea       	stdsp	sp[0x38],r10
80004ce0:	80 00       	ld.sh	r0,r0[0x0]
80004ce2:	50 f0       	stdsp	sp[0x3c],r0
80004ce4:	80 00       	ld.sh	r0,r0[0x0]
80004ce6:	50 f6       	stdsp	sp[0x3c],r6
80004ce8:	80 00       	ld.sh	r0,r0[0x0]
80004cea:	50 fc       	stdsp	sp[0x3c],r12
80004cec:	80 00       	ld.sh	r0,r0[0x0]
80004cee:	51 02       	stdsp	sp[0x40],r2
80004cf0:	80 00       	ld.sh	r0,r0[0x0]
80004cf2:	51 08       	stdsp	sp[0x40],r8
80004cf4:	80 00       	ld.sh	r0,r0[0x0]
80004cf6:	51 0e       	stdsp	sp[0x40],lr
80004cf8:	80 00       	ld.sh	r0,r0[0x0]
80004cfa:	51 14       	stdsp	sp[0x44],r4
80004cfc:	80 00       	ld.sh	r0,r0[0x0]
80004cfe:	51 1a       	stdsp	sp[0x44],r10
80004d00:	80 00       	ld.sh	r0,r0[0x0]
80004d02:	51 20       	stdsp	sp[0x48],r0
80004d04:	80 00       	ld.sh	r0,r0[0x0]
80004d06:	51 2c       	stdsp	sp[0x48],r12
80004d08:	80 00       	ld.sh	r0,r0[0x0]
80004d0a:	51 2c       	stdsp	sp[0x48],r12
80004d0c:	80 00       	ld.sh	r0,r0[0x0]
80004d0e:	51 2c       	stdsp	sp[0x48],r12
80004d10:	80 00       	ld.sh	r0,r0[0x0]
80004d12:	51 52       	stdsp	sp[0x54],r2
80004d14:	80 00       	ld.sh	r0,r0[0x0]
80004d16:	51 52       	stdsp	sp[0x54],r2
80004d18:	80 00       	ld.sh	r0,r0[0x0]
80004d1a:	51 52       	stdsp	sp[0x54],r2
80004d1c:	80 00       	ld.sh	r0,r0[0x0]
80004d1e:	51 52       	stdsp	sp[0x54],r2
80004d20:	80 00       	ld.sh	r0,r0[0x0]
80004d22:	51 52       	stdsp	sp[0x54],r2
80004d24:	80 00       	ld.sh	r0,r0[0x0]
80004d26:	51 52       	stdsp	sp[0x54],r2
80004d28:	80 00       	ld.sh	r0,r0[0x0]
80004d2a:	51 52       	stdsp	sp[0x54],r2
80004d2c:	80 00       	ld.sh	r0,r0[0x0]
80004d2e:	51 52       	stdsp	sp[0x54],r2
80004d30:	80 00       	ld.sh	r0,r0[0x0]
80004d32:	51 52       	stdsp	sp[0x54],r2
80004d34:	80 00       	ld.sh	r0,r0[0x0]
80004d36:	51 82       	stdsp	sp[0x60],r2
80004d38:	80 00       	ld.sh	r0,r0[0x0]
80004d3a:	56 4c       	stdsp	sp[0x190],r12
80004d3c:	80 00       	ld.sh	r0,r0[0x0]
80004d3e:	51 c0       	stdsp	sp[0x70],r0
80004d40:	80 00       	ld.sh	r0,r0[0x0]
80004d42:	52 2c       	stdsp	sp[0x88],r12
80004d44:	80 00       	ld.sh	r0,r0[0x0]
80004d46:	52 de       	stdsp	sp[0xb4],lr
80004d48:	80 00       	ld.sh	r0,r0[0x0]
80004d4a:	53 22       	stdsp	sp[0xc8],r2
80004d4c:	80 00       	ld.sh	r0,r0[0x0]
80004d4e:	53 68       	stdsp	sp[0xd8],r8
80004d50:	80 00       	ld.sh	r0,r0[0x0]
80004d52:	53 68       	stdsp	sp[0xd8],r8
80004d54:	80 00       	ld.sh	r0,r0[0x0]
80004d56:	53 e4       	stdsp	sp[0xf8],r4
80004d58:	80 00       	ld.sh	r0,r0[0x0]
80004d5a:	54 0e       	stdsp	sp[0x100],lr
80004d5c:	80 00       	ld.sh	r0,r0[0x0]
80004d5e:	54 16       	stdsp	sp[0x104],r6
80004d60:	80 00       	ld.sh	r0,r0[0x0]
80004d62:	54 48       	stdsp	sp[0x110],r8
80004d64:	80 00       	ld.sh	r0,r0[0x0]
80004d66:	54 74       	stdsp	sp[0x11c],r4
80004d68:	80 00       	ld.sh	r0,r0[0x0]
80004d6a:	57 16       	stdsp	sp[0x1c4],r6
80004d6c:	80 00       	ld.sh	r0,r0[0x0]
80004d6e:	54 f4       	stdsp	sp[0x13c],r4
80004d70:	80 00       	ld.sh	r0,r0[0x0]
80004d72:	57 16       	stdsp	sp[0x1c4],r6
80004d74:	80 00       	ld.sh	r0,r0[0x0]
80004d76:	57 16       	stdsp	sp[0x1c4],r6
80004d78:	80 00       	ld.sh	r0,r0[0x0]
80004d7a:	55 3c       	stdsp	sp[0x14c],r12
80004d7c:	80 00       	ld.sh	r0,r0[0x0]
80004d7e:	55 3c       	stdsp	sp[0x14c],r12
80004d80:	80 00       	ld.sh	r0,r0[0x0]
80004d82:	56 46       	stdsp	sp[0x190],r6
80004d84:	80 00       	ld.sh	r0,r0[0x0]
80004d86:	56 50       	stdsp	sp[0x194],r0
80004d88:	80 00       	ld.sh	r0,r0[0x0]
80004d8a:	56 60       	stdsp	sp[0x198],r0
80004d8c:	80 00       	ld.sh	r0,r0[0x0]
80004d8e:	56 64       	stdsp	sp[0x198],r4
80004d90:	80 00       	ld.sh	r0,r0[0x0]
80004d92:	56 7c       	stdsp	sp[0x19c],r12
80004d94:	78 08       	ld.w	r8,r12[0x0]
80004d96:	76 1b       	ld.w	r11,r11[0x4]
80004d98:	e2 18 00 04 	andl	r8,0x4,COH
80004d9c:	6c 2a       	ld.w	r10,r6[0x8]
80004d9e:	e0 80 01 c3 	breq	80005124 <d_print_comp+0x4a8>
80004da2:	16 96       	mov	r6,r11
80004da4:	f6 0a 00 04 	add	r4,r11,r10
80004da8:	35 f5       	mov	r5,95
80004daa:	35 50       	mov	r0,85
80004dac:	30 91       	mov	r1,9
80004dae:	30 53       	mov	r3,5
80004db0:	30 02       	mov	r2,0
80004db2:	c4 98       	rjmp	80004e44 <d_print_comp+0x1c8>
80004db4:	e8 06 01 08 	sub	r8,r4,r6
80004db8:	58 38       	cp.w	r8,3
80004dba:	e0 8a 00 40 	brle	80004e3a <d_print_comp+0x1be>
80004dbe:	0d 88       	ld.ub	r8,r6[0x0]
80004dc0:	ea 08 18 00 	cp.b	r8,r5
80004dc4:	c3 b1       	brne	80004e3a <d_print_comp+0x1be>
80004dc6:	0d 98       	ld.ub	r8,r6[0x1]
80004dc8:	ea 08 18 00 	cp.b	r8,r5
80004dcc:	c3 71       	brne	80004e3a <d_print_comp+0x1be>
80004dce:	0d a8       	ld.ub	r8,r6[0x2]
80004dd0:	e0 08 18 00 	cp.b	r8,r0
80004dd4:	c3 31       	brne	80004e3a <d_print_comp+0x1be>
80004dd6:	ec c8 ff fd 	sub	r8,r6,-3
80004dda:	30 0b       	mov	r11,0
80004ddc:	c1 e8       	rjmp	80004e18 <d_print_comp+0x19c>
80004dde:	11 89       	ld.ub	r9,r8[0x0]
80004de0:	f2 ca 00 30 	sub	r10,r9,48
80004de4:	f2 cc 00 30 	sub	r12,r9,48
80004de8:	e2 0c 18 00 	cp.b	r12,r1
80004dec:	e0 88 00 12 	brls	80004e10 <d_print_comp+0x194>
80004df0:	f2 ca 00 37 	sub	r10,r9,55
80004df4:	f2 cc 00 41 	sub	r12,r9,65
80004df8:	e6 0c 18 00 	cp.b	r12,r3
80004dfc:	e0 88 00 0a 	brls	80004e10 <d_print_comp+0x194>
80004e00:	f2 ca 00 57 	sub	r10,r9,87
80004e04:	f2 cc 00 61 	sub	r12,r9,97
80004e08:	e6 0c 18 00 	cp.b	r12,r3
80004e0c:	e0 8b 00 09 	brhi	80004e1e <d_print_comp+0x1a2>
80004e10:	a5 6b       	lsl	r11,0x4
80004e12:	2f f8       	sub	r8,-1
80004e14:	f4 0b 00 0b 	add	r11,r10,r11
80004e18:	08 38       	cp.w	r8,r4
80004e1a:	ce 23       	brcs	80004dde <d_print_comp+0x162>
80004e1c:	c0 f8       	rjmp	80004e3a <d_print_comp+0x1be>
80004e1e:	ea 09 18 00 	cp.b	r9,r5
80004e22:	5f 0a       	sreq	r10
80004e24:	e0 4b 00 ff 	cp.w	r11,255
80004e28:	5f 89       	srls	r9
80004e2a:	f5 e9 00 09 	and	r9,r10,r9
80004e2e:	e4 09 18 00 	cp.b	r9,r2
80004e32:	c0 40       	breq	80004e3a <d_print_comp+0x1be>
80004e34:	5c 5b       	castu.b	r11
80004e36:	10 96       	mov	r6,r8
80004e38:	c0 28       	rjmp	80004e3c <d_print_comp+0x1c0>
80004e3a:	0d 8b       	ld.ub	r11,r6[0x0]
80004e3c:	0e 9c       	mov	r12,r7
80004e3e:	2f f6       	sub	r6,-1
80004e40:	fe b0 f4 76 	rcall	8000372c <d_append_char>
80004e44:	08 36       	cp.w	r6,r4
80004e46:	cb 73       	brcs	80004db4 <d_print_comp+0x138>
80004e48:	e0 8f 04 6a 	bral	8000571c <d_print_comp+0xaa0>
80004e4c:	76 1b       	ld.w	r11,r11[0x4]
80004e4e:	c1 7f       	rcall	80004c7c <d_print_comp>
80004e50:	6e 08       	ld.w	r8,r7[0x0]
80004e52:	ed b8 00 02 	bld	r8,0x2
80004e56:	c0 50       	breq	80004e60 <d_print_comp+0x1e4>
80004e58:	4a 6b       	lddpc	r11,80004ef0 <d_print_comp+0x274>
80004e5a:	0e 9c       	mov	r12,r7
80004e5c:	e0 8f 02 da 	bral	80005410 <d_print_comp+0x794>
80004e60:	32 eb       	mov	r11,46
80004e62:	0e 9c       	mov	r12,r7
80004e64:	c1 d9       	rjmp	8000509e <d_print_comp+0x422>
80004e66:	30 08       	mov	r8,0
80004e68:	f8 f3 01 18 	ld.w	r3,r12[280]
80004e6c:	10 95       	mov	r5,r8
80004e6e:	f9 48 01 18 	st.w	r12[280],r8
80004e72:	0a 9a       	mov	r10,r5
80004e74:	1a 98       	mov	r8,sp
80004e76:	76 14       	ld.w	r4,r11[0x4]
80004e78:	c1 78       	rjmp	80004ea6 <d_print_comp+0x22a>
80004e7a:	58 45       	cp.w	r5,4
80004e7c:	e0 80 04 4d 	breq	80005716 <d_print_comp+0xa9a>
80004e80:	ee f9 01 18 	ld.w	r9,r7[280]
80004e84:	91 09       	st.w	r8[0x0],r9
80004e86:	ef 48 01 18 	st.w	r7[280],r8
80004e8a:	ee f9 01 14 	ld.w	r9,r7[276]
80004e8e:	91 14       	st.w	r8[0x4],r4
80004e90:	91 39       	st.w	r8[0xc],r9
80004e92:	91 2a       	st.w	r8[0x8],r10
80004e94:	68 09       	ld.w	r9,r4[0x0]
80004e96:	2f f5       	sub	r5,-1
80004e98:	2f 08       	sub	r8,-16
80004e9a:	f2 cb 00 1a 	sub	r11,r9,26
80004e9e:	58 2b       	cp.w	r11,2
80004ea0:	e0 8b 00 07 	brhi	80004eae <d_print_comp+0x232>
80004ea4:	68 14       	ld.w	r4,r4[0x4]
80004ea6:	58 04       	cp.w	r4,0
80004ea8:	ce 91       	brne	80004e7a <d_print_comp+0x1fe>
80004eaa:	e0 8f 04 36 	bral	80005716 <d_print_comp+0xa9a>
80004eae:	58 49       	cp.w	r9,4
80004eb0:	c0 91       	brne	80004ec2 <d_print_comp+0x246>
80004eb2:	ee f8 01 14 	ld.w	r8,r7[276]
80004eb6:	51 08       	stdsp	sp[0x40],r8
80004eb8:	51 14       	stdsp	sp[0x44],r4
80004eba:	fa c8 ff c0 	sub	r8,sp,-64
80004ebe:	ef 48 01 14 	st.w	r7[276],r8
80004ec2:	68 08       	ld.w	r8,r4[0x0]
80004ec4:	58 28       	cp.w	r8,2
80004ec6:	c3 91       	brne	80004f38 <d_print_comp+0x2bc>
80004ec8:	ea 08 15 04 	lsl	r8,r5,0x4
80004ecc:	ea cb 00 01 	sub	r11,r5,1
80004ed0:	21 08       	sub	r8,16
80004ed2:	a5 6b       	lsl	r11,0x4
80004ed4:	ea 0a 15 04 	lsl	r10,r5,0x4
80004ed8:	fa 08 00 08 	add	r8,sp,r8
80004edc:	fa 0b 00 0b 	add	r11,sp,r11
80004ee0:	fa 0a 00 0a 	add	r10,sp,r10
80004ee4:	68 29       	ld.w	r9,r4[0x8]
80004ee6:	30 02       	mov	r2,0
80004ee8:	c2 08       	rjmp	80004f28 <d_print_comp+0x2ac>
80004eea:	00 00       	add	r0,r0
80004eec:	80 00       	ld.sh	r0,r0[0x0]
80004eee:	4c a8       	lddpc	r8,80005014 <d_print_comp+0x398>
80004ef0:	80 00       	ld.sh	r0,r0[0x0]
80004ef2:	d5 10       	acall	0x51
80004ef4:	58 35       	cp.w	r5,3
80004ef6:	e0 8b 04 10 	brhi	80005716 <d_print_comp+0xa9a>
80004efa:	f8 e0 00 00 	ld.d	r0,r12[0]
80004efe:	f0 e1 00 00 	st.d	r8[0],r0
80004f02:	f8 e0 00 08 	ld.d	r0,r12[8]
80004f06:	91 0b       	st.w	r8[0x0],r11
80004f08:	f0 e1 00 08 	st.d	r8[8],r0
80004f0c:	ef 4a 01 18 	st.w	r7[280],r10
80004f10:	f1 49 ff f4 	st.w	r8[-12],r9
80004f14:	f1 42 ff f8 	st.w	r8[-8],r2
80004f18:	ee fc 01 14 	ld.w	r12,r7[276]
80004f1c:	2f f5       	sub	r5,-1
80004f1e:	f1 4c ff fc 	st.w	r8[-4],r12
80004f22:	2f 0b       	sub	r11,-16
80004f24:	2f 0a       	sub	r10,-16
80004f26:	72 19       	ld.w	r9,r9[0x4]
80004f28:	2f 08       	sub	r8,-16
80004f2a:	72 01       	ld.w	r1,r9[0x0]
80004f2c:	f0 cc 00 10 	sub	r12,r8,16
80004f30:	21 a1       	sub	r1,26
80004f32:	58 21       	cp.w	r1,2
80004f34:	fe 98 ff e0 	brls	80004ef4 <d_print_comp+0x278>
80004f38:	6c 2b       	ld.w	r11,r6[0x8]
80004f3a:	0e 9c       	mov	r12,r7
80004f3c:	ca 0e       	rcall	80004c7c <d_print_comp>
80004f3e:	68 08       	ld.w	r8,r4[0x0]
80004f40:	58 48       	cp.w	r8,4
80004f42:	c0 41       	brne	80004f4a <d_print_comp+0x2ce>
80004f44:	41 08       	lddsp	r8,sp[0x40]
80004f46:	ef 48 01 14 	st.w	r7[276],r8
80004f4a:	ea 06 15 04 	lsl	r6,r5,0x4
80004f4e:	fa c8 ff b8 	sub	r8,sp,-72
80004f52:	f0 06 00 06 	add	r6,r8,r6
80004f56:	25 46       	sub	r6,84
80004f58:	20 15       	sub	r5,1
80004f5a:	6c 18       	ld.w	r8,r6[0x4]
80004f5c:	58 08       	cp.w	r8,0
80004f5e:	c0 91       	brne	80004f70 <d_print_comp+0x2f4>
80004f60:	32 0b       	mov	r11,32
80004f62:	0e 9c       	mov	r12,r7
80004f64:	fe b0 f3 e4 	rcall	8000372c <d_append_char>
80004f68:	6c 0b       	ld.w	r11,r6[0x0]
80004f6a:	0e 9c       	mov	r12,r7
80004f6c:	e0 a0 04 ea 	rcall	80005940 <d_print_mod>
80004f70:	21 06       	sub	r6,16
80004f72:	58 05       	cp.w	r5,0
80004f74:	cf 21       	brne	80004f58 <d_print_comp+0x2dc>
80004f76:	ef 43 01 18 	st.w	r7[280],r3
80004f7a:	e0 8f 03 d1 	bral	8000571c <d_print_comp+0xaa0>
80004f7e:	30 08       	mov	r8,0
80004f80:	f8 f4 01 18 	ld.w	r4,r12[280]
80004f84:	f9 48 01 18 	st.w	r12[280],r8
80004f88:	78 08       	ld.w	r8,r12[0x0]
80004f8a:	76 15       	ld.w	r5,r11[0x4]
80004f8c:	e2 18 00 04 	andl	r8,0x4,COH
80004f90:	c1 40       	breq	80004fb8 <d_print_comp+0x33c>
80004f92:	6a 08       	ld.w	r8,r5[0x0]
80004f94:	58 08       	cp.w	r8,0
80004f96:	c1 11       	brne	80004fb8 <d_print_comp+0x33c>
80004f98:	6a 2a       	ld.w	r10,r5[0x8]
80004f9a:	58 6a       	cp.w	r10,6
80004f9c:	c0 e1       	brne	80004fb8 <d_print_comp+0x33c>
80004f9e:	4c bb       	lddpc	r11,800050c8 <d_print_comp+0x44c>
80004fa0:	6a 1c       	ld.w	r12,r5[0x4]
80004fa2:	f0 1f 00 4b 	mcall	800050cc <d_print_comp+0x450>
80004fa6:	c0 91       	brne	80004fb8 <d_print_comp+0x33c>
80004fa8:	6c 2b       	ld.w	r11,r6[0x8]
80004faa:	0e 9c       	mov	r12,r7
80004fac:	c6 8e       	rcall	80004c7c <d_print_comp>
80004fae:	4c 9b       	lddpc	r11,800050d0 <d_print_comp+0x454>
80004fb0:	0e 9c       	mov	r12,r7
80004fb2:	fe b0 f4 47 	rcall	80003840 <d_append_string>
80004fb6:	c2 38       	rjmp	80004ffc <d_print_comp+0x380>
80004fb8:	0a 9b       	mov	r11,r5
80004fba:	0e 9c       	mov	r12,r7
80004fbc:	c6 0e       	rcall	80004c7c <d_print_comp>
80004fbe:	ef 39 01 08 	ld.ub	r9,r7[264]
80004fc2:	33 c8       	mov	r8,60
80004fc4:	f0 09 18 00 	cp.b	r9,r8
80004fc8:	c0 51       	brne	80004fd2 <d_print_comp+0x356>
80004fca:	32 0b       	mov	r11,32
80004fcc:	0e 9c       	mov	r12,r7
80004fce:	fe b0 f3 af 	rcall	8000372c <d_append_char>
80004fd2:	33 cb       	mov	r11,60
80004fd4:	0e 9c       	mov	r12,r7
80004fd6:	fe b0 f3 ab 	rcall	8000372c <d_append_char>
80004fda:	6c 2b       	ld.w	r11,r6[0x8]
80004fdc:	0e 9c       	mov	r12,r7
80004fde:	c4 fe       	rcall	80004c7c <d_print_comp>
80004fe0:	ef 39 01 08 	ld.ub	r9,r7[264]
80004fe4:	33 e8       	mov	r8,62
80004fe6:	f0 09 18 00 	cp.b	r9,r8
80004fea:	c0 51       	brne	80004ff4 <d_print_comp+0x378>
80004fec:	32 0b       	mov	r11,32
80004fee:	0e 9c       	mov	r12,r7
80004ff0:	fe b0 f3 9e 	rcall	8000372c <d_append_char>
80004ff4:	33 eb       	mov	r11,62
80004ff6:	0e 9c       	mov	r12,r7
80004ff8:	fe b0 f3 9a 	rcall	8000372c <d_append_char>
80004ffc:	ef 44 01 18 	st.w	r7[280],r4
80005000:	e0 8f 03 8e 	bral	8000571c <d_print_comp+0xaa0>
80005004:	f8 f5 01 14 	ld.w	r5,r12[276]
80005008:	58 05       	cp.w	r5,0
8000500a:	c0 61       	brne	80005016 <d_print_comp+0x39a>
8000500c:	30 18       	mov	r8,1
8000500e:	f9 48 01 1c 	st.w	r12[284],r8
80005012:	e0 8f 03 82 	bral	80005716 <d_print_comp+0xa9a>
80005016:	76 19       	ld.w	r9,r11[0x4]
80005018:	6a 18       	ld.w	r8,r5[0x4]
8000501a:	c0 a8       	rjmp	8000502e <d_print_comp+0x3b2>
8000501c:	70 0a       	ld.w	r10,r8[0x0]
8000501e:	e0 4a 00 2a 	cp.w	r10,42
80005022:	e0 81 03 7a 	brne	80005716 <d_print_comp+0xa9a>
80005026:	58 09       	cp.w	r9,0
80005028:	e0 8a 00 06 	brle	80005034 <d_print_comp+0x3b8>
8000502c:	20 19       	sub	r9,1
8000502e:	70 28       	ld.w	r8,r8[0x8]
80005030:	58 08       	cp.w	r8,0
80005032:	cf 51       	brne	8000501c <d_print_comp+0x3a0>
80005034:	58 09       	cp.w	r9,0
80005036:	5f 19       	srne	r9
80005038:	58 08       	cp.w	r8,0
8000503a:	5f 0a       	sreq	r10
8000503c:	f5 e9 10 09 	or	r9,r10,r9
80005040:	e0 81 03 6b 	brne	80005716 <d_print_comp+0xa9a>
80005044:	70 1b       	ld.w	r11,r8[0x4]
80005046:	58 0b       	cp.w	r11,0
80005048:	e0 80 03 67 	breq	80005716 <d_print_comp+0xa9a>
8000504c:	76 08       	ld.w	r8,r11[0x0]
8000504e:	e0 48 00 2a 	cp.w	r8,42
80005052:	c1 b1       	brne	80005088 <d_print_comp+0x40c>
80005054:	ee f8 01 20 	ld.w	r8,r7[288]
80005058:	76 09       	ld.w	r9,r11[0x0]
8000505a:	e0 49 00 2a 	cp.w	r9,42
8000505e:	e0 81 03 5c 	brne	80005716 <d_print_comp+0xa9a>
80005062:	58 08       	cp.w	r8,0
80005064:	e0 8a 00 06 	brle	80005070 <d_print_comp+0x3f4>
80005068:	20 18       	sub	r8,1
8000506a:	76 2b       	ld.w	r11,r11[0x8]
8000506c:	58 0b       	cp.w	r11,0
8000506e:	cf 51       	brne	80005058 <d_print_comp+0x3dc>
80005070:	58 08       	cp.w	r8,0
80005072:	5f 18       	srne	r8
80005074:	58 0b       	cp.w	r11,0
80005076:	5f 09       	sreq	r9
80005078:	f3 e8 10 08 	or	r8,r9,r8
8000507c:	e0 81 03 4d 	brne	80005716 <d_print_comp+0xa9a>
80005080:	76 1b       	ld.w	r11,r11[0x4]
80005082:	58 0b       	cp.w	r11,0
80005084:	e0 80 03 49 	breq	80005716 <d_print_comp+0xa9a>
80005088:	6a 08       	ld.w	r8,r5[0x0]
8000508a:	0e 9c       	mov	r12,r7
8000508c:	ef 48 01 14 	st.w	r7[276],r8
80005090:	fe b0 fd f6 	rcall	80004c7c <d_print_comp>
80005094:	ef 45 01 14 	st.w	r7[276],r5
80005098:	e0 8f 03 42 	bral	8000571c <d_print_comp+0xaa0>
8000509c:	37 eb       	mov	r11,126
8000509e:	fe b0 f3 47 	rcall	8000372c <d_append_char>
800050a2:	e0 8f 02 da 	bral	80005656 <d_print_comp+0x9da>
800050a6:	48 cb       	lddpc	r11,800050d4 <d_print_comp+0x458>
800050a8:	e0 8f 02 d0 	bral	80005648 <d_print_comp+0x9cc>
800050ac:	48 bb       	lddpc	r11,800050d8 <d_print_comp+0x45c>
800050ae:	e0 8f 02 cd 	bral	80005648 <d_print_comp+0x9cc>
800050b2:	48 bb       	lddpc	r11,800050dc <d_print_comp+0x460>
800050b4:	fe b0 f3 c6 	rcall	80003840 <d_append_string>
800050b8:	6c 1b       	ld.w	r11,r6[0x4]
800050ba:	0e 9c       	mov	r12,r7
800050bc:	fe b0 fd e0 	rcall	80004c7c <d_print_comp>
800050c0:	0e 9c       	mov	r12,r7
800050c2:	48 8b       	lddpc	r11,800050e0 <d_print_comp+0x464>
800050c4:	e0 8f 01 a6 	bral	80005410 <d_print_comp+0x794>
800050c8:	80 00       	ld.sh	r0,r0[0x0]
800050ca:	d5 14       	*unknown*
800050cc:	80 00       	ld.sh	r0,r0[0x0]
800050ce:	85 84       	st.w	r2[0x20],r4
800050d0:	80 00       	ld.sh	r0,r0[0x0]
800050d2:	d5 1c       	*unknown*
800050d4:	80 00       	ld.sh	r0,r0[0x0]
800050d6:	d5 20       	acall	0x52
800050d8:	80 00       	ld.sh	r0,r0[0x0]
800050da:	d5 2c       	*unknown*
800050dc:	80 00       	ld.sh	r0,r0[0x0]
800050de:	d5 38       	*unknown*
800050e0:	80 00       	ld.sh	r0,r0[0x0]
800050e2:	d5 54       	*unknown*
800050e4:	4a db       	lddpc	r11,80005198 <d_print_comp+0x51c>
800050e6:	e0 8f 02 b1 	bral	80005648 <d_print_comp+0x9cc>
800050ea:	4a db       	lddpc	r11,8000519c <d_print_comp+0x520>
800050ec:	e0 8f 02 ae 	bral	80005648 <d_print_comp+0x9cc>
800050f0:	4a cb       	lddpc	r11,800051a0 <d_print_comp+0x524>
800050f2:	e0 8f 02 ab 	bral	80005648 <d_print_comp+0x9cc>
800050f6:	4a cb       	lddpc	r11,800051a4 <d_print_comp+0x528>
800050f8:	e0 8f 02 a8 	bral	80005648 <d_print_comp+0x9cc>
800050fc:	4a bb       	lddpc	r11,800051a8 <d_print_comp+0x52c>
800050fe:	e0 8f 02 a5 	bral	80005648 <d_print_comp+0x9cc>
80005102:	4a bb       	lddpc	r11,800051ac <d_print_comp+0x530>
80005104:	e0 8f 02 a2 	bral	80005648 <d_print_comp+0x9cc>
80005108:	4a ab       	lddpc	r11,800051b0 <d_print_comp+0x534>
8000510a:	e0 8f 02 9f 	bral	80005648 <d_print_comp+0x9cc>
8000510e:	4a ab       	lddpc	r11,800051b4 <d_print_comp+0x538>
80005110:	e0 8f 02 9c 	bral	80005648 <d_print_comp+0x9cc>
80005114:	4a 9b       	lddpc	r11,800051b8 <d_print_comp+0x53c>
80005116:	e0 8f 02 99 	bral	80005648 <d_print_comp+0x9cc>
8000511a:	4a 9b       	lddpc	r11,800051bc <d_print_comp+0x540>
8000511c:	e0 8f 02 96 	bral	80005648 <d_print_comp+0x9cc>
80005120:	76 1b       	ld.w	r11,r11[0x4]
80005122:	6c 2a       	ld.w	r10,r6[0x8]
80005124:	fe b0 f3 28 	rcall	80003774 <d_append_buffer>
80005128:	e0 8f 02 fa 	bral	8000571c <d_print_comp+0xaa0>
8000512c:	f8 f9 01 18 	ld.w	r9,r12[280]
80005130:	c0 f8       	rjmp	8000514e <d_print_comp+0x4d2>
80005132:	72 2a       	ld.w	r10,r9[0x8]
80005134:	58 0a       	cp.w	r10,0
80005136:	c0 b1       	brne	8000514c <d_print_comp+0x4d0>
80005138:	72 1a       	ld.w	r10,r9[0x4]
8000513a:	74 0a       	ld.w	r10,r10[0x0]
8000513c:	f4 cb 00 17 	sub	r11,r10,23
80005140:	58 2b       	cp.w	r11,2
80005142:	e0 8b 00 08 	brhi	80005152 <d_print_comp+0x4d6>
80005146:	10 3a       	cp.w	r10,r8
80005148:	e0 80 02 82 	breq	8000564c <d_print_comp+0x9d0>
8000514c:	72 09       	ld.w	r9,r9[0x0]
8000514e:	58 09       	cp.w	r9,0
80005150:	cf 11       	brne	80005132 <d_print_comp+0x4b6>
80005152:	ee f8 01 18 	ld.w	r8,r7[280]
80005156:	50 08       	stdsp	sp[0x0],r8
80005158:	ee f8 01 14 	ld.w	r8,r7[276]
8000515c:	50 38       	stdsp	sp[0xc],r8
8000515e:	30 08       	mov	r8,0
80005160:	50 16       	stdsp	sp[0x4],r6
80005162:	50 28       	stdsp	sp[0x8],r8
80005164:	ef 4d 01 18 	st.w	r7[280],sp
80005168:	0e 9c       	mov	r12,r7
8000516a:	6c 1b       	ld.w	r11,r6[0x4]
8000516c:	fe b0 fd 88 	rcall	80004c7c <d_print_comp>
80005170:	40 28       	lddsp	r8,sp[0x8]
80005172:	58 08       	cp.w	r8,0
80005174:	e0 81 00 d2 	brne	80005318 <d_print_comp+0x69c>
80005178:	0c 9b       	mov	r11,r6
8000517a:	0e 9c       	mov	r12,r7
8000517c:	e0 a0 03 e2 	rcall	80005940 <d_print_mod>
80005180:	cc c8       	rjmp	80005318 <d_print_comp+0x69c>
80005182:	76 18       	ld.w	r8,r11[0x4]
80005184:	78 09       	ld.w	r9,r12[0x0]
80005186:	ed b9 00 02 	bld	r9,0x2
8000518a:	c0 40       	breq	80005192 <d_print_comp+0x516>
8000518c:	70 0b       	ld.w	r11,r8[0x0]
8000518e:	70 1a       	ld.w	r10,r8[0x4]
80005190:	cc ab       	rjmp	80005124 <d_print_comp+0x4a8>
80005192:	70 2b       	ld.w	r11,r8[0x8]
80005194:	70 3a       	ld.w	r10,r8[0xc]
80005196:	cc 7b       	rjmp	80005124 <d_print_comp+0x4a8>
80005198:	80 00       	ld.sh	r0,r0[0x0]
8000519a:	d5 5c       	*unknown*
8000519c:	80 00       	ld.sh	r0,r0[0x0]
8000519e:	d5 6c       	*unknown*
800051a0:	80 00       	ld.sh	r0,r0[0x0]
800051a2:	d5 80       	acall	0x58
800051a4:	80 00       	ld.sh	r0,r0[0x0]
800051a6:	d5 94       	*unknown*
800051a8:	80 00       	ld.sh	r0,r0[0x0]
800051aa:	d5 98       	*unknown*
800051ac:	80 00       	ld.sh	r0,r0[0x0]
800051ae:	d5 ac       	*unknown*
800051b0:	80 00       	ld.sh	r0,r0[0x0]
800051b2:	d5 c8       	*unknown*
800051b4:	80 00       	ld.sh	r0,r0[0x0]
800051b6:	d5 d8       	*unknown*
800051b8:	80 00       	ld.sh	r0,r0[0x0]
800051ba:	d5 ec       	*unknown*
800051bc:	80 00       	ld.sh	r0,r0[0x0]
800051be:	d6 08       	*unknown*
800051c0:	78 08       	ld.w	r8,r12[0x0]
800051c2:	ed b8 00 05 	bld	r8,0x5
800051c6:	c0 51       	brne	800051d0 <d_print_comp+0x554>
800051c8:	f8 fa 01 18 	ld.w	r10,r12[280]
800051cc:	e0 a0 04 58 	rcall	80005a7c <d_print_function_type>
800051d0:	6c 18       	ld.w	r8,r6[0x4]
800051d2:	58 08       	cp.w	r8,0
800051d4:	c1 f0       	breq	80005212 <d_print_comp+0x596>
800051d6:	ee f8 01 18 	ld.w	r8,r7[280]
800051da:	50 08       	stdsp	sp[0x0],r8
800051dc:	ee f8 01 14 	ld.w	r8,r7[276]
800051e0:	50 38       	stdsp	sp[0xc],r8
800051e2:	30 08       	mov	r8,0
800051e4:	50 16       	stdsp	sp[0x4],r6
800051e6:	50 28       	stdsp	sp[0x8],r8
800051e8:	ef 4d 01 18 	st.w	r7[280],sp
800051ec:	0e 9c       	mov	r12,r7
800051ee:	6c 1b       	ld.w	r11,r6[0x4]
800051f0:	fe b0 fd 46 	rcall	80004c7c <d_print_comp>
800051f4:	40 08       	lddsp	r8,sp[0x0]
800051f6:	ef 48 01 18 	st.w	r7[280],r8
800051fa:	40 28       	lddsp	r8,sp[0x8]
800051fc:	58 08       	cp.w	r8,0
800051fe:	e0 81 02 8f 	brne	8000571c <d_print_comp+0xaa0>
80005202:	6e 08       	ld.w	r8,r7[0x0]
80005204:	ed b8 00 05 	bld	r8,0x5
80005208:	c0 50       	breq	80005212 <d_print_comp+0x596>
8000520a:	32 0b       	mov	r11,32
8000520c:	0e 9c       	mov	r12,r7
8000520e:	fe b0 f2 8f 	rcall	8000372c <d_append_char>
80005212:	6e 08       	ld.w	r8,r7[0x0]
80005214:	ed b8 00 05 	bld	r8,0x5
80005218:	e0 80 02 82 	breq	8000571c <d_print_comp+0xaa0>
8000521c:	0c 9b       	mov	r11,r6
8000521e:	0e 9c       	mov	r12,r7
80005220:	ee fa 01 18 	ld.w	r10,r7[280]
80005224:	e0 a0 04 2c 	rcall	80005a7c <d_print_function_type>
80005228:	e0 8f 02 7a 	bral	8000571c <d_print_comp+0xaa0>
8000522c:	f8 f4 01 18 	ld.w	r4,r12[280]
80005230:	30 09       	mov	r9,0
80005232:	50 04       	stdsp	sp[0x0],r4
80005234:	50 1b       	stdsp	sp[0x4],r11
80005236:	50 29       	stdsp	sp[0x8],r9
80005238:	30 15       	mov	r5,1
8000523a:	ee f9 01 14 	ld.w	r9,r7[276]
8000523e:	ef 4d 01 18 	st.w	r7[280],sp
80005242:	1a 9c       	mov	r12,sp
80005244:	50 39       	stdsp	sp[0xc],r9
80005246:	08 98       	mov	r8,r4
80005248:	0a 9b       	mov	r11,r5
8000524a:	c1 78       	rjmp	80005278 <d_print_comp+0x5fc>
8000524c:	70 23       	ld.w	r3,r8[0x8]
8000524e:	58 03       	cp.w	r3,0
80005250:	c1 31       	brne	80005276 <d_print_comp+0x5fa>
80005252:	58 35       	cp.w	r5,3
80005254:	e0 8b 02 61 	brhi	80005716 <d_print_comp+0xa9a>
80005258:	f0 e2 00 00 	ld.d	r2,r8[0]
8000525c:	f2 e3 00 00 	st.d	r9[0],r2
80005260:	f0 e2 00 08 	ld.d	r2,r8[8]
80005264:	f2 e3 00 08 	st.d	r9[8],r2
80005268:	ee f3 01 18 	ld.w	r3,r7[280]
8000526c:	93 03       	st.w	r9[0x0],r3
8000526e:	ef 4a 01 18 	st.w	r7[280],r10
80005272:	91 2b       	st.w	r8[0x8],r11
80005274:	2f f5       	sub	r5,-1
80005276:	70 08       	ld.w	r8,r8[0x0]
80005278:	ea 0a 15 04 	lsl	r10,r5,0x4
8000527c:	fa c9 ff b8 	sub	r9,sp,-72
80005280:	14 09       	add	r9,r10
80005282:	24 89       	sub	r9,72
80005284:	58 08       	cp.w	r8,0
80005286:	c0 90       	breq	80005298 <d_print_comp+0x61c>
80005288:	70 13       	ld.w	r3,r8[0x4]
8000528a:	f8 0a 00 0a 	add	r10,r12,r10
8000528e:	66 03       	ld.w	r3,r3[0x0]
80005290:	21 73       	sub	r3,23
80005292:	58 23       	cp.w	r3,2
80005294:	fe 98 ff dc 	brls	8000524c <d_print_comp+0x5d0>
80005298:	6c 2b       	ld.w	r11,r6[0x8]
8000529a:	0e 9c       	mov	r12,r7
8000529c:	fe b0 fc f0 	rcall	80004c7c <d_print_comp>
800052a0:	ef 44 01 18 	st.w	r7[280],r4
800052a4:	40 28       	lddsp	r8,sp[0x8]
800052a6:	58 08       	cp.w	r8,0
800052a8:	e0 81 02 3a 	brne	8000571c <d_print_comp+0xaa0>
800052ac:	ea 04 15 04 	lsl	r4,r5,0x4
800052b0:	fa c8 ff b8 	sub	r8,sp,-72
800052b4:	f0 04 00 04 	add	r4,r8,r4
800052b8:	25 44       	sub	r4,84
800052ba:	c0 78       	rjmp	800052c8 <d_print_comp+0x64c>
800052bc:	68 0b       	ld.w	r11,r4[0x0]
800052be:	20 15       	sub	r5,1
800052c0:	21 04       	sub	r4,16
800052c2:	0e 9c       	mov	r12,r7
800052c4:	e0 a0 03 3e 	rcall	80005940 <d_print_mod>
800052c8:	58 15       	cp.w	r5,1
800052ca:	fe 9b ff f9 	brhi	800052bc <d_print_comp+0x640>
800052ce:	0c 9b       	mov	r11,r6
800052d0:	0e 9c       	mov	r12,r7
800052d2:	ee fa 01 18 	ld.w	r10,r7[280]
800052d6:	e0 a0 04 a7 	rcall	80005c24 <d_print_array_type>
800052da:	e0 8f 02 21 	bral	8000571c <d_print_comp+0xaa0>
800052de:	f8 f8 01 18 	ld.w	r8,r12[280]
800052e2:	50 08       	stdsp	sp[0x0],r8
800052e4:	f8 f8 01 14 	ld.w	r8,r12[276]
800052e8:	50 38       	stdsp	sp[0xc],r8
800052ea:	30 08       	mov	r8,0
800052ec:	50 1b       	stdsp	sp[0x4],r11
800052ee:	50 28       	stdsp	sp[0x8],r8
800052f0:	ef 4d 01 18 	st.w	r7[280],sp
800052f4:	76 2b       	ld.w	r11,r11[0x8]
800052f6:	fe b0 fc c3 	rcall	80004c7c <d_print_comp>
800052fa:	40 28       	lddsp	r8,sp[0x8]
800052fc:	58 08       	cp.w	r8,0
800052fe:	c0 d1       	brne	80005318 <d_print_comp+0x69c>
80005300:	32 0b       	mov	r11,32
80005302:	0e 9c       	mov	r12,r7
80005304:	fe b0 f2 14 	rcall	8000372c <d_append_char>
80005308:	6c 1b       	ld.w	r11,r6[0x4]
8000530a:	0e 9c       	mov	r12,r7
8000530c:	fe b0 fc b8 	rcall	80004c7c <d_print_comp>
80005310:	4c 6b       	lddpc	r11,80005428 <d_print_comp+0x7ac>
80005312:	0e 9c       	mov	r12,r7
80005314:	fe b0 f2 96 	rcall	80003840 <d_append_string>
80005318:	40 08       	lddsp	r8,sp[0x0]
8000531a:	ef 48 01 18 	st.w	r7[280],r8
8000531e:	e0 8f 01 ff 	bral	8000571c <d_print_comp+0xaa0>
80005322:	96 59       	ld.sh	r9,r11[0xa]
80005324:	30 08       	mov	r8,0
80005326:	f0 09 19 00 	cp.h	r9,r8
8000532a:	c0 40       	breq	80005332 <d_print_comp+0x6b6>
8000532c:	4c 0b       	lddpc	r11,8000542c <d_print_comp+0x7b0>
8000532e:	fe b0 f2 89 	rcall	80003840 <d_append_string>
80005332:	6c 1b       	ld.w	r11,r6[0x4]
80005334:	4b f8       	lddpc	r8,80005430 <d_print_comp+0x7b4>
80005336:	76 19       	ld.w	r9,r11[0x4]
80005338:	f0 c8 fe 9c 	sub	r8,r8,-356
8000533c:	10 39       	cp.w	r9,r8
8000533e:	c0 80       	breq	8000534e <d_print_comp+0x6d2>
80005340:	0e 9c       	mov	r12,r7
80005342:	fe b0 fc 9d 	rcall	80004c7c <d_print_comp>
80005346:	32 0b       	mov	r11,32
80005348:	0e 9c       	mov	r12,r7
8000534a:	fe b0 f1 f1 	rcall	8000372c <d_append_char>
8000534e:	8c 49       	ld.sh	r9,r6[0x8]
80005350:	30 08       	mov	r8,0
80005352:	f0 09 19 00 	cp.h	r9,r8
80005356:	c0 50       	breq	80005360 <d_print_comp+0x6e4>
80005358:	0e 9c       	mov	r12,r7
8000535a:	4b 7b       	lddpc	r11,80005434 <d_print_comp+0x7b8>
8000535c:	e0 8f 01 9c 	bral	80005694 <d_print_comp+0xa18>
80005360:	0e 9c       	mov	r12,r7
80005362:	4b 6b       	lddpc	r11,80005438 <d_print_comp+0x7bc>
80005364:	e0 8f 01 98 	bral	80005694 <d_print_comp+0xa18>
80005368:	76 1b       	ld.w	r11,r11[0x4]
8000536a:	58 0b       	cp.w	r11,0
8000536c:	c0 30       	breq	80005372 <d_print_comp+0x6f6>
8000536e:	fe b0 fc 87 	rcall	80004c7c <d_print_comp>
80005372:	6c 28       	ld.w	r8,r6[0x8]
80005374:	58 08       	cp.w	r8,0
80005376:	e0 80 01 d3 	breq	8000571c <d_print_comp+0xaa0>
8000537a:	ee f8 01 04 	ld.w	r8,r7[260]
8000537e:	e0 48 00 fd 	cp.w	r8,253
80005382:	e0 88 00 16 	brls	800053ae <d_print_comp+0x732>
80005386:	10 9b       	mov	r11,r8
80005388:	30 09       	mov	r9,0
8000538a:	ee 08 00 08 	add	r8,r7,r8
8000538e:	ee fa 01 10 	ld.w	r10,r7[272]
80005392:	b0 c9       	st.b	r8[0x4],r9
80005394:	ee cc ff fc 	sub	r12,r7,-4
80005398:	ee f8 01 0c 	ld.w	r8,r7[268]
8000539c:	5d 18       	icall	r8
8000539e:	ee f8 01 24 	ld.w	r8,r7[292]
800053a2:	2f f8       	sub	r8,-1
800053a4:	ef 48 01 24 	st.w	r7[292],r8
800053a8:	30 08       	mov	r8,0
800053aa:	ef 48 01 04 	st.w	r7[260],r8
800053ae:	4a 4b       	lddpc	r11,8000543c <d_print_comp+0x7c0>
800053b0:	0e 9c       	mov	r12,r7
800053b2:	fe b0 f2 47 	rcall	80003840 <d_append_string>
800053b6:	6c 2b       	ld.w	r11,r6[0x8]
800053b8:	ee f5 01 24 	ld.w	r5,r7[292]
800053bc:	ee f6 01 04 	ld.w	r6,r7[260]
800053c0:	0e 9c       	mov	r12,r7
800053c2:	fe b0 fc 5d 	rcall	80004c7c <d_print_comp>
800053c6:	ee f8 01 24 	ld.w	r8,r7[292]
800053ca:	0a 38       	cp.w	r8,r5
800053cc:	e0 81 01 a8 	brne	8000571c <d_print_comp+0xaa0>
800053d0:	ee f8 01 04 	ld.w	r8,r7[260]
800053d4:	0c 38       	cp.w	r8,r6
800053d6:	e0 81 01 a3 	brne	8000571c <d_print_comp+0xaa0>
800053da:	20 28       	sub	r8,2
800053dc:	ef 48 01 04 	st.w	r7[260],r8
800053e0:	e0 8f 01 9e 	bral	8000571c <d_print_comp+0xaa0>
800053e4:	49 7b       	lddpc	r11,80005440 <d_print_comp+0x7c4>
800053e6:	fe b0 f2 2d 	rcall	80003840 <d_append_string>
800053ea:	6c 18       	ld.w	r8,r6[0x4]
800053ec:	70 18       	ld.w	r8,r8[0x4]
800053ee:	11 89       	ld.ub	r9,r8[0x0]
800053f0:	31 98       	mov	r8,25
800053f2:	26 19       	sub	r9,97
800053f4:	f0 09 18 00 	cp.b	r9,r8
800053f8:	e0 8b 00 06 	brhi	80005404 <d_print_comp+0x788>
800053fc:	32 0b       	mov	r11,32
800053fe:	0e 9c       	mov	r12,r7
80005400:	fe b0 f1 96 	rcall	8000372c <d_append_char>
80005404:	6c 18       	ld.w	r8,r6[0x4]
80005406:	0e 9c       	mov	r12,r7
80005408:	70 1b       	ld.w	r11,r8[0x4]
8000540a:	70 2a       	ld.w	r10,r8[0x8]
8000540c:	c8 ca       	rjmp	80005124 <d_print_comp+0x4a8>
8000540e:	48 eb       	lddpc	r11,80005444 <d_print_comp+0x7c8>
80005410:	fe b0 f2 18 	rcall	80003840 <d_append_string>
80005414:	c2 19       	rjmp	80005656 <d_print_comp+0x9da>
80005416:	48 cb       	lddpc	r11,80005444 <d_print_comp+0x7c8>
80005418:	fe b0 f2 14 	rcall	80003840 <d_append_string>
8000541c:	0c 9b       	mov	r11,r6
8000541e:	0e 9c       	mov	r12,r7
80005420:	e0 a0 04 40 	rcall	80005ca0 <d_print_cast>
80005424:	e0 8f 01 7c 	bral	8000571c <d_print_comp+0xaa0>
80005428:	80 00       	ld.sh	r0,r0[0x0]
8000542a:	d6 1c       	*unknown*
8000542c:	80 00       	ld.sh	r0,r0[0x0]
8000542e:	d6 20       	acall	0x62
80005430:	80 00       	ld.sh	r0,r0[0x0]
80005432:	5e bc       	rethi	r12
80005434:	80 00       	ld.sh	r0,r0[0x0]
80005436:	d6 28       	*unknown*
80005438:	80 00       	ld.sh	r0,r0[0x0]
8000543a:	d6 30       	acall	0x63
8000543c:	80 00       	ld.sh	r0,r0[0x0]
8000543e:	d6 38       	*unknown*
80005440:	80 00       	ld.sh	r0,r0[0x0]
80005442:	d6 3c       	*unknown*
80005444:	80 00       	ld.sh	r0,r0[0x0]
80005446:	d6 48       	*unknown*
80005448:	76 1b       	ld.w	r11,r11[0x4]
8000544a:	76 08       	ld.w	r8,r11[0x0]
8000544c:	e0 48 00 2d 	cp.w	r8,45
80005450:	c0 40       	breq	80005458 <d_print_comp+0x7dc>
80005452:	e0 a0 04 69 	rcall	80005d24 <d_print_expr_op>
80005456:	c0 c8       	rjmp	8000546e <d_print_comp+0x7f2>
80005458:	32 8b       	mov	r11,40
8000545a:	fe b0 f1 69 	rcall	8000372c <d_append_char>
8000545e:	6c 1b       	ld.w	r11,r6[0x4]
80005460:	0e 9c       	mov	r12,r7
80005462:	e0 a0 04 1f 	rcall	80005ca0 <d_print_cast>
80005466:	32 9b       	mov	r11,41
80005468:	0e 9c       	mov	r12,r7
8000546a:	fe b0 f1 61 	rcall	8000372c <d_append_char>
8000546e:	6c 2b       	ld.w	r11,r6[0x8]
80005470:	0e 9c       	mov	r12,r7
80005472:	c6 28       	rjmp	80005536 <d_print_comp+0x8ba>
80005474:	76 28       	ld.w	r8,r11[0x8]
80005476:	70 08       	ld.w	r8,r8[0x0]
80005478:	e0 48 00 30 	cp.w	r8,48
8000547c:	e0 81 01 4d 	brne	80005716 <d_print_comp+0xa9a>
80005480:	76 18       	ld.w	r8,r11[0x4]
80005482:	70 09       	ld.w	r9,r8[0x0]
80005484:	e0 49 00 2b 	cp.w	r9,43
80005488:	c0 e1       	brne	800054a4 <d_print_comp+0x828>
8000548a:	70 18       	ld.w	r8,r8[0x4]
8000548c:	70 29       	ld.w	r9,r8[0x8]
8000548e:	58 19       	cp.w	r9,1
80005490:	c0 a1       	brne	800054a4 <d_print_comp+0x828>
80005492:	70 18       	ld.w	r8,r8[0x4]
80005494:	11 89       	ld.ub	r9,r8[0x0]
80005496:	33 e8       	mov	r8,62
80005498:	f0 09 18 00 	cp.b	r9,r8
8000549c:	c0 41       	brne	800054a4 <d_print_comp+0x828>
8000549e:	32 8b       	mov	r11,40
800054a0:	fe b0 f1 46 	rcall	8000372c <d_append_char>
800054a4:	6c 28       	ld.w	r8,r6[0x8]
800054a6:	0e 9c       	mov	r12,r7
800054a8:	70 1b       	ld.w	r11,r8[0x4]
800054aa:	e0 a0 04 4b 	rcall	80005d40 <d_print_subexpr>
800054ae:	6c 15       	ld.w	r5,r6[0x4]
800054b0:	6a 18       	ld.w	r8,r5[0x4]
800054b2:	4c 1b       	lddpc	r11,800055b4 <d_print_comp+0x938>
800054b4:	70 0c       	ld.w	r12,r8[0x0]
800054b6:	f0 1f 00 41 	mcall	800055b8 <d_print_comp+0x93c>
800054ba:	c0 50       	breq	800054c4 <d_print_comp+0x848>
800054bc:	0a 9b       	mov	r11,r5
800054be:	0e 9c       	mov	r12,r7
800054c0:	e0 a0 04 32 	rcall	80005d24 <d_print_expr_op>
800054c4:	6c 28       	ld.w	r8,r6[0x8]
800054c6:	0e 9c       	mov	r12,r7
800054c8:	70 2b       	ld.w	r11,r8[0x8]
800054ca:	e0 a0 04 3b 	rcall	80005d40 <d_print_subexpr>
800054ce:	6c 18       	ld.w	r8,r6[0x4]
800054d0:	70 09       	ld.w	r9,r8[0x0]
800054d2:	e0 49 00 2b 	cp.w	r9,43
800054d6:	e0 81 01 23 	brne	8000571c <d_print_comp+0xaa0>
800054da:	70 18       	ld.w	r8,r8[0x4]
800054dc:	70 29       	ld.w	r9,r8[0x8]
800054de:	58 19       	cp.w	r9,1
800054e0:	e0 81 01 1e 	brne	8000571c <d_print_comp+0xaa0>
800054e4:	70 18       	ld.w	r8,r8[0x4]
800054e6:	11 89       	ld.ub	r9,r8[0x0]
800054e8:	33 e8       	mov	r8,62
800054ea:	f0 09 18 00 	cp.b	r9,r8
800054ee:	e0 81 01 17 	brne	8000571c <d_print_comp+0xaa0>
800054f2:	cc 08       	rjmp	80005672 <d_print_comp+0x9f6>
800054f4:	76 28       	ld.w	r8,r11[0x8]
800054f6:	70 09       	ld.w	r9,r8[0x0]
800054f8:	e0 49 00 32 	cp.w	r9,50
800054fc:	e0 81 01 0d 	brne	80005716 <d_print_comp+0xa9a>
80005500:	70 29       	ld.w	r9,r8[0x8]
80005502:	72 09       	ld.w	r9,r9[0x0]
80005504:	e0 49 00 33 	cp.w	r9,51
80005508:	e0 81 01 07 	brne	80005716 <d_print_comp+0xa9a>
8000550c:	70 1b       	ld.w	r11,r8[0x4]
8000550e:	e0 a0 04 19 	rcall	80005d40 <d_print_subexpr>
80005512:	6c 1b       	ld.w	r11,r6[0x4]
80005514:	0e 9c       	mov	r12,r7
80005516:	e0 a0 04 07 	rcall	80005d24 <d_print_expr_op>
8000551a:	6c 28       	ld.w	r8,r6[0x8]
8000551c:	70 28       	ld.w	r8,r8[0x8]
8000551e:	0e 9c       	mov	r12,r7
80005520:	70 1b       	ld.w	r11,r8[0x4]
80005522:	e0 a0 04 0f 	rcall	80005d40 <d_print_subexpr>
80005526:	0e 9c       	mov	r12,r7
80005528:	4a 5b       	lddpc	r11,800055bc <d_print_comp+0x940>
8000552a:	fe b0 f1 8b 	rcall	80003840 <d_append_string>
8000552e:	6c 28       	ld.w	r8,r6[0x8]
80005530:	0e 9c       	mov	r12,r7
80005532:	70 28       	ld.w	r8,r8[0x8]
80005534:	70 2b       	ld.w	r11,r8[0x8]
80005536:	e0 a0 04 05 	rcall	80005d40 <d_print_subexpr>
8000553a:	cf 18       	rjmp	8000571c <d_print_comp+0xaa0>
8000553c:	76 19       	ld.w	r9,r11[0x4]
8000553e:	72 0a       	ld.w	r10,r9[0x0]
80005540:	e0 4a 00 23 	cp.w	r10,35
80005544:	c5 d1       	brne	800055fe <d_print_comp+0x982>
80005546:	72 19       	ld.w	r9,r9[0x4]
80005548:	72 45       	ld.w	r5,r9[0x10]
8000554a:	58 15       	cp.w	r5,1
8000554c:	c5 a3       	brcs	80005600 <d_print_comp+0x984>
8000554e:	58 65       	cp.w	r5,6
80005550:	e0 88 00 05 	brls	8000555a <d_print_comp+0x8de>
80005554:	58 75       	cp.w	r5,7
80005556:	c5 51       	brne	80005600 <d_print_comp+0x984>
80005558:	c3 a8       	rjmp	800055cc <d_print_comp+0x950>
8000555a:	76 29       	ld.w	r9,r11[0x8]
8000555c:	72 09       	ld.w	r9,r9[0x0]
8000555e:	58 09       	cp.w	r9,0
80005560:	c5 01       	brne	80005600 <d_print_comp+0x984>
80005562:	e0 48 00 35 	cp.w	r8,53
80005566:	c0 41       	brne	8000556e <d_print_comp+0x8f2>
80005568:	32 db       	mov	r11,45
8000556a:	fe b0 f0 e1 	rcall	8000372c <d_append_char>
8000556e:	6c 2b       	ld.w	r11,r6[0x8]
80005570:	0e 9c       	mov	r12,r7
80005572:	fe b0 fb 85 	rcall	80004c7c <d_print_comp>
80005576:	58 45       	cp.w	r5,4
80005578:	c1 50       	breq	800055a2 <d_print_comp+0x926>
8000557a:	e0 8b 00 08 	brhi	8000558a <d_print_comp+0x90e>
8000557e:	58 25       	cp.w	r5,2
80005580:	c0 b0       	breq	80005596 <d_print_comp+0x91a>
80005582:	58 35       	cp.w	r5,3
80005584:	e0 81 00 cc 	brne	8000571c <d_print_comp+0xaa0>
80005588:	c0 a8       	rjmp	8000559c <d_print_comp+0x920>
8000558a:	58 55       	cp.w	r5,5
8000558c:	c0 e0       	breq	800055a8 <d_print_comp+0x92c>
8000558e:	58 65       	cp.w	r5,6
80005590:	e0 81 00 c6 	brne	8000571c <d_print_comp+0xaa0>
80005594:	c0 d8       	rjmp	800055ae <d_print_comp+0x932>
80005596:	0e 9c       	mov	r12,r7
80005598:	37 5b       	mov	r11,117
8000559a:	c6 e8       	rjmp	80005676 <d_print_comp+0x9fa>
8000559c:	0e 9c       	mov	r12,r7
8000559e:	36 cb       	mov	r11,108
800055a0:	c6 b8       	rjmp	80005676 <d_print_comp+0x9fa>
800055a2:	0e 9c       	mov	r12,r7
800055a4:	48 7b       	lddpc	r11,800055c0 <d_print_comp+0x944>
800055a6:	c7 78       	rjmp	80005694 <d_print_comp+0xa18>
800055a8:	0e 9c       	mov	r12,r7
800055aa:	48 7b       	lddpc	r11,800055c4 <d_print_comp+0x948>
800055ac:	c7 48       	rjmp	80005694 <d_print_comp+0xa18>
800055ae:	0e 9c       	mov	r12,r7
800055b0:	48 6b       	lddpc	r11,800055c8 <d_print_comp+0x94c>
800055b2:	c7 18       	rjmp	80005694 <d_print_comp+0xa18>
800055b4:	80 00       	ld.sh	r0,r0[0x0]
800055b6:	d4 f8       	*unknown*
800055b8:	80 00       	ld.sh	r0,r0[0x0]
800055ba:	84 b4       	ld.uh	r4,r2[0x6]
800055bc:	80 00       	ld.sh	r0,r0[0x0]
800055be:	d6 54       	*unknown*
800055c0:	80 00       	ld.sh	r0,r0[0x0]
800055c2:	d6 58       	*unknown*
800055c4:	80 00       	ld.sh	r0,r0[0x0]
800055c6:	d6 5c       	*unknown*
800055c8:	80 00       	ld.sh	r0,r0[0x0]
800055ca:	d6 60       	acall	0x66
800055cc:	76 29       	ld.w	r9,r11[0x8]
800055ce:	72 0a       	ld.w	r10,r9[0x0]
800055d0:	58 0a       	cp.w	r10,0
800055d2:	c1 71       	brne	80005600 <d_print_comp+0x984>
800055d4:	72 2a       	ld.w	r10,r9[0x8]
800055d6:	58 1a       	cp.w	r10,1
800055d8:	c1 41       	brne	80005600 <d_print_comp+0x984>
800055da:	e0 48 00 34 	cp.w	r8,52
800055de:	c1 11       	brne	80005600 <d_print_comp+0x984>
800055e0:	72 18       	ld.w	r8,r9[0x4]
800055e2:	33 09       	mov	r9,48
800055e4:	11 88       	ld.ub	r8,r8[0x0]
800055e6:	f2 08 18 00 	cp.b	r8,r9
800055ea:	c0 60       	breq	800055f6 <d_print_comp+0x97a>
800055ec:	33 19       	mov	r9,49
800055ee:	f2 08 18 00 	cp.b	r8,r9
800055f2:	c0 71       	brne	80005600 <d_print_comp+0x984>
800055f4:	c0 38       	rjmp	800055fa <d_print_comp+0x97e>
800055f6:	4b ab       	lddpc	r11,800056dc <d_print_comp+0xa60>
800055f8:	c4 e8       	rjmp	80005694 <d_print_comp+0xa18>
800055fa:	4b ab       	lddpc	r11,800056e0 <d_print_comp+0xa64>
800055fc:	c4 c8       	rjmp	80005694 <d_print_comp+0xa18>
800055fe:	30 05       	mov	r5,0
80005600:	32 8b       	mov	r11,40
80005602:	0e 9c       	mov	r12,r7
80005604:	fe b0 f0 94 	rcall	8000372c <d_append_char>
80005608:	6c 1b       	ld.w	r11,r6[0x4]
8000560a:	0e 9c       	mov	r12,r7
8000560c:	fe b0 fb 38 	rcall	80004c7c <d_print_comp>
80005610:	32 9b       	mov	r11,41
80005612:	0e 9c       	mov	r12,r7
80005614:	fe b0 f0 8c 	rcall	8000372c <d_append_char>
80005618:	6c 08       	ld.w	r8,r6[0x0]
8000561a:	e0 48 00 35 	cp.w	r8,53
8000561e:	c0 51       	brne	80005628 <d_print_comp+0x9ac>
80005620:	32 db       	mov	r11,45
80005622:	0e 9c       	mov	r12,r7
80005624:	fe b0 f0 84 	rcall	8000372c <d_append_char>
80005628:	58 85       	cp.w	r5,8
8000562a:	c0 51       	brne	80005634 <d_print_comp+0x9b8>
8000562c:	35 bb       	mov	r11,91
8000562e:	0e 9c       	mov	r12,r7
80005630:	fe b0 f0 7e 	rcall	8000372c <d_append_char>
80005634:	6c 2b       	ld.w	r11,r6[0x8]
80005636:	0e 9c       	mov	r12,r7
80005638:	fe b0 fb 22 	rcall	80004c7c <d_print_comp>
8000563c:	58 85       	cp.w	r5,8
8000563e:	c6 f1       	brne	8000571c <d_print_comp+0xaa0>
80005640:	0e 9c       	mov	r12,r7
80005642:	35 db       	mov	r11,93
80005644:	c1 98       	rjmp	80005676 <d_print_comp+0x9fa>
80005646:	4a 8b       	lddpc	r11,800056e4 <d_print_comp+0xa68>
80005648:	fe b0 f0 fc 	rcall	80003840 <d_append_string>
8000564c:	6c 1b       	ld.w	r11,r6[0x4]
8000564e:	c0 58       	rjmp	80005658 <d_print_comp+0x9dc>
80005650:	76 1b       	ld.w	r11,r11[0x4]
80005652:	fe b0 fb 15 	rcall	80004c7c <d_print_comp>
80005656:	6c 2b       	ld.w	r11,r6[0x8]
80005658:	0e 9c       	mov	r12,r7
8000565a:	fe b0 fb 11 	rcall	80004c7c <d_print_comp>
8000565e:	c5 f8       	rjmp	8000571c <d_print_comp+0xaa0>
80005660:	17 fb       	ld.ub	r11,r11[0x7]
80005662:	c0 a8       	rjmp	80005676 <d_print_comp+0x9fa>
80005664:	4a 1b       	lddpc	r11,800056e8 <d_print_comp+0xa6c>
80005666:	fe b0 f0 ed 	rcall	80003840 <d_append_string>
8000566a:	6c 1b       	ld.w	r11,r6[0x4]
8000566c:	0e 9c       	mov	r12,r7
8000566e:	fe b0 fb 07 	rcall	80004c7c <d_print_comp>
80005672:	0e 9c       	mov	r12,r7
80005674:	32 9b       	mov	r11,41
80005676:	fe b0 f0 5b 	rcall	8000372c <d_append_char>
8000567a:	c5 18       	rjmp	8000571c <d_print_comp+0xaa0>
8000567c:	76 1b       	ld.w	r11,r11[0x4]
8000567e:	fe b0 f0 89 	rcall	80003790 <d_find_pack>
80005682:	c0 30       	breq	80005688 <d_print_comp+0xa0c>
80005684:	30 05       	mov	r5,0
80005686:	c0 e8       	rjmp	800056a2 <d_print_comp+0xa26>
80005688:	6c 1b       	ld.w	r11,r6[0x4]
8000568a:	0e 9c       	mov	r12,r7
8000568c:	e0 a0 03 5a 	rcall	80005d40 <d_print_subexpr>
80005690:	0e 9c       	mov	r12,r7
80005692:	49 7b       	lddpc	r11,800056ec <d_print_comp+0xa70>
80005694:	fe b0 f0 d6 	rcall	80003840 <d_append_string>
80005698:	c4 28       	rjmp	8000571c <d_print_comp+0xaa0>
8000569a:	2f f5       	sub	r5,-1
8000569c:	78 2c       	ld.w	r12,r12[0x8]
8000569e:	58 0c       	cp.w	r12,0
800056a0:	c0 80       	breq	800056b0 <d_print_comp+0xa34>
800056a2:	78 08       	ld.w	r8,r12[0x0]
800056a4:	e0 48 00 2a 	cp.w	r8,42
800056a8:	c0 41       	brne	800056b0 <d_print_comp+0xa34>
800056aa:	78 18       	ld.w	r8,r12[0x4]
800056ac:	58 08       	cp.w	r8,0
800056ae:	cf 61       	brne	8000569a <d_print_comp+0xa1e>
800056b0:	6c 13       	ld.w	r3,r6[0x4]
800056b2:	ea c4 00 01 	sub	r4,r5,1
800056b6:	30 06       	mov	r6,0
800056b8:	c0 e8       	rjmp	800056d4 <d_print_comp+0xa58>
800056ba:	ef 46 01 20 	st.w	r7[288],r6
800056be:	06 9b       	mov	r11,r3
800056c0:	0e 9c       	mov	r12,r7
800056c2:	fe b0 fa dd 	rcall	80004c7c <d_print_comp>
800056c6:	08 36       	cp.w	r6,r4
800056c8:	c0 54       	brge	800056d2 <d_print_comp+0xa56>
800056ca:	48 ab       	lddpc	r11,800056f0 <d_print_comp+0xa74>
800056cc:	0e 9c       	mov	r12,r7
800056ce:	fe b0 f0 b9 	rcall	80003840 <d_append_string>
800056d2:	2f f6       	sub	r6,-1
800056d4:	0a 36       	cp.w	r6,r5
800056d6:	cf 25       	brlt	800056ba <d_print_comp+0xa3e>
800056d8:	c2 28       	rjmp	8000571c <d_print_comp+0xaa0>
800056da:	00 00       	add	r0,r0
800056dc:	80 00       	ld.sh	r0,r0[0x0]
800056de:	d6 64       	*unknown*
800056e0:	80 00       	ld.sh	r0,r0[0x0]
800056e2:	d6 6c       	*unknown*
800056e4:	80 00       	ld.sh	r0,r0[0x0]
800056e6:	d6 74       	*unknown*
800056e8:	80 00       	ld.sh	r0,r0[0x0]
800056ea:	d6 84       	*unknown*
800056ec:	80 00       	ld.sh	r0,r0[0x0]
800056ee:	d6 90       	acall	0x69
800056f0:	80 00       	ld.sh	r0,r0[0x0]
800056f2:	d6 38       	*unknown*
800056f4:	48 bb       	lddpc	r11,80005720 <d_print_comp+0xaa4>
800056f6:	fe b0 f0 a5 	rcall	80003840 <d_append_string>
800056fa:	6c 18       	ld.w	r8,r6[0x4]
800056fc:	48 ab       	lddpc	r11,80005724 <d_print_comp+0xaa8>
800056fe:	1a d8       	st.w	--sp,r8
80005700:	fa c6 ff fc 	sub	r6,sp,-4
80005704:	0c 9c       	mov	r12,r6
80005706:	f0 1f 00 09 	mcall	80005728 <d_print_comp+0xaac>
8000570a:	0c 9b       	mov	r11,r6
8000570c:	0e 9c       	mov	r12,r7
8000570e:	fe b0 f0 99 	rcall	80003840 <d_append_string>
80005712:	2f fd       	sub	sp,-4
80005714:	c0 48       	rjmp	8000571c <d_print_comp+0xaa0>
80005716:	30 18       	mov	r8,1
80005718:	ef 48 01 1c 	st.w	r7[284],r8
8000571c:	2e ed       	sub	sp,-72
8000571e:	d8 32       	popm	r0-r7,pc
80005720:	80 00       	ld.sh	r0,r0[0x0]
80005722:	d6 94       	*unknown*
80005724:	80 00       	ld.sh	r0,r0[0x0]
80005726:	d6 9c       	*unknown*
80005728:	80 00       	ld.sh	r0,r0[0x0]
8000572a:	84 74       	ld.sh	r4,r2[0xe]

8000572c <d_demangle_callback>:
8000572c:	d4 31       	pushm	r0-r7,lr
8000572e:	1a 97       	mov	r7,sp
80005730:	fa cd 01 5c 	sub	sp,sp,348
80005734:	35 f8       	mov	r8,95
80005736:	12 92       	mov	r2,r9
80005738:	18 90       	mov	r0,r12
8000573a:	16 96       	mov	r6,r11
8000573c:	14 95       	mov	r5,r10
8000573e:	1a 94       	mov	r4,sp
80005740:	19 89       	ld.ub	r9,r12[0x0]
80005742:	f0 09 18 00 	cp.b	r9,r8
80005746:	c0 81       	brne	80005756 <d_demangle_callback+0x2a>
80005748:	19 99       	ld.ub	r9,r12[0x1]
8000574a:	35 a8       	mov	r8,90
8000574c:	f0 09 18 00 	cp.b	r9,r8
80005750:	c0 31       	brne	80005756 <d_demangle_callback+0x2a>
80005752:	30 01       	mov	r1,0
80005754:	c4 98       	rjmp	800057e6 <d_demangle_callback+0xba>
80005756:	30 8a       	mov	r10,8
80005758:	4c 9b       	lddpc	r11,8000587c <d_demangle_callback+0x150>
8000575a:	00 9c       	mov	r12,r0
8000575c:	f0 1f 00 49 	mcall	80005880 <d_demangle_callback+0x154>
80005760:	c3 d1       	brne	800057da <d_demangle_callback+0xae>
80005762:	35 f9       	mov	r9,95
80005764:	e1 38 00 08 	ld.ub	r8,r0[8]
80005768:	f2 08 18 00 	cp.b	r8,r9
8000576c:	5f 0a       	sreq	r10
8000576e:	32 e9       	mov	r9,46
80005770:	f2 08 18 00 	cp.b	r8,r9
80005774:	5f 09       	sreq	r9
80005776:	f5 e9 10 09 	or	r9,r10,r9
8000577a:	f8 09 18 00 	cp.b	r9,r12
8000577e:	c0 51       	brne	80005788 <d_demangle_callback+0x5c>
80005780:	32 49       	mov	r9,36
80005782:	f2 08 18 00 	cp.b	r8,r9
80005786:	c2 a1       	brne	800057da <d_demangle_callback+0xae>
80005788:	e1 39 00 09 	ld.ub	r9,r0[9]
8000578c:	34 98       	mov	r8,73
8000578e:	34 4a       	mov	r10,68
80005790:	f0 09 18 00 	cp.b	r9,r8
80005794:	5f 08       	sreq	r8
80005796:	f4 09 18 00 	cp.b	r9,r10
8000579a:	5f 09       	sreq	r9
8000579c:	f1 e9 10 09 	or	r9,r8,r9
800057a0:	c1 d0       	breq	800057da <d_demangle_callback+0xae>
800057a2:	e1 3a 00 0a 	ld.ub	r10,r0[10]
800057a6:	35 f9       	mov	r9,95
800057a8:	f2 0a 18 00 	cp.b	r10,r9
800057ac:	c1 71       	brne	800057da <d_demangle_callback+0xae>
800057ae:	4b 69       	lddpc	r9,80005884 <d_demangle_callback+0x158>
800057b0:	4b 66       	lddpc	r6,80005888 <d_demangle_callback+0x15c>
800057b2:	58 08       	cp.w	r8,0
800057b4:	f2 06 17 00 	moveq	r6,r9
800057b8:	0c 9c       	mov	r12,r6
800057ba:	f0 1f 00 35 	mcall	8000588c <d_demangle_callback+0x160>
800057be:	04 9a       	mov	r10,r2
800057c0:	18 9b       	mov	r11,r12
800057c2:	0c 9c       	mov	r12,r6
800057c4:	5d 15       	icall	r5
800057c6:	2f 50       	sub	r0,-11
800057c8:	00 9c       	mov	r12,r0
800057ca:	f0 1f 00 31 	mcall	8000588c <d_demangle_callback+0x160>
800057ce:	04 9a       	mov	r10,r2
800057d0:	18 9b       	mov	r11,r12
800057d2:	00 9c       	mov	r12,r0
800057d4:	5d 15       	icall	r5
800057d6:	30 1c       	mov	r12,1
800057d8:	c9 d8       	rjmp	80005912 <d_demangle_callback+0x1e6>
800057da:	0c 9c       	mov	r12,r6
800057dc:	e2 1c 00 10 	andl	r12,0x10,COH
800057e0:	e0 80 00 99 	breq	80005912 <d_demangle_callback+0x1e6>
800057e4:	30 11       	mov	r1,1
800057e6:	00 9c       	mov	r12,r0
800057e8:	f0 1f 00 29 	mcall	8000588c <d_demangle_callback+0x160>
800057ec:	30 08       	mov	r8,0
800057ee:	ef 48 ff fc 	st.w	r7[-4],r8
800057f2:	ef 48 ff e0 	st.w	r7[-32],r8
800057f6:	ef 48 ff ec 	st.w	r7[-20],r8
800057fa:	ef 48 ff f4 	st.w	r7[-12],r8
800057fe:	ef 48 ff f8 	st.w	r7[-8],r8
80005802:	f8 08 15 01 	lsl	r8,r12,0x1
80005806:	f8 09 15 02 	lsl	r9,r12,0x2
8000580a:	1a 93       	mov	r3,sp
8000580c:	f2 ca ff fc 	sub	r10,r9,-4
80005810:	ef 4c ff f0 	st.w	r7[-16],r12
80005814:	10 09       	add	r9,r8
80005816:	ef 48 ff e4 	st.w	r7[-28],r8
8000581a:	a3 69       	lsl	r9,0x2
8000581c:	e0 0c 00 0c 	add	r12,r0,r12
80005820:	2f c9       	sub	r9,-4
80005822:	ef 40 ff cc 	st.w	r7[-52],r0
80005826:	12 1d       	sub	sp,r9
80005828:	ef 46 ff d4 	st.w	r7[-44],r6
8000582c:	1a 98       	mov	r8,sp
8000582e:	ef 40 ff d8 	st.w	r7[-40],r0
80005832:	14 1d       	sub	sp,r10
80005834:	ef 4c ff d0 	st.w	r7[-48],r12
80005838:	ef 48 ff dc 	st.w	r7[-36],r8
8000583c:	ef 4d ff e8 	st.w	r7[-24],sp
80005840:	58 01       	cp.w	r1,0
80005842:	c0 60       	breq	8000584e <d_demangle_callback+0x122>
80005844:	ee cc 00 34 	sub	r12,r7,52
80005848:	fe b0 f1 78 	rcall	80003b38 <d_type>
8000584c:	c2 38       	rjmp	80005892 <d_demangle_callback+0x166>
8000584e:	01 89       	ld.ub	r9,r0[0x0]
80005850:	35 f8       	mov	r8,95
80005852:	f0 09 18 00 	cp.b	r9,r8
80005856:	c1 d1       	brne	80005890 <d_demangle_callback+0x164>
80005858:	2f f0       	sub	r0,-1
8000585a:	ef 40 ff d8 	st.w	r7[-40],r0
8000585e:	35 a8       	mov	r8,90
80005860:	01 89       	ld.ub	r9,r0[0x0]
80005862:	f0 09 18 00 	cp.b	r9,r8
80005866:	c1 51       	brne	80005890 <d_demangle_callback+0x164>
80005868:	2f f0       	sub	r0,-1
8000586a:	30 1b       	mov	r11,1
8000586c:	ef 40 ff d8 	st.w	r7[-40],r0
80005870:	ee cc 00 34 	sub	r12,r7,52
80005874:	fe b0 f7 f4 	rcall	8000485c <d_encoding>
80005878:	c0 d8       	rjmp	80005892 <d_demangle_callback+0x166>
8000587a:	00 00       	add	r0,r0
8000587c:	80 00       	ld.sh	r0,r0[0x0]
8000587e:	d4 d4       	*unknown*
80005880:	80 00       	ld.sh	r0,r0[0x0]
80005882:	85 84       	st.w	r2[0x20],r4
80005884:	80 00       	ld.sh	r0,r0[0x0]
80005886:	d6 a0       	acall	0x6a
80005888:	80 00       	ld.sh	r0,r0[0x0]
8000588a:	d6 c0       	acall	0x6c
8000588c:	80 00       	ld.sh	r0,r0[0x0]
8000588e:	85 6e       	st.w	r2[0x18],lr
80005890:	30 0c       	mov	r12,0
80005892:	ed b6 00 00 	bld	r6,0x0
80005896:	c0 81       	brne	800058a6 <d_demangle_callback+0x17a>
80005898:	ee f8 ff d8 	ld.w	r8,r7[-40]
8000589c:	11 89       	ld.ub	r9,r8[0x0]
8000589e:	30 08       	mov	r8,0
800058a0:	f0 09 18 00 	cp.b	r9,r8
800058a4:	c3 51       	brne	8000590e <d_demangle_callback+0x1e2>
800058a6:	58 0c       	cp.w	r12,0
800058a8:	c3 30       	breq	8000590e <d_demangle_callback+0x1e2>
800058aa:	18 9b       	mov	r11,r12
800058ac:	ef 46 fe a4 	st.w	r7[-348],r6
800058b0:	ee cc 01 5c 	sub	r12,r7,348
800058b4:	30 06       	mov	r6,0
800058b6:	ef 45 ff b0 	st.w	r7[-80],r5
800058ba:	ef 42 ff b4 	st.w	r7[-76],r2
800058be:	ef 46 ff a8 	st.w	r7[-88],r6
800058c2:	ef 66 ff ac 	st.b	r7[-84],r6
800058c6:	ef 46 ff b8 	st.w	r7[-72],r6
800058ca:	ef 46 ff bc 	st.w	r7[-68],r6
800058ce:	ef 46 ff c8 	st.w	r7[-56],r6
800058d2:	ef 46 ff c0 	st.w	r7[-64],r6
800058d6:	fe b0 f9 d3 	rcall	80004c7c <d_print_comp>
800058da:	ee f8 ff a8 	ld.w	r8,r7[-88]
800058de:	10 9b       	mov	r11,r8
800058e0:	ee 08 00 08 	add	r8,r7,r8
800058e4:	ee cc 01 58 	sub	r12,r7,344
800058e8:	f1 66 fe a8 	st.b	r8[-344],r6
800058ec:	ee fa ff b4 	ld.w	r10,r7[-76]
800058f0:	ee f8 ff b0 	ld.w	r8,r7[-80]
800058f4:	5d 18       	icall	r8
800058f6:	ee f8 ff c8 	ld.w	r8,r7[-56]
800058fa:	2f f8       	sub	r8,-1
800058fc:	ef 46 ff a8 	st.w	r7[-88],r6
80005900:	ef 48 ff c8 	st.w	r7[-56],r8
80005904:	ee f8 ff c0 	ld.w	r8,r7[-64]
80005908:	58 08       	cp.w	r8,0
8000590a:	5f 0c       	sreq	r12
8000590c:	c0 28       	rjmp	80005910 <d_demangle_callback+0x1e4>
8000590e:	30 0c       	mov	r12,0
80005910:	06 9d       	mov	sp,r3
80005912:	08 9d       	mov	sp,r4
80005914:	2a 9d       	sub	sp,-348
80005916:	d8 32       	popm	r0-r7,pc

80005918 <__gcclibcxx_demangle_callback>:
80005918:	d4 01       	pushm	lr
8000591a:	58 0b       	cp.w	r11,0
8000591c:	5f 09       	sreq	r9
8000591e:	58 0c       	cp.w	r12,0
80005920:	5f 08       	sreq	r8
80005922:	f3 e8 10 08 	or	r8,r9,r8
80005926:	14 99       	mov	r9,r10
80005928:	c0 30       	breq	8000592e <__gcclibcxx_demangle_callback+0x16>
8000592a:	3f dc       	mov	r12,-3
8000592c:	d8 02       	popm	pc
8000592e:	16 9a       	mov	r10,r11
80005930:	31 1b       	mov	r11,17
80005932:	cf de       	rcall	8000572c <d_demangle_callback>
80005934:	f9 bc 00 fe 	moveq	r12,-2
80005938:	f9 bc 01 00 	movne	r12,0
8000593c:	d8 02       	popm	pc
	...

80005940 <d_print_mod>:
80005940:	d4 21       	pushm	r4-r7,lr
80005942:	76 08       	ld.w	r8,r11[0x0]
80005944:	16 96       	mov	r6,r11
80005946:	18 97       	mov	r7,r12
80005948:	20 38       	sub	r8,3
8000594a:	e0 48 00 24 	cp.w	r8,36
8000594e:	e0 8b 00 81 	brhi	80005a50 <d_print_mod+0x110>
80005952:	4c 39       	lddpc	r9,80005a5c <d_print_mod+0x11c>
80005954:	f2 08 03 2f 	ld.w	pc,r9[r8<<0x2]
80005958:	80 00       	ld.sh	r0,r0[0x0]
8000595a:	5a 46       	cp.w	r6,-28
8000595c:	80 00       	ld.sh	r0,r0[0x0]
8000595e:	5a 50       	cp.w	r0,-27
80005960:	80 00       	ld.sh	r0,r0[0x0]
80005962:	5a 50       	cp.w	r0,-27
80005964:	80 00       	ld.sh	r0,r0[0x0]
80005966:	5a 50       	cp.w	r0,-27
80005968:	80 00       	ld.sh	r0,r0[0x0]
8000596a:	5a 50       	cp.w	r0,-27
8000596c:	80 00       	ld.sh	r0,r0[0x0]
8000596e:	5a 50       	cp.w	r0,-27
80005970:	80 00       	ld.sh	r0,r0[0x0]
80005972:	5a 50       	cp.w	r0,-27
80005974:	80 00       	ld.sh	r0,r0[0x0]
80005976:	5a 50       	cp.w	r0,-27
80005978:	80 00       	ld.sh	r0,r0[0x0]
8000597a:	5a 50       	cp.w	r0,-27
8000597c:	80 00       	ld.sh	r0,r0[0x0]
8000597e:	5a 50       	cp.w	r0,-27
80005980:	80 00       	ld.sh	r0,r0[0x0]
80005982:	5a 50       	cp.w	r0,-27
80005984:	80 00       	ld.sh	r0,r0[0x0]
80005986:	5a 50       	cp.w	r0,-27
80005988:	80 00       	ld.sh	r0,r0[0x0]
8000598a:	5a 50       	cp.w	r0,-27
8000598c:	80 00       	ld.sh	r0,r0[0x0]
8000598e:	5a 50       	cp.w	r0,-27
80005990:	80 00       	ld.sh	r0,r0[0x0]
80005992:	5a 50       	cp.w	r0,-27
80005994:	80 00       	ld.sh	r0,r0[0x0]
80005996:	5a 50       	cp.w	r0,-27
80005998:	80 00       	ld.sh	r0,r0[0x0]
8000599a:	5a 50       	cp.w	r0,-27
8000599c:	80 00       	ld.sh	r0,r0[0x0]
8000599e:	5a 50       	cp.w	r0,-27
800059a0:	80 00       	ld.sh	r0,r0[0x0]
800059a2:	5a 50       	cp.w	r0,-27
800059a4:	80 00       	ld.sh	r0,r0[0x0]
800059a6:	5a 50       	cp.w	r0,-27
800059a8:	80 00       	ld.sh	r0,r0[0x0]
800059aa:	59 ec       	cp.w	r12,30
800059ac:	80 00       	ld.sh	r0,r0[0x0]
800059ae:	59 f0       	cp.w	r0,31
800059b0:	80 00       	ld.sh	r0,r0[0x0]
800059b2:	59 f4       	cp.w	r4,31
800059b4:	80 00       	ld.sh	r0,r0[0x0]
800059b6:	59 ec       	cp.w	r12,30
800059b8:	80 00       	ld.sh	r0,r0[0x0]
800059ba:	59 f0       	cp.w	r0,31
800059bc:	80 00       	ld.sh	r0,r0[0x0]
800059be:	59 f4       	cp.w	r4,31
800059c0:	80 00       	ld.sh	r0,r0[0x0]
800059c2:	59 f8       	cp.w	r8,31
800059c4:	80 00       	ld.sh	r0,r0[0x0]
800059c6:	5a 02       	cp.w	r2,-32
800059c8:	80 00       	ld.sh	r0,r0[0x0]
800059ca:	5a 0e       	cp.w	lr,-32
800059cc:	80 00       	ld.sh	r0,r0[0x0]
800059ce:	5a 16       	cp.w	r6,-31
800059d0:	80 00       	ld.sh	r0,r0[0x0]
800059d2:	5a 1a       	cp.w	r10,-31
800059d4:	80 00       	ld.sh	r0,r0[0x0]
800059d6:	5a 1e       	cp.w	lr,-31
800059d8:	80 00       	ld.sh	r0,r0[0x0]
800059da:	5a 50       	cp.w	r0,-27
800059dc:	80 00       	ld.sh	r0,r0[0x0]
800059de:	5a 50       	cp.w	r0,-27
800059e0:	80 00       	ld.sh	r0,r0[0x0]
800059e2:	5a 50       	cp.w	r0,-27
800059e4:	80 00       	ld.sh	r0,r0[0x0]
800059e6:	5a 50       	cp.w	r0,-27
800059e8:	80 00       	ld.sh	r0,r0[0x0]
800059ea:	5a 22       	cp.w	r2,-30
800059ec:	49 db       	lddpc	r11,80005a60 <d_print_mod+0x120>
800059ee:	c2 98       	rjmp	80005a40 <d_print_mod+0x100>
800059f0:	49 db       	lddpc	r11,80005a64 <d_print_mod+0x124>
800059f2:	c2 78       	rjmp	80005a40 <d_print_mod+0x100>
800059f4:	49 db       	lddpc	r11,80005a68 <d_print_mod+0x128>
800059f6:	c2 58       	rjmp	80005a40 <d_print_mod+0x100>
800059f8:	32 0b       	mov	r11,32
800059fa:	fe b0 ee 99 	rcall	8000372c <d_append_char>
800059fe:	6c 2b       	ld.w	r11,r6[0x8]
80005a00:	c2 48       	rjmp	80005a48 <d_print_mod+0x108>
80005a02:	78 08       	ld.w	r8,r12[0x0]
80005a04:	ed b8 00 02 	bld	r8,0x2
80005a08:	c2 80       	breq	80005a58 <d_print_mod+0x118>
80005a0a:	32 ab       	mov	r11,42
80005a0c:	c0 28       	rjmp	80005a10 <d_print_mod+0xd0>
80005a0e:	32 6b       	mov	r11,38
80005a10:	fe b0 ee 8e 	rcall	8000372c <d_append_char>
80005a14:	d8 22       	popm	r4-r7,pc
80005a16:	49 6b       	lddpc	r11,80005a6c <d_print_mod+0x12c>
80005a18:	c1 48       	rjmp	80005a40 <d_print_mod+0x100>
80005a1a:	49 6b       	lddpc	r11,80005a70 <d_print_mod+0x130>
80005a1c:	c1 28       	rjmp	80005a40 <d_print_mod+0x100>
80005a1e:	49 6b       	lddpc	r11,80005a74 <d_print_mod+0x134>
80005a20:	c1 08       	rjmp	80005a40 <d_print_mod+0x100>
80005a22:	f9 39 01 08 	ld.ub	r9,r12[264]
80005a26:	32 88       	mov	r8,40
80005a28:	f0 09 18 00 	cp.b	r9,r8
80005a2c:	c0 40       	breq	80005a34 <d_print_mod+0xf4>
80005a2e:	32 0b       	mov	r11,32
80005a30:	fe b0 ee 7e 	rcall	8000372c <d_append_char>
80005a34:	6c 1b       	ld.w	r11,r6[0x4]
80005a36:	0e 9c       	mov	r12,r7
80005a38:	fe b0 f9 22 	rcall	80004c7c <d_print_comp>
80005a3c:	0e 9c       	mov	r12,r7
80005a3e:	48 fb       	lddpc	r11,80005a78 <d_print_mod+0x138>
80005a40:	fe b0 ef 00 	rcall	80003840 <d_append_string>
80005a44:	d8 22       	popm	r4-r7,pc
80005a46:	76 1b       	ld.w	r11,r11[0x4]
80005a48:	0e 9c       	mov	r12,r7
80005a4a:	fe b0 f9 19 	rcall	80004c7c <d_print_comp>
80005a4e:	d8 22       	popm	r4-r7,pc
80005a50:	0c 9b       	mov	r11,r6
80005a52:	0e 9c       	mov	r12,r7
80005a54:	fe b0 f9 14 	rcall	80004c7c <d_print_comp>
80005a58:	d8 22       	popm	r4-r7,pc
80005a5a:	00 00       	add	r0,r0
80005a5c:	80 00       	ld.sh	r0,r0[0x0]
80005a5e:	59 58       	cp.w	r8,21
80005a60:	80 00       	ld.sh	r0,r0[0x0]
80005a62:	d6 e0       	acall	0x6e
80005a64:	80 00       	ld.sh	r0,r0[0x0]
80005a66:	d6 ec       	*unknown*
80005a68:	80 00       	ld.sh	r0,r0[0x0]
80005a6a:	d6 f8       	*unknown*
80005a6c:	80 00       	ld.sh	r0,r0[0x0]
80005a6e:	d7 00       	acall	0x70
80005a70:	80 00       	ld.sh	r0,r0[0x0]
80005a72:	d7 04       	*unknown*
80005a74:	80 00       	ld.sh	r0,r0[0x0]
80005a76:	d7 10       	acall	0x71
80005a78:	80 00       	ld.sh	r0,r0[0x0]
80005a7a:	d6 1c       	*unknown*

80005a7c <d_print_function_type>:
80005a7c:	d4 31       	pushm	r0-r7,lr
80005a7e:	30 09       	mov	r9,0
80005a80:	16 94       	mov	r4,r11
80005a82:	14 95       	mov	r5,r10
80005a84:	18 97       	mov	r7,r12
80005a86:	14 98       	mov	r8,r10
80005a88:	30 1b       	mov	r11,1
80005a8a:	c1 c8       	rjmp	80005ac2 <d_print_function_type+0x46>
80005a8c:	70 2a       	ld.w	r10,r8[0x8]
80005a8e:	58 0a       	cp.w	r10,0
80005a90:	c1 b1       	brne	80005ac6 <d_print_function_type+0x4a>
80005a92:	70 19       	ld.w	r9,r8[0x4]
80005a94:	72 0a       	ld.w	r10,r9[0x0]
80005a96:	21 7a       	sub	r10,23
80005a98:	59 0a       	cp.w	r10,16
80005a9a:	e0 8b 00 12 	brhi	80005abe <d_print_function_type+0x42>
80005a9e:	f6 0a 09 4a 	lsl	r10,r11,r10
80005aa2:	14 99       	mov	r9,r10
80005aa4:	e4 1a 00 01 	andh	r10,0x1
80005aa8:	e0 1a 0c 47 	andl	r10,0xc47
80005aac:	e2 19 03 80 	andl	r9,0x380,COH
80005ab0:	58 0a       	cp.w	r10,0
80005ab2:	c0 41       	brne	80005aba <d_print_function_type+0x3e>
80005ab4:	58 09       	cp.w	r9,0
80005ab6:	c5 21       	brne	80005b5a <d_print_function_type+0xde>
80005ab8:	c0 38       	rjmp	80005abe <d_print_function_type+0x42>
80005aba:	30 18       	mov	r8,1
80005abc:	c5 08       	rjmp	80005b5c <d_print_function_type+0xe0>
80005abe:	70 08       	ld.w	r8,r8[0x0]
80005ac0:	30 19       	mov	r9,1
80005ac2:	58 08       	cp.w	r8,0
80005ac4:	ce 41       	brne	80005a8c <d_print_function_type+0x10>
80005ac6:	30 08       	mov	r8,0
80005ac8:	10 96       	mov	r6,r8
80005aca:	ec 19 00 01 	eorl	r9,0x1
80005ace:	68 1a       	ld.w	r10,r4[0x4]
80005ad0:	58 0a       	cp.w	r10,0
80005ad2:	5f 1a       	srne	r10
80005ad4:	14 69       	and	r9,r10
80005ad6:	c0 31       	brne	80005adc <d_print_function_type+0x60>
80005ad8:	58 06       	cp.w	r6,0
80005ada:	c1 c0       	breq	80005b12 <d_print_function_type+0x96>
80005adc:	58 08       	cp.w	r8,0
80005ade:	c0 b1       	brne	80005af4 <d_print_function_type+0x78>
80005ae0:	ef 38 01 08 	ld.ub	r8,r7[264]
80005ae4:	32 89       	mov	r9,40
80005ae6:	f2 08 18 00 	cp.b	r8,r9
80005aea:	c0 f0       	breq	80005b08 <d_print_function_type+0x8c>
80005aec:	32 a9       	mov	r9,42
80005aee:	f2 08 18 00 	cp.b	r8,r9
80005af2:	c0 b0       	breq	80005b08 <d_print_function_type+0x8c>
80005af4:	ef 39 01 08 	ld.ub	r9,r7[264]
80005af8:	32 08       	mov	r8,32
80005afa:	f0 09 18 00 	cp.b	r9,r8
80005afe:	c0 50       	breq	80005b08 <d_print_function_type+0x8c>
80005b00:	32 0b       	mov	r11,32
80005b02:	0e 9c       	mov	r12,r7
80005b04:	fe b0 ee 14 	rcall	8000372c <d_append_char>
80005b08:	32 8b       	mov	r11,40
80005b0a:	0e 9c       	mov	r12,r7
80005b0c:	30 16       	mov	r6,1
80005b0e:	fe b0 ee 0f 	rcall	8000372c <d_append_char>
80005b12:	30 08       	mov	r8,0
80005b14:	ee f3 01 18 	ld.w	r3,r7[280]
80005b18:	10 9a       	mov	r10,r8
80005b1a:	ef 48 01 18 	st.w	r7[280],r8
80005b1e:	0a 9b       	mov	r11,r5
80005b20:	0e 9c       	mov	r12,r7
80005b22:	c2 1c       	rcall	80005b64 <d_print_mod_list>
80005b24:	58 06       	cp.w	r6,0
80005b26:	c0 50       	breq	80005b30 <d_print_function_type+0xb4>
80005b28:	32 9b       	mov	r11,41
80005b2a:	0e 9c       	mov	r12,r7
80005b2c:	fe b0 ee 00 	rcall	8000372c <d_append_char>
80005b30:	32 8b       	mov	r11,40
80005b32:	0e 9c       	mov	r12,r7
80005b34:	fe b0 ed fc 	rcall	8000372c <d_append_char>
80005b38:	68 2b       	ld.w	r11,r4[0x8]
80005b3a:	58 0b       	cp.w	r11,0
80005b3c:	c0 40       	breq	80005b44 <d_print_function_type+0xc8>
80005b3e:	0e 9c       	mov	r12,r7
80005b40:	fe b0 f8 9e 	rcall	80004c7c <d_print_comp>
80005b44:	32 9b       	mov	r11,41
80005b46:	0e 9c       	mov	r12,r7
80005b48:	fe b0 ed f2 	rcall	8000372c <d_append_char>
80005b4c:	0a 9b       	mov	r11,r5
80005b4e:	30 1a       	mov	r10,1
80005b50:	0e 9c       	mov	r12,r7
80005b52:	c0 9c       	rcall	80005b64 <d_print_mod_list>
80005b54:	ef 43 01 18 	st.w	r7[280],r3
80005b58:	d8 32       	popm	r0-r7,pc
80005b5a:	14 98       	mov	r8,r10
80005b5c:	30 19       	mov	r9,1
80005b5e:	12 96       	mov	r6,r9
80005b60:	cb 5b       	rjmp	80005aca <d_print_function_type+0x4e>
	...

80005b64 <d_print_mod_list>:
80005b64:	d4 31       	pushm	r0-r7,lr
80005b66:	30 14       	mov	r4,1
80005b68:	18 97       	mov	r7,r12
80005b6a:	16 96       	mov	r6,r11
80005b6c:	14 93       	mov	r3,r10
80005b6e:	58 06       	cp.w	r6,0
80005b70:	c5 70       	breq	80005c1e <d_print_mod_list+0xba>
80005b72:	ee f8 01 1c 	ld.w	r8,r7[284]
80005b76:	58 08       	cp.w	r8,0
80005b78:	c5 31       	brne	80005c1e <d_print_mod_list+0xba>
80005b7a:	6c 28       	ld.w	r8,r6[0x8]
80005b7c:	58 08       	cp.w	r8,0
80005b7e:	c4 e1       	brne	80005c1a <d_print_mod_list+0xb6>
80005b80:	58 03       	cp.w	r3,0
80005b82:	c0 71       	brne	80005b90 <d_print_mod_list+0x2c>
80005b84:	6c 18       	ld.w	r8,r6[0x4]
80005b86:	70 08       	ld.w	r8,r8[0x0]
80005b88:	21 a8       	sub	r8,26
80005b8a:	58 28       	cp.w	r8,2
80005b8c:	e0 88 00 47 	brls	80005c1a <d_print_mod_list+0xb6>
80005b90:	6c 38       	ld.w	r8,r6[0xc]
80005b92:	ee f5 01 14 	ld.w	r5,r7[276]
80005b96:	8d 24       	st.w	r6[0x8],r4
80005b98:	ef 48 01 14 	st.w	r7[276],r8
80005b9c:	6c 18       	ld.w	r8,r6[0x4]
80005b9e:	10 9b       	mov	r11,r8
80005ba0:	70 09       	ld.w	r9,r8[0x0]
80005ba2:	e0 49 00 25 	cp.w	r9,37
80005ba6:	c0 51       	brne	80005bb0 <d_print_mod_list+0x4c>
80005ba8:	6c 0a       	ld.w	r10,r6[0x0]
80005baa:	0e 9c       	mov	r12,r7
80005bac:	c6 8f       	rcall	80005a7c <d_print_function_type>
80005bae:	c2 f8       	rjmp	80005c0c <d_print_mod_list+0xa8>
80005bb0:	e0 49 00 26 	cp.w	r9,38
80005bb4:	c0 61       	brne	80005bc0 <d_print_mod_list+0x5c>
80005bb6:	6c 0a       	ld.w	r10,r6[0x0]
80005bb8:	10 9b       	mov	r11,r8
80005bba:	0e 9c       	mov	r12,r7
80005bbc:	c3 4c       	rcall	80005c24 <d_print_array_type>
80005bbe:	c2 78       	rjmp	80005c0c <d_print_mod_list+0xa8>
80005bc0:	58 29       	cp.w	r9,2
80005bc2:	c2 81       	brne	80005c12 <d_print_mod_list+0xae>
80005bc4:	30 09       	mov	r9,0
80005bc6:	ee f4 01 18 	ld.w	r4,r7[280]
80005bca:	0e 9c       	mov	r12,r7
80005bcc:	ef 49 01 18 	st.w	r7[280],r9
80005bd0:	70 1b       	ld.w	r11,r8[0x4]
80005bd2:	fe b0 f8 55 	rcall	80004c7c <d_print_comp>
80005bd6:	ef 44 01 18 	st.w	r7[280],r4
80005bda:	6e 08       	ld.w	r8,r7[0x0]
80005bdc:	ed b8 00 02 	bld	r8,0x2
80005be0:	c0 60       	breq	80005bec <d_print_mod_list+0x88>
80005be2:	49 0b       	lddpc	r11,80005c20 <d_print_mod_list+0xbc>
80005be4:	0e 9c       	mov	r12,r7
80005be6:	fe b0 ee 2d 	rcall	80003840 <d_append_string>
80005bea:	c0 58       	rjmp	80005bf4 <d_print_mod_list+0x90>
80005bec:	32 eb       	mov	r11,46
80005bee:	0e 9c       	mov	r12,r7
80005bf0:	fe b0 ed 9e 	rcall	8000372c <d_append_char>
80005bf4:	6c 18       	ld.w	r8,r6[0x4]
80005bf6:	70 2b       	ld.w	r11,r8[0x8]
80005bf8:	c0 28       	rjmp	80005bfc <d_print_mod_list+0x98>
80005bfa:	76 1b       	ld.w	r11,r11[0x4]
80005bfc:	76 08       	ld.w	r8,r11[0x0]
80005bfe:	21 a8       	sub	r8,26
80005c00:	58 28       	cp.w	r8,2
80005c02:	fe 98 ff fc 	brls	80005bfa <d_print_mod_list+0x96>
80005c06:	0e 9c       	mov	r12,r7
80005c08:	fe b0 f8 3a 	rcall	80004c7c <d_print_comp>
80005c0c:	ef 45 01 14 	st.w	r7[276],r5
80005c10:	d8 32       	popm	r0-r7,pc
80005c12:	0e 9c       	mov	r12,r7
80005c14:	c9 6e       	rcall	80005940 <d_print_mod>
80005c16:	ef 45 01 14 	st.w	r7[276],r5
80005c1a:	6c 06       	ld.w	r6,r6[0x0]
80005c1c:	ca 9b       	rjmp	80005b6e <d_print_mod_list+0xa>
80005c1e:	d8 32       	popm	r0-r7,pc
80005c20:	80 00       	ld.sh	r0,r0[0x0]
80005c22:	d5 10       	acall	0x51

80005c24 <d_print_array_type>:
80005c24:	d4 31       	pushm	r0-r7,lr
80005c26:	18 97       	mov	r7,r12
80005c28:	16 94       	mov	r4,r11
80005c2a:	14 93       	mov	r3,r10
80005c2c:	58 0a       	cp.w	r10,0
80005c2e:	c1 c0       	breq	80005c66 <d_print_array_type+0x42>
80005c30:	14 98       	mov	r8,r10
80005c32:	70 26       	ld.w	r6,r8[0x8]
80005c34:	58 06       	cp.w	r6,0
80005c36:	c0 71       	brne	80005c44 <d_print_array_type+0x20>
80005c38:	70 18       	ld.w	r8,r8[0x4]
80005c3a:	70 08       	ld.w	r8,r8[0x0]
80005c3c:	e0 48 00 26 	cp.w	r8,38
80005c40:	c2 61       	brne	80005c8c <d_print_array_type+0x68>
80005c42:	c0 58       	rjmp	80005c4c <d_print_array_type+0x28>
80005c44:	70 08       	ld.w	r8,r8[0x0]
80005c46:	58 08       	cp.w	r8,0
80005c48:	cf 51       	brne	80005c32 <d_print_array_type+0xe>
80005c4a:	30 16       	mov	r6,1
80005c4c:	30 05       	mov	r5,0
80005c4e:	06 9b       	mov	r11,r3
80005c50:	30 0a       	mov	r10,0
80005c52:	0e 9c       	mov	r12,r7
80005c54:	c8 8f       	rcall	80005b64 <d_print_mod_list>
80005c56:	58 05       	cp.w	r5,0
80005c58:	c0 50       	breq	80005c62 <d_print_array_type+0x3e>
80005c5a:	32 9b       	mov	r11,41
80005c5c:	0e 9c       	mov	r12,r7
80005c5e:	fe b0 ed 67 	rcall	8000372c <d_append_char>
80005c62:	58 06       	cp.w	r6,0
80005c64:	c0 50       	breq	80005c6e <d_print_array_type+0x4a>
80005c66:	32 0b       	mov	r11,32
80005c68:	0e 9c       	mov	r12,r7
80005c6a:	fe b0 ed 61 	rcall	8000372c <d_append_char>
80005c6e:	35 bb       	mov	r11,91
80005c70:	0e 9c       	mov	r12,r7
80005c72:	fe b0 ed 5d 	rcall	8000372c <d_append_char>
80005c76:	68 1b       	ld.w	r11,r4[0x4]
80005c78:	58 0b       	cp.w	r11,0
80005c7a:	c0 40       	breq	80005c82 <d_print_array_type+0x5e>
80005c7c:	0e 9c       	mov	r12,r7
80005c7e:	fe b0 f7 ff 	rcall	80004c7c <d_print_comp>
80005c82:	0e 9c       	mov	r12,r7
80005c84:	35 db       	mov	r11,93
80005c86:	fe b0 ed 53 	rcall	8000372c <d_append_char>
80005c8a:	d8 32       	popm	r0-r7,pc
80005c8c:	48 4b       	lddpc	r11,80005c9c <d_print_array_type+0x78>
80005c8e:	0e 9c       	mov	r12,r7
80005c90:	30 15       	mov	r5,1
80005c92:	fe b0 ed d7 	rcall	80003840 <d_append_string>
80005c96:	0a 96       	mov	r6,r5
80005c98:	cd bb       	rjmp	80005c4e <d_print_array_type+0x2a>
80005c9a:	00 00       	add	r0,r0
80005c9c:	80 00       	ld.sh	r0,r0[0x0]
80005c9e:	d6 8c       	*unknown*

80005ca0 <d_print_cast>:
80005ca0:	d4 21       	pushm	r4-r7,lr
80005ca2:	20 2d       	sub	sp,8
80005ca4:	16 96       	mov	r6,r11
80005ca6:	18 97       	mov	r7,r12
80005ca8:	76 1b       	ld.w	r11,r11[0x4]
80005caa:	76 08       	ld.w	r8,r11[0x0]
80005cac:	58 48       	cp.w	r8,4
80005cae:	c0 40       	breq	80005cb6 <d_print_cast+0x16>
80005cb0:	fe b0 f7 e6 	rcall	80004c7c <d_print_comp>
80005cb4:	c3 58       	rjmp	80005d1e <d_print_cast+0x7e>
80005cb6:	f8 f8 01 14 	ld.w	r8,r12[276]
80005cba:	50 08       	stdsp	sp[0x0],r8
80005cbc:	30 08       	mov	r8,0
80005cbe:	50 1b       	stdsp	sp[0x4],r11
80005cc0:	f8 f5 01 18 	ld.w	r5,r12[280]
80005cc4:	ef 4d 01 14 	st.w	r7[276],sp
80005cc8:	f9 48 01 18 	st.w	r12[280],r8
80005ccc:	76 1b       	ld.w	r11,r11[0x4]
80005cce:	fe b0 f7 d7 	rcall	80004c7c <d_print_comp>
80005cd2:	40 08       	lddsp	r8,sp[0x0]
80005cd4:	ef 48 01 14 	st.w	r7[276],r8
80005cd8:	ef 39 01 08 	ld.ub	r9,r7[264]
80005cdc:	33 c8       	mov	r8,60
80005cde:	f0 09 18 00 	cp.b	r9,r8
80005ce2:	c0 51       	brne	80005cec <d_print_cast+0x4c>
80005ce4:	32 0b       	mov	r11,32
80005ce6:	0e 9c       	mov	r12,r7
80005ce8:	fe b0 ed 22 	rcall	8000372c <d_append_char>
80005cec:	33 cb       	mov	r11,60
80005cee:	0e 9c       	mov	r12,r7
80005cf0:	fe b0 ed 1e 	rcall	8000372c <d_append_char>
80005cf4:	6c 18       	ld.w	r8,r6[0x4]
80005cf6:	0e 9c       	mov	r12,r7
80005cf8:	70 2b       	ld.w	r11,r8[0x8]
80005cfa:	fe b0 f7 c1 	rcall	80004c7c <d_print_comp>
80005cfe:	ef 39 01 08 	ld.ub	r9,r7[264]
80005d02:	33 e8       	mov	r8,62
80005d04:	f0 09 18 00 	cp.b	r9,r8
80005d08:	c0 51       	brne	80005d12 <d_print_cast+0x72>
80005d0a:	32 0b       	mov	r11,32
80005d0c:	0e 9c       	mov	r12,r7
80005d0e:	fe b0 ed 0f 	rcall	8000372c <d_append_char>
80005d12:	33 eb       	mov	r11,62
80005d14:	0e 9c       	mov	r12,r7
80005d16:	fe b0 ed 0b 	rcall	8000372c <d_append_char>
80005d1a:	ef 45 01 18 	st.w	r7[280],r5
80005d1e:	2f ed       	sub	sp,-8
80005d20:	d8 22       	popm	r4-r7,pc
	...

80005d24 <d_print_expr_op>:
80005d24:	d4 01       	pushm	lr
80005d26:	76 09       	ld.w	r9,r11[0x0]
80005d28:	e0 49 00 2b 	cp.w	r9,43
80005d2c:	c0 71       	brne	80005d3a <d_print_expr_op+0x16>
80005d2e:	76 18       	ld.w	r8,r11[0x4]
80005d30:	70 1b       	ld.w	r11,r8[0x4]
80005d32:	70 2a       	ld.w	r10,r8[0x8]
80005d34:	fe b0 ed 20 	rcall	80003774 <d_append_buffer>
80005d38:	d8 02       	popm	pc
80005d3a:	fe b0 f7 a1 	rcall	80004c7c <d_print_comp>
80005d3e:	d8 02       	popm	pc

80005d40 <d_print_subexpr>:
80005d40:	d4 21       	pushm	r4-r7,lr
80005d42:	76 08       	ld.w	r8,r11[0x0]
80005d44:	16 95       	mov	r5,r11
80005d46:	58 08       	cp.w	r8,0
80005d48:	5f 09       	sreq	r9
80005d4a:	58 68       	cp.w	r8,6
80005d4c:	5f 08       	sreq	r8
80005d4e:	18 97       	mov	r7,r12
80005d50:	12 48       	or	r8,r9
80005d52:	c0 30       	breq	80005d58 <d_print_subexpr+0x18>
80005d54:	30 16       	mov	r6,1
80005d56:	c0 58       	rjmp	80005d60 <d_print_subexpr+0x20>
80005d58:	32 8b       	mov	r11,40
80005d5a:	30 06       	mov	r6,0
80005d5c:	fe b0 ec e8 	rcall	8000372c <d_append_char>
80005d60:	0a 9b       	mov	r11,r5
80005d62:	0e 9c       	mov	r12,r7
80005d64:	fe b0 f7 8c 	rcall	80004c7c <d_print_comp>
80005d68:	58 06       	cp.w	r6,0
80005d6a:	c0 51       	brne	80005d74 <d_print_subexpr+0x34>
80005d6c:	0e 9c       	mov	r12,r7
80005d6e:	32 9b       	mov	r11,41
80005d70:	fe b0 ec de 	rcall	8000372c <d_append_char>
80005d74:	d8 22       	popm	r4-r7,pc
	...

80005d78 <__cxa_demangle>:
80005d78:	d4 31       	pushm	r0-r7,lr
80005d7a:	20 4d       	sub	sp,16
80005d7c:	16 95       	mov	r5,r11
80005d7e:	14 96       	mov	r6,r10
80005d80:	12 97       	mov	r7,r9
80005d82:	18 94       	mov	r4,r12
80005d84:	58 0c       	cp.w	r12,0
80005d86:	c0 51       	brne	80005d90 <__cxa_demangle+0x18>
80005d88:	58 09       	cp.w	r9,0
80005d8a:	c4 c0       	breq	80005e22 <__cxa_demangle+0xaa>
80005d8c:	3f d8       	mov	r8,-3
80005d8e:	c4 88       	rjmp	80005e1e <__cxa_demangle+0xa6>
80005d90:	58 0a       	cp.w	r10,0
80005d92:	5f 09       	sreq	r9
80005d94:	58 0b       	cp.w	r11,0
80005d96:	5f 18       	srne	r8
80005d98:	f3 e8 00 08 	and	r8,r9,r8
80005d9c:	c0 50       	breq	80005da6 <__cxa_demangle+0x2e>
80005d9e:	58 07       	cp.w	r7,0
80005da0:	c4 10       	breq	80005e22 <__cxa_demangle+0xaa>
80005da2:	3f d8       	mov	r8,-3
80005da4:	c2 18       	rjmp	80005de6 <__cxa_demangle+0x6e>
80005da6:	30 08       	mov	r8,0
80005da8:	1a 99       	mov	r9,sp
80005daa:	50 38       	stdsp	sp[0xc],r8
80005dac:	50 08       	stdsp	sp[0x0],r8
80005dae:	50 18       	stdsp	sp[0x4],r8
80005db0:	50 28       	stdsp	sp[0x8],r8
80005db2:	49 fa       	lddpc	r10,80005e2c <__cxa_demangle+0xb4>
80005db4:	31 1b       	mov	r11,17
80005db6:	fe b0 fc bb 	rcall	8000572c <d_demangle_callback>
80005dba:	18 93       	mov	r3,r12
80005dbc:	40 0c       	lddsp	r12,sp[0x0]
80005dbe:	58 03       	cp.w	r3,0
80005dc0:	c0 51       	brne	80005dca <__cxa_demangle+0x52>
80005dc2:	f0 1f 00 1c 	mcall	80005e30 <__cxa_demangle+0xb8>
80005dc6:	06 98       	mov	r8,r3
80005dc8:	c0 88       	rjmp	80005dd8 <__cxa_demangle+0x60>
80005dca:	40 38       	lddsp	r8,sp[0xc]
80005dcc:	18 94       	mov	r4,r12
80005dce:	58 08       	cp.w	r8,0
80005dd0:	5f 13       	srne	r3
80005dd2:	06 98       	mov	r8,r3
80005dd4:	58 0c       	cp.w	r12,0
80005dd6:	c0 a1       	brne	80005dea <__cxa_demangle+0x72>
80005dd8:	58 07       	cp.w	r7,0
80005dda:	c2 40       	breq	80005e22 <__cxa_demangle+0xaa>
80005ddc:	58 18       	cp.w	r8,1
80005dde:	c0 31       	brne	80005de4 <__cxa_demangle+0x6c>
80005de0:	3f f8       	mov	r8,-1
80005de2:	c0 28       	rjmp	80005de6 <__cxa_demangle+0x6e>
80005de4:	3f e8       	mov	r8,-2
80005de6:	8f 08       	st.w	r7[0x0],r8
80005de8:	c1 d8       	rjmp	80005e22 <__cxa_demangle+0xaa>
80005dea:	58 05       	cp.w	r5,0
80005dec:	c0 41       	brne	80005df4 <__cxa_demangle+0x7c>
80005dee:	58 06       	cp.w	r6,0
80005df0:	c1 31       	brne	80005e16 <__cxa_demangle+0x9e>
80005df2:	c1 38       	rjmp	80005e18 <__cxa_demangle+0xa0>
80005df4:	f0 1f 00 10 	mcall	80005e34 <__cxa_demangle+0xbc>
80005df8:	6c 08       	ld.w	r8,r6[0x0]
80005dfa:	10 3c       	cp.w	r12,r8
80005dfc:	c0 a2       	brcc	80005e10 <__cxa_demangle+0x98>
80005dfe:	08 9b       	mov	r11,r4
80005e00:	0a 9c       	mov	r12,r5
80005e02:	f0 1f 00 0e 	mcall	80005e38 <__cxa_demangle+0xc0>
80005e06:	08 9c       	mov	r12,r4
80005e08:	0a 94       	mov	r4,r5
80005e0a:	f0 1f 00 0a 	mcall	80005e30 <__cxa_demangle+0xb8>
80005e0e:	c0 58       	rjmp	80005e18 <__cxa_demangle+0xa0>
80005e10:	0a 9c       	mov	r12,r5
80005e12:	f0 1f 00 08 	mcall	80005e30 <__cxa_demangle+0xb8>
80005e16:	8d 03       	st.w	r6[0x0],r3
80005e18:	58 07       	cp.w	r7,0
80005e1a:	c0 50       	breq	80005e24 <__cxa_demangle+0xac>
80005e1c:	30 08       	mov	r8,0
80005e1e:	8f 08       	st.w	r7[0x0],r8
80005e20:	c0 28       	rjmp	80005e24 <__cxa_demangle+0xac>
80005e22:	30 04       	mov	r4,0
80005e24:	08 9c       	mov	r12,r4
80005e26:	2f cd       	sub	sp,-16
80005e28:	d8 32       	popm	r0-r7,pc
80005e2a:	00 00       	add	r0,r0
80005e2c:	80 00       	ld.sh	r0,r0[0x0]
80005e2e:	5e 3c       	retlo	r12
80005e30:	80 00       	ld.sh	r0,r0[0x0]
80005e32:	79 d0       	ld.w	r0,r12[0x74]
80005e34:	80 00       	ld.sh	r0,r0[0x0]
80005e36:	85 6e       	st.w	r2[0x18],lr
80005e38:	80 00       	ld.sh	r0,r0[0x0]
80005e3a:	85 5c       	st.w	r2[0x14],r12

80005e3c <d_growable_string_callback_adapter>:
80005e3c:	d4 31       	pushm	r0-r7,lr
80005e3e:	74 18       	ld.w	r8,r10[0x4]
80005e40:	14 97       	mov	r7,r10
80005e42:	2f f8       	sub	r8,-1
80005e44:	16 96       	mov	r6,r11
80005e46:	18 94       	mov	r4,r12
80005e48:	16 08       	add	r8,r11
80005e4a:	74 25       	ld.w	r5,r10[0x8]
80005e4c:	0a 38       	cp.w	r8,r5
80005e4e:	e0 88 00 1d 	brls	80005e88 <d_growable_string_callback_adapter+0x4c>
80005e52:	74 39       	ld.w	r9,r10[0xc]
80005e54:	58 09       	cp.w	r9,0
80005e56:	c1 91       	brne	80005e88 <d_growable_string_callback_adapter+0x4c>
80005e58:	58 05       	cp.w	r5,0
80005e5a:	f9 b5 00 02 	moveq	r5,2
80005e5e:	c0 28       	rjmp	80005e62 <d_growable_string_callback_adapter+0x26>
80005e60:	a1 75       	lsl	r5,0x1
80005e62:	10 35       	cp.w	r5,r8
80005e64:	cf e3       	brcs	80005e60 <d_growable_string_callback_adapter+0x24>
80005e66:	0a 9b       	mov	r11,r5
80005e68:	6e 0c       	ld.w	r12,r7[0x0]
80005e6a:	f0 1f 00 12 	mcall	80005eb0 <d_growable_string_callback_adapter+0x74>
80005e6e:	18 93       	mov	r3,r12
80005e70:	c0 a1       	brne	80005e84 <d_growable_string_callback_adapter+0x48>
80005e72:	6e 0c       	ld.w	r12,r7[0x0]
80005e74:	f0 1f 00 10 	mcall	80005eb4 <d_growable_string_callback_adapter+0x78>
80005e78:	30 18       	mov	r8,1
80005e7a:	8f 23       	st.w	r7[0x8],r3
80005e7c:	8f 03       	st.w	r7[0x0],r3
80005e7e:	8f 13       	st.w	r7[0x4],r3
80005e80:	8f 38       	st.w	r7[0xc],r8
80005e82:	c0 38       	rjmp	80005e88 <d_growable_string_callback_adapter+0x4c>
80005e84:	8f 0c       	st.w	r7[0x0],r12
80005e86:	8f 25       	st.w	r7[0x8],r5
80005e88:	6e 35       	ld.w	r5,r7[0xc]
80005e8a:	58 05       	cp.w	r5,0
80005e8c:	c1 11       	brne	80005eae <d_growable_string_callback_adapter+0x72>
80005e8e:	6e 18       	ld.w	r8,r7[0x4]
80005e90:	6e 0c       	ld.w	r12,r7[0x0]
80005e92:	0c 9a       	mov	r10,r6
80005e94:	10 0c       	add	r12,r8
80005e96:	08 9b       	mov	r11,r4
80005e98:	f0 1f 00 08 	mcall	80005eb8 <d_growable_string_callback_adapter+0x7c>
80005e9c:	6e 18       	ld.w	r8,r7[0x4]
80005e9e:	6e 09       	ld.w	r9,r7[0x0]
80005ea0:	0c 09       	add	r9,r6
80005ea2:	f2 08 0b 05 	st.b	r9[r8],r5
80005ea6:	6e 18       	ld.w	r8,r7[0x4]
80005ea8:	f0 06 00 06 	add	r6,r8,r6
80005eac:	8f 16       	st.w	r7[0x4],r6
80005eae:	d8 32       	popm	r0-r7,pc
80005eb0:	80 00       	ld.sh	r0,r0[0x0]
80005eb2:	80 ac       	ld.uh	r12,r0[0x4]
80005eb4:	80 00       	ld.sh	r0,r0[0x0]
80005eb6:	79 d0       	ld.w	r0,r12[0x74]
80005eb8:	80 00       	ld.sh	r0,r0[0x0]
80005eba:	7e 88       	ld.w	r8,pc[0x20]

80005ebc <standard_subs>:
80005ebc:	74 00 00 00 80 00 d5 0c 00 00 00 03 80 00 d5 0c     t...............
80005ecc:	00 00 00 03 00 00 00 00 00 00 00 00 61 00 00 00     ............a...
80005edc:	80 00 d8 64 00 00 00 0e 80 00 d8 64 00 00 00 0e     ...d.......d....
80005eec:	80 00 d8 74 00 00 00 09 62 00 00 00 80 00 d8 80     ...t....b.......
80005efc:	00 00 00 11 80 00 d8 80 00 00 00 11 80 00 d8 94     ................
80005f0c:	00 00 00 0c 73 00 00 00 80 00 d8 a4 00 00 00 0b     ....s...........
80005f1c:	80 00 d8 b0 00 00 00 46 80 00 d8 94 00 00 00 0c     .......F........
80005f2c:	69 00 00 00 80 00 d8 f8 00 00 00 0c 80 00 d9 08     i...............
80005f3c:	00 00 00 31 80 00 d9 3c 00 00 00 0d 6f 00 00 00     ...1...<....o...
80005f4c:	80 00 d9 4c 00 00 00 0c 80 00 d9 5c 00 00 00 31     ...L.......\...1
80005f5c:	80 00 d9 90 00 00 00 0d 64 00 00 00 80 00 d9 a0     ........d.......
80005f6c:	00 00 00 0d 80 00 d9 b0 00 00 00 32 80 00 d9 e4     ...........2....
80005f7c:	00 00 00 0e                                         ....

80005f80 <cplus_demangle_builtin_types>:
80005f80:	80 00 d7 1c 00 00 00 0b 80 00 d7 1c 00 00 00 0b     ................
80005f90:	00 00 00 00 80 00 d7 28 00 00 00 04 80 00 d7 30     .......(.......0
80005fa0:	00 00 00 07 00 00 00 07 80 00 d7 38 00 00 00 04     ...........8....
80005fb0:	80 00 d7 40 00 00 00 04 00 00 00 00 80 00 d7 48     ...@...........H
80005fc0:	00 00 00 06 80 00 d7 48 00 00 00 06 00 00 00 08     .......H........
80005fd0:	80 00 d7 50 00 00 00 0b 80 00 d7 50 00 00 00 0b     ...P.......P....
80005fe0:	00 00 00 08 80 00 d7 5c 00 00 00 05 80 00 d7 5c     .......\.......\
80005ff0:	00 00 00 05 00 00 00 08 80 00 d7 64 00 00 00 0a     ...........d....
80006000:	80 00 d7 64 00 00 00 0a 00 00 00 08 80 00 d7 70     ...d...........p
80006010:	00 00 00 0d 80 00 d7 70 00 00 00 0d 00 00 00 00     .......p........
80006020:	80 00 d7 80 00 00 00 03 80 00 d7 80 00 00 00 03     ................
80006030:	00 00 00 01 80 00 d7 84 00 00 00 0c 80 00 d7 94     ................
80006040:	00 00 00 08 00 00 00 02 00 00 00 00 00 00 00 00     ................
	...
8000605c:	80 00 d7 a0 00 00 00 04 80 00 d7 a0 00 00 00 04     ................
8000606c:	00 00 00 03 80 00 d7 a8 00 00 00 0d 80 00 d7 a8     ................
8000607c:	00 00 00 0d 00 00 00 04 80 00 d7 b8 00 00 00 08     ................
8000608c:	80 00 d7 b8 00 00 00 08 00 00 00 00 80 00 d7 c4     ................
8000609c:	00 00 00 11 80 00 d7 c4 00 00 00 11 00 00 00 00     ................
	...
800060e8:	80 00 d7 d8 00 00 00 05 80 00 d7 d8 00 00 00 05     ................
800060f8:	00 00 00 00 80 00 d7 e0 00 00 00 0e 80 00 d7 e0     ................
80006108:	00 00 00 0e 00 00 00 00 00 00 00 00 00 00 00 00     ................
	...
80006124:	80 00 d7 f0 00 00 00 04 80 00 d7 f0 00 00 00 04     ................
80006134:	00 00 00 09 80 00 d7 f8 00 00 00 07 80 00 d7 38     ...............8
80006144:	00 00 00 04 00 00 00 00 80 00 d8 00 00 00 00 09     ................
80006154:	80 00 d7 a0 00 00 00 04 00 00 00 05 80 00 d8 0c     ................
80006164:	00 00 00 12 80 00 d8 0c 00 00 00 12 00 00 00 06     ................
80006174:	80 00 d6 90 00 00 00 03 80 00 d6 90 00 00 00 03     ................
80006184:	00 00 00 00 80 00 d8 20 00 00 00 09 80 00 d8 20     ....... ....... 
80006194:	00 00 00 09 00 00 00 00 80 00 d8 2c 00 00 00 09     ...........,....
800061a4:	80 00 d8 2c 00 00 00 09 00 00 00 00 80 00 d8 38     ...,...........8
800061b4:	00 00 00 0a 80 00 d8 38 00 00 00 0a 00 00 00 00     .......8........
800061c4:	80 00 d8 44 00 00 00 04 80 00 d8 44 00 00 00 04     ...D.......D....
800061d4:	00 00 00 08 80 00 d8 4c 00 00 00 08 80 00 d8 4c     .......L.......L
800061e4:	00 00 00 08 00 00 00 00 80 00 d8 58 00 00 00 08     ...........X....
800061f4:	80 00 d8 58 00 00 00 08 00 00 00 00                 ...X........

80006200 <cplus_demangle_operators>:
80006200:	80 00 d9 f4 80 00 d9 f8 00 00 00 02 00 00 00 02     ................
80006210:	80 00 d9 fc 80 00 da 00 00 00 00 01 00 00 00 02     ................
80006220:	80 00 da 04 80 00 d7 00 00 00 00 02 00 00 00 02     ................
80006230:	80 00 da 08 80 00 da 0c 00 00 00 01 00 00 00 01     ................
80006240:	80 00 da 10 80 00 da 0c 00 00 00 01 00 00 00 02     ................
80006250:	80 00 d4 f8 80 00 da 14 00 00 00 02 00 00 00 02     ................
80006260:	80 00 da 18 80 00 da 1c 00 00 00 01 00 00 00 02     ................
80006270:	80 00 da 20 80 00 da 24 00 00 00 01 00 00 00 01     ... ...$........
80006280:	80 00 da 28 80 00 da 2c 00 00 00 02 00 00 00 02     ...(...,........
80006290:	80 00 da 30 80 00 da 34 00 00 00 08 00 00 00 01     ...0...4........
800062a0:	80 00 da 40 80 00 da 44 00 00 00 01 00 00 00 01     ...@...D........
800062b0:	80 00 da 48 80 00 da 4c 00 00 00 06 00 00 00 01     ...H...L........
800062c0:	80 00 da 54 80 00 da 58 00 00 00 01 00 00 00 02     ...T...X........
800062d0:	80 00 da 5c 80 00 da 60 00 00 00 01 00 00 00 02     ...\...`........
800062e0:	80 00 da 64 80 00 da 68 00 00 00 02 00 00 00 02     ...d...h........
800062f0:	80 00 da 6c 80 00 da 70 00 00 00 01 00 00 00 02     ...l...p........
80006300:	80 00 da 74 80 00 da 78 00 00 00 02 00 00 00 02     ...t...x........
80006310:	80 00 da 7c 80 00 da 80 00 00 00 02 00 00 00 02     ...|............
80006320:	80 00 da 84 80 00 d9 38 00 00 00 01 00 00 00 02     .......8........
80006330:	80 00 da 88 80 00 d5 1c 00 00 00 02 00 00 00 02     ................
80006340:	80 00 da 8c 80 00 da 90 00 00 00 03 00 00 00 02     ................
80006350:	80 00 d7 4c 80 00 da 94 00 00 00 02 00 00 00 02     ...L............
80006360:	80 00 da 98 80 00 da 9c 00 00 00 02 00 00 00 02     ................
80006370:	80 00 da a0 80 00 da a4 00 00 00 01 00 00 00 02     ................
80006380:	80 00 da a8 80 00 da ac 00 00 00 02 00 00 00 02     ................
80006390:	80 00 da b0 80 00 da b4 00 00 00 02 00 00 00 02     ................
800063a0:	80 00 da b8 80 00 da bc 00 00 00 01 00 00 00 02     ................
800063b0:	80 00 da c0 80 00 da 44 00 00 00 01 00 00 00 02     .......D........
800063c0:	80 00 da c4 80 00 da c8 00 00 00 02 00 00 00 01     ................
800063d0:	80 00 da cc 80 00 da d0 00 00 00 05 00 00 00 01     ................
800063e0:	80 00 da d8 80 00 da dc 00 00 00 02 00 00 00 02     ................
800063f0:	80 00 d8 1c 80 00 da bc 00 00 00 01 00 00 00 01     ................
80006400:	80 00 da e0 80 00 da e4 00 00 00 01 00 00 00 01     ................
80006410:	80 00 da e8 80 00 da ec 00 00 00 03 00 00 00 01     ................
80006420:	80 00 da f0 80 00 da f4 00 00 00 02 00 00 00 02     ................
80006430:	80 00 da f8 80 00 da fc 00 00 00 02 00 00 00 02     ................
80006440:	80 00 d8 70 80 00 db 00 00 00 00 01 00 00 00 02     ...p............
80006450:	80 00 db 04 80 00 db 08 00 00 00 02 00 00 00 02     ................
80006460:	80 00 db 0c 80 00 db 10 00 00 00 01 00 00 00 02     ................
80006470:	80 00 db 14 80 00 db 18 00 00 00 03 00 00 00 02     ................
80006480:	80 00 db 1c 80 00 db 20 00 00 00 02 00 00 00 01     ....... ........
80006490:	80 00 db 24 80 00 db 10 00 00 00 01 00 00 00 01     ...$............
800064a0:	80 00 db 28 80 00 db 2c 00 00 00 02 00 00 00 02     ...(...,........
800064b0:	80 00 db 30 80 00 db 34 00 00 00 01 00 00 00 03     ...0...4........
800064c0:	80 00 db 38 80 00 db 3c 00 00 00 02 00 00 00 02     ...8...<........
800064d0:	80 00 db 40 80 00 db 44 00 00 00 03 00 00 00 02     ...@...D........
800064e0:	80 00 db 48 80 00 db 4c 00 00 00 01 00 00 00 02     ...H...L........
800064f0:	80 00 db 50 80 00 db 54 00 00 00 02 00 00 00 02     ...P...T........
80006500:	80 00 d6 fc 80 00 db 58 00 00 00 07 00 00 00 01     .......X........
80006510:	80 00 db 60 80 00 db 58 00 00 00 07 00 00 00 01     ...`...X........
80006520:	80 00 db 64 80 00 db 68 00 00 00 08 00 00 00 01     ...d...h........
80006530:	80 00 db 74 80 00 db 68 00 00 00 08 00 00 00 01     ...t...h........
	...

80006550 <__avr32_f64_mul>:
80006550:	f5 eb 10 1c 	or	r12,r10,r11<<0x1
80006554:	e0 80 00 dc 	breq	8000670c <__avr32_f64_mul_op1_zero>
80006558:	d4 21       	pushm	r4-r7,lr
8000655a:	f7 e9 20 0e 	eor	lr,r11,r9
8000655e:	ef db c2 8b 	bfextu	r7,r11,0x14,0xb
80006562:	30 15       	mov	r5,1
80006564:	c4 30       	breq	800065ea <__avr32_f64_mul_op1_subnormal>
80006566:	ab 6b       	lsl	r11,0xa
80006568:	f7 ea 13 6b 	or	r11,r11,r10>>0x16
8000656c:	ab 6a       	lsl	r10,0xa
8000656e:	f7 d5 d3 c2 	bfins	r11,r5,0x1e,0x2
80006572:	ed d9 c2 8b 	bfextu	r6,r9,0x14,0xb
80006576:	c5 c0       	breq	8000662e <__avr32_f64_mul_op2_subnormal>
80006578:	a1 78       	lsl	r8,0x1
8000657a:	5c f9       	rol	r9
8000657c:	f3 d5 d2 ab 	bfins	r9,r5,0x15,0xb
80006580:	e0 47 07 ff 	cp.w	r7,2047
80006584:	c7 70       	breq	80006672 <__avr32_f64_mul_op_nan_or_inf>
80006586:	e0 46 07 ff 	cp.w	r6,2047
8000658a:	c7 40       	breq	80006672 <__avr32_f64_mul_op_nan_or_inf>
8000658c:	ee 06 00 0c 	add	r12,r7,r6
80006590:	e0 2c 03 fe 	sub	r12,1022
80006594:	f6 08 06 44 	mulu.d	r4,r11,r8
80006598:	f4 09 07 44 	macu.d	r4,r10,r9
8000659c:	f4 08 06 46 	mulu.d	r6,r10,r8
800065a0:	f6 09 06 4a 	mulu.d	r10,r11,r9
800065a4:	08 07       	add	r7,r4
800065a6:	f4 05 00 4a 	adc	r10,r10,r5
800065aa:	5c 0b       	acr	r11
800065ac:	ed bb 00 14 	bld	r11,0x14
800065b0:	c0 50       	breq	800065ba <__avr32_f64_mul+0x6a>
800065b2:	a1 77       	lsl	r7,0x1
800065b4:	5c fa       	rol	r10
800065b6:	5c fb       	rol	r11
800065b8:	20 1c       	sub	r12,1
800065ba:	58 0c       	cp.w	r12,0
800065bc:	e0 8a 00 6f 	brle	8000669a <__avr32_f64_mul_res_subnormal>
800065c0:	e0 4c 07 ff 	cp.w	r12,2047
800065c4:	e0 84 00 9c 	brge	800066fc <__avr32_f64_mul_res_inf>
800065c8:	f7 dc d2 8b 	bfins	r11,r12,0x14,0xb
800065cc:	ed ea 11 f6 	or	r6,r6,r10<<0x1f
800065d0:	ef e6 12 17 	or	r7,r7,r6>>0x1
800065d4:	ee 17 80 00 	eorh	r7,0x8000
800065d8:	f1 b7 04 20 	satu	r7,0x1
800065dc:	0e 0a       	add	r10,r7
800065de:	5c 0b       	acr	r11
800065e0:	ed be 00 1f 	bld	lr,0x1f
800065e4:	ef bb 00 1f 	bst	r11,0x1f
800065e8:	d8 22       	popm	r4-r7,pc

800065ea <__avr32_f64_mul_op1_subnormal>:
800065ea:	e4 1b 00 0f 	andh	r11,0xf
800065ee:	f4 0c 12 00 	clz	r12,r10
800065f2:	f6 06 12 00 	clz	r6,r11
800065f6:	f7 bc 03 e1 	sublo	r12,-31
800065fa:	f8 06 17 30 	movlo	r6,r12
800065fe:	f7 b6 02 01 	subhs	r6,1
80006602:	e0 46 00 20 	cp.w	r6,32
80006606:	c0 d4       	brge	80006620 <__avr32_f64_mul_op1_subnormal+0x36>
80006608:	ec 0c 11 20 	rsub	r12,r6,32
8000660c:	f6 06 09 4b 	lsl	r11,r11,r6
80006610:	f4 0c 0a 4c 	lsr	r12,r10,r12
80006614:	18 4b       	or	r11,r12
80006616:	f4 06 09 4a 	lsl	r10,r10,r6
8000661a:	20 b6       	sub	r6,11
8000661c:	0c 17       	sub	r7,r6
8000661e:	ca ab       	rjmp	80006572 <__avr32_f64_mul+0x22>
80006620:	f4 06 09 4b 	lsl	r11,r10,r6
80006624:	c6 40       	breq	800066ec <__avr32_f64_mul_res_zero>
80006626:	30 0a       	mov	r10,0
80006628:	20 b6       	sub	r6,11
8000662a:	0c 17       	sub	r7,r6
8000662c:	ca 3b       	rjmp	80006572 <__avr32_f64_mul+0x22>

8000662e <__avr32_f64_mul_op2_subnormal>:
8000662e:	e4 19 00 0f 	andh	r9,0xf
80006632:	f0 0c 12 00 	clz	r12,r8
80006636:	f2 05 12 00 	clz	r5,r9
8000663a:	f7 bc 03 ea 	sublo	r12,-22
8000663e:	f8 05 17 30 	movlo	r5,r12
80006642:	f7 b5 02 0a 	subhs	r5,10
80006646:	e0 45 00 20 	cp.w	r5,32
8000664a:	c0 d4       	brge	80006664 <__avr32_f64_mul_op2_subnormal+0x36>
8000664c:	ea 0c 11 20 	rsub	r12,r5,32
80006650:	f2 05 09 49 	lsl	r9,r9,r5
80006654:	f0 0c 0a 4c 	lsr	r12,r8,r12
80006658:	18 49       	or	r9,r12
8000665a:	f0 05 09 48 	lsl	r8,r8,r5
8000665e:	20 25       	sub	r5,2
80006660:	0a 16       	sub	r6,r5
80006662:	c8 fb       	rjmp	80006580 <__avr32_f64_mul+0x30>
80006664:	f0 05 09 49 	lsl	r9,r8,r5
80006668:	c4 20       	breq	800066ec <__avr32_f64_mul_res_zero>
8000666a:	30 08       	mov	r8,0
8000666c:	20 25       	sub	r5,2
8000666e:	0a 16       	sub	r6,r5
80006670:	c8 8b       	rjmp	80006580 <__avr32_f64_mul+0x30>

80006672 <__avr32_f64_mul_op_nan_or_inf>:
80006672:	e4 19 00 0f 	andh	r9,0xf
80006676:	e4 1b 00 0f 	andh	r11,0xf
8000667a:	14 4b       	or	r11,r10
8000667c:	10 49       	or	r9,r8
8000667e:	e0 47 07 ff 	cp.w	r7,2047
80006682:	c0 91       	brne	80006694 <__avr32_f64_mul_op1_not_naninf>
80006684:	58 0b       	cp.w	r11,0
80006686:	c3 81       	brne	800066f6 <__avr32_f64_mul_res_nan>
80006688:	e0 46 07 ff 	cp.w	r6,2047
8000668c:	c3 81       	brne	800066fc <__avr32_f64_mul_res_inf>
8000668e:	58 09       	cp.w	r9,0
80006690:	c3 60       	breq	800066fc <__avr32_f64_mul_res_inf>
80006692:	c3 28       	rjmp	800066f6 <__avr32_f64_mul_res_nan>

80006694 <__avr32_f64_mul_op1_not_naninf>:
80006694:	58 09       	cp.w	r9,0
80006696:	c3 30       	breq	800066fc <__avr32_f64_mul_res_inf>
80006698:	c2 f8       	rjmp	800066f6 <__avr32_f64_mul_res_nan>

8000669a <__avr32_f64_mul_res_subnormal>:
8000669a:	5c 3c       	neg	r12
8000669c:	2f fc       	sub	r12,-1
8000669e:	f1 bc 04 c0 	satu	r12,0x6
800066a2:	e0 4c 00 20 	cp.w	r12,32
800066a6:	c1 14       	brge	800066c8 <__avr32_f64_mul_res_subnormal+0x2e>
800066a8:	f8 08 11 20 	rsub	r8,r12,32
800066ac:	0e 46       	or	r6,r7
800066ae:	ee 0c 0a 47 	lsr	r7,r7,r12
800066b2:	f4 08 09 49 	lsl	r9,r10,r8
800066b6:	12 47       	or	r7,r9
800066b8:	f4 0c 0a 4a 	lsr	r10,r10,r12
800066bc:	f6 08 09 49 	lsl	r9,r11,r8
800066c0:	12 4a       	or	r10,r9
800066c2:	f6 0c 0a 4b 	lsr	r11,r11,r12
800066c6:	c8 3b       	rjmp	800065cc <__avr32_f64_mul+0x7c>
800066c8:	f8 08 11 20 	rsub	r8,r12,32
800066cc:	f9 b9 00 00 	moveq	r9,0
800066d0:	c0 30       	breq	800066d6 <__avr32_f64_mul_res_subnormal+0x3c>
800066d2:	f6 08 09 49 	lsl	r9,r11,r8
800066d6:	0e 46       	or	r6,r7
800066d8:	ed ea 10 16 	or	r6,r6,r10<<0x1
800066dc:	f4 0c 0a 4a 	lsr	r10,r10,r12
800066e0:	f3 ea 10 07 	or	r7,r9,r10
800066e4:	f6 0c 0a 4a 	lsr	r10,r11,r12
800066e8:	30 0b       	mov	r11,0
800066ea:	c7 1b       	rjmp	800065cc <__avr32_f64_mul+0x7c>

800066ec <__avr32_f64_mul_res_zero>:
800066ec:	1c 9b       	mov	r11,lr
800066ee:	e6 1b 80 00 	andh	r11,0x8000,COH
800066f2:	30 0a       	mov	r10,0
800066f4:	d8 22       	popm	r4-r7,pc

800066f6 <__avr32_f64_mul_res_nan>:
800066f6:	3f fb       	mov	r11,-1
800066f8:	3f fa       	mov	r10,-1
800066fa:	d8 22       	popm	r4-r7,pc

800066fc <__avr32_f64_mul_res_inf>:
800066fc:	f0 6b 00 00 	mov	r11,-1048576
80006700:	ed be 00 1f 	bld	lr,0x1f
80006704:	ef bb 00 1f 	bst	r11,0x1f
80006708:	30 0a       	mov	r10,0
8000670a:	d8 22       	popm	r4-r7,pc

8000670c <__avr32_f64_mul_op1_zero>:
8000670c:	f7 e9 20 0b 	eor	r11,r11,r9
80006710:	e6 1b 80 00 	andh	r11,0x8000,COH
80006714:	f9 d9 c2 8b 	bfextu	r12,r9,0x14,0xb
80006718:	e0 4c 07 ff 	cp.w	r12,2047
8000671c:	5e 1c       	retne	r12
8000671e:	3f fa       	mov	r10,-1
80006720:	3f fb       	mov	r11,-1
80006722:	5e fc       	retal	r12

80006724 <__avr32_f64_sub_from_add>:
80006724:	ee 19 80 00 	eorh	r9,0x8000

80006728 <__avr32_f64_sub>:
80006728:	f7 e9 20 0c 	eor	r12,r11,r9
8000672c:	e0 86 00 ca 	brmi	800068c0 <__avr32_f64_add_from_sub>
80006730:	eb cd 40 e0 	pushm	r5-r7,lr
80006734:	16 9c       	mov	r12,r11
80006736:	e6 1c 80 00 	andh	r12,0x8000,COH
8000673a:	bf db       	cbr	r11,0x1f
8000673c:	bf d9       	cbr	r9,0x1f
8000673e:	10 3a       	cp.w	r10,r8
80006740:	f2 0b 13 00 	cpc	r11,r9
80006744:	c0 92       	brcc	80006756 <__avr32_f64_sub+0x2e>
80006746:	16 97       	mov	r7,r11
80006748:	12 9b       	mov	r11,r9
8000674a:	0e 99       	mov	r9,r7
8000674c:	14 97       	mov	r7,r10
8000674e:	10 9a       	mov	r10,r8
80006750:	0e 98       	mov	r8,r7
80006752:	ee 1c 80 00 	eorh	r12,0x8000
80006756:	f6 07 16 14 	lsr	r7,r11,0x14
8000675a:	ab 7b       	lsl	r11,0xb
8000675c:	f7 ea 13 5b 	or	r11,r11,r10>>0x15
80006760:	ab 7a       	lsl	r10,0xb
80006762:	bf bb       	sbr	r11,0x1f
80006764:	f2 06 16 14 	lsr	r6,r9,0x14
80006768:	c4 50       	breq	800067f2 <__avr32_f64_sub_opL_subnormal>
8000676a:	ab 79       	lsl	r9,0xb
8000676c:	f3 e8 13 59 	or	r9,r9,r8>>0x15
80006770:	ab 78       	lsl	r8,0xb
80006772:	bf b9       	sbr	r9,0x1f

80006774 <__avr32_f64_sub_opL_subnormal_done>:
80006774:	e0 47 07 ff 	cp.w	r7,2047
80006778:	c5 00       	breq	80006818 <__avr32_f64_sub_opH_nan_or_inf>
8000677a:	0e 26       	rsub	r6,r7
8000677c:	c1 20       	breq	800067a0 <__avr32_f64_sub_shift_done>
8000677e:	ec 05 11 20 	rsub	r5,r6,32
80006782:	e0 46 00 20 	cp.w	r6,32
80006786:	c7 d2       	brcc	80006880 <__avr32_f64_sub_longshift>
80006788:	f0 05 09 4e 	lsl	lr,r8,r5
8000678c:	f2 05 09 45 	lsl	r5,r9,r5
80006790:	f0 06 0a 48 	lsr	r8,r8,r6
80006794:	f2 06 0a 49 	lsr	r9,r9,r6
80006798:	0a 48       	or	r8,r5
8000679a:	58 0e       	cp.w	lr,0
8000679c:	5f 1e       	srne	lr
8000679e:	1c 48       	or	r8,lr

800067a0 <__avr32_f64_sub_shift_done>:
800067a0:	10 1a       	sub	r10,r8
800067a2:	f6 09 01 4b 	sbc	r11,r11,r9
800067a6:	f6 06 12 00 	clz	r6,r11
800067aa:	c0 e0       	breq	800067c6 <__avr32_f64_sub_longnormalize_done>
800067ac:	c7 93       	brcs	8000689e <__avr32_f64_sub_longnormalize>
800067ae:	ec 0e 11 20 	rsub	lr,r6,32
800067b2:	f6 06 09 4b 	lsl	r11,r11,r6
800067b6:	f4 0e 0a 4e 	lsr	lr,r10,lr
800067ba:	1c 4b       	or	r11,lr
800067bc:	f4 06 09 4a 	lsl	r10,r10,r6
800067c0:	0c 17       	sub	r7,r6
800067c2:	e0 8a 00 3a 	brle	80006836 <__avr32_f64_sub_subnormal_result>

800067c6 <__avr32_f64_sub_longnormalize_done>:
800067c6:	f4 09 15 15 	lsl	r9,r10,0x15
800067ca:	ab 9a       	lsr	r10,0xb
800067cc:	f5 eb 11 5a 	or	r10,r10,r11<<0x15
800067d0:	ab 9b       	lsr	r11,0xb
800067d2:	f7 d7 d2 8b 	bfins	r11,r7,0x14,0xb
800067d6:	18 4b       	or	r11,r12

800067d8 <__avr32_f64_sub_round>:
800067d8:	30 07       	mov	r7,0
800067da:	ea 17 80 00 	orh	r7,0x8000
800067de:	ed ba 00 00 	bld	r10,0x0
800067e2:	f7 b7 01 ff 	subne	r7,-1
800067e6:	0e 39       	cp.w	r9,r7
800067e8:	5f 29       	srhs	r9
800067ea:	12 0a       	add	r10,r9
800067ec:	5c 0b       	acr	r11
800067ee:	e3 cd 80 e0 	ldm	sp++,r5-r7,pc

800067f2 <__avr32_f64_sub_opL_subnormal>:
800067f2:	ab 79       	lsl	r9,0xb
800067f4:	f3 e8 13 59 	or	r9,r9,r8>>0x15
800067f8:	ab 78       	lsl	r8,0xb
800067fa:	f3 e8 10 0e 	or	lr,r9,r8
800067fe:	f9 b6 01 01 	movne	r6,1
80006802:	ee 0e 11 00 	rsub	lr,r7,0
80006806:	f9 b7 00 01 	moveq	r7,1
8000680a:	ef bb 00 1f 	bst	r11,0x1f
8000680e:	f7 ea 10 0e 	or	lr,r11,r10
80006812:	f9 b7 00 00 	moveq	r7,0
80006816:	ca fb       	rjmp	80006774 <__avr32_f64_sub_opL_subnormal_done>

80006818 <__avr32_f64_sub_opH_nan_or_inf>:
80006818:	bf db       	cbr	r11,0x1f
8000681a:	f7 ea 10 0e 	or	lr,r11,r10
8000681e:	c0 81       	brne	8000682e <__avr32_f64_sub_return_nan>
80006820:	e0 46 07 ff 	cp.w	r6,2047
80006824:	c0 50       	breq	8000682e <__avr32_f64_sub_return_nan>
80006826:	f9 e7 11 4b 	or	r11,r12,r7<<0x14
8000682a:	e3 cd 80 e0 	ldm	sp++,r5-r7,pc

8000682e <__avr32_f64_sub_return_nan>:
8000682e:	3f fa       	mov	r10,-1
80006830:	3f fb       	mov	r11,-1
80006832:	e3 cd 80 e0 	ldm	sp++,r5-r7,pc

80006836 <__avr32_f64_sub_subnormal_result>:
80006836:	5c 37       	neg	r7
80006838:	2f f7       	sub	r7,-1
8000683a:	f1 b7 04 c0 	satu	r7,0x6
8000683e:	e0 47 00 20 	cp.w	r7,32
80006842:	c1 14       	brge	80006864 <__avr32_f64_sub_subnormal_result+0x2e>
80006844:	ee 08 11 20 	rsub	r8,r7,32
80006848:	f4 08 09 49 	lsl	r9,r10,r8
8000684c:	5f 16       	srne	r6
8000684e:	f4 07 0a 4a 	lsr	r10,r10,r7
80006852:	0c 4a       	or	r10,r6
80006854:	f6 08 09 49 	lsl	r9,r11,r8
80006858:	f5 e9 10 0a 	or	r10,r10,r9
8000685c:	f4 07 0a 4b 	lsr	r11,r10,r7
80006860:	30 07       	mov	r7,0
80006862:	cb 2b       	rjmp	800067c6 <__avr32_f64_sub_longnormalize_done>
80006864:	ee 08 11 40 	rsub	r8,r7,64
80006868:	f6 08 09 49 	lsl	r9,r11,r8
8000686c:	14 49       	or	r9,r10
8000686e:	5f 16       	srne	r6
80006870:	f6 07 0a 4a 	lsr	r10,r11,r7
80006874:	0c 4a       	or	r10,r6
80006876:	30 0b       	mov	r11,0
80006878:	30 07       	mov	r7,0
8000687a:	ca 6b       	rjmp	800067c6 <__avr32_f64_sub_longnormalize_done>
8000687c:	e3 cd 80 e0 	ldm	sp++,r5-r7,pc

80006880 <__avr32_f64_sub_longshift>:
80006880:	f1 b6 04 c0 	satu	r6,0x6
80006884:	f0 0e 17 00 	moveq	lr,r8
80006888:	c0 40       	breq	80006890 <__avr32_f64_sub_longshift+0x10>
8000688a:	f2 05 09 4e 	lsl	lr,r9,r5
8000688e:	10 4e       	or	lr,r8
80006890:	f2 06 0a 48 	lsr	r8,r9,r6
80006894:	30 09       	mov	r9,0
80006896:	58 0e       	cp.w	lr,0
80006898:	5f 1e       	srne	lr
8000689a:	1c 48       	or	r8,lr
8000689c:	c8 2b       	rjmp	800067a0 <__avr32_f64_sub_shift_done>

8000689e <__avr32_f64_sub_longnormalize>:
8000689e:	f4 06 12 00 	clz	r6,r10
800068a2:	f9 b7 03 00 	movlo	r7,0
800068a6:	f9 b6 03 00 	movlo	r6,0
800068aa:	f9 bc 03 00 	movlo	r12,0
800068ae:	f7 b6 02 e0 	subhs	r6,-32
800068b2:	f4 06 09 4b 	lsl	r11,r10,r6
800068b6:	30 0a       	mov	r10,0
800068b8:	0c 17       	sub	r7,r6
800068ba:	fe 9a ff be 	brle	80006836 <__avr32_f64_sub_subnormal_result>
800068be:	c8 4b       	rjmp	800067c6 <__avr32_f64_sub_longnormalize_done>

800068c0 <__avr32_f64_add_from_sub>:
800068c0:	ee 19 80 00 	eorh	r9,0x8000

800068c4 <__avr32_f64_add>:
800068c4:	f7 e9 20 0c 	eor	r12,r11,r9
800068c8:	fe 96 ff 2e 	brmi	80006724 <__avr32_f64_sub_from_add>
800068cc:	eb cd 40 e0 	pushm	r5-r7,lr
800068d0:	16 9c       	mov	r12,r11
800068d2:	e6 1c 80 00 	andh	r12,0x8000,COH
800068d6:	bf db       	cbr	r11,0x1f
800068d8:	bf d9       	cbr	r9,0x1f
800068da:	12 3b       	cp.w	r11,r9
800068dc:	c0 72       	brcc	800068ea <__avr32_f64_add+0x26>
800068de:	16 97       	mov	r7,r11
800068e0:	12 9b       	mov	r11,r9
800068e2:	0e 99       	mov	r9,r7
800068e4:	14 97       	mov	r7,r10
800068e6:	10 9a       	mov	r10,r8
800068e8:	0e 98       	mov	r8,r7
800068ea:	30 0e       	mov	lr,0
800068ec:	ef db c2 8b 	bfextu	r7,r11,0x14,0xb
800068f0:	f7 db c0 14 	bfextu	r11,r11,0x0,0x14
800068f4:	b5 ab       	sbr	r11,0x14
800068f6:	ed d9 c2 8b 	bfextu	r6,r9,0x14,0xb
800068fa:	c6 30       	breq	800069c0 <__avr32_f64_add_op2_subnormal>
800068fc:	f3 d9 c0 14 	bfextu	r9,r9,0x0,0x14
80006900:	b5 a9       	sbr	r9,0x14
80006902:	e0 47 07 ff 	cp.w	r7,2047
80006906:	c2 80       	breq	80006956 <__avr32_f64_add_opH_nan_or_inf>
80006908:	0e 26       	rsub	r6,r7
8000690a:	c1 20       	breq	8000692e <__avr32_f64_add_shift_done>
8000690c:	e0 46 00 36 	cp.w	r6,54
80006910:	c1 52       	brcc	8000693a <__avr32_f64_add_res_of_done>
80006912:	ec 05 11 20 	rsub	r5,r6,32
80006916:	e0 46 00 20 	cp.w	r6,32
8000691a:	c3 62       	brcc	80006986 <__avr32_f64_add_longshift>
8000691c:	f0 05 09 4e 	lsl	lr,r8,r5
80006920:	f2 05 09 45 	lsl	r5,r9,r5
80006924:	f0 06 0a 48 	lsr	r8,r8,r6
80006928:	f2 06 0a 49 	lsr	r9,r9,r6
8000692c:	0a 48       	or	r8,r5

8000692e <__avr32_f64_add_shift_done>:
8000692e:	10 0a       	add	r10,r8
80006930:	f6 09 00 4b 	adc	r11,r11,r9
80006934:	ed bb 00 15 	bld	r11,0x15
80006938:	c3 50       	breq	800069a2 <__avr32_f64_add_res_of>

8000693a <__avr32_f64_add_res_of_done>:
8000693a:	f7 d7 d2 8b 	bfins	r11,r7,0x14,0xb
8000693e:	18 4b       	or	r11,r12

80006940 <__avr32_f64_add_round>:
80006940:	f9 da c0 01 	bfextu	r12,r10,0x0,0x1
80006944:	18 4e       	or	lr,r12
80006946:	ee 1e 80 00 	eorh	lr,0x8000
8000694a:	f1 be 04 20 	satu	lr,0x1
8000694e:	1c 0a       	add	r10,lr
80006950:	5c 0b       	acr	r11
80006952:	e3 cd 80 e0 	ldm	sp++,r5-r7,pc

80006956 <__avr32_f64_add_opH_nan_or_inf>:
80006956:	b5 cb       	cbr	r11,0x14
80006958:	f7 ea 10 0e 	or	lr,r11,r10
8000695c:	c1 11       	brne	8000697e <__avr32_f64_add_return_nan>
8000695e:	e0 46 07 ff 	cp.w	r6,2047
80006962:	c0 30       	breq	80006968 <__avr32_f64_add_opL_nan_or_inf>
80006964:	e3 cd 80 e0 	ldm	sp++,r5-r7,pc

80006968 <__avr32_f64_add_opL_nan_or_inf>:
80006968:	b5 c9       	cbr	r9,0x14
8000696a:	f3 e8 10 0e 	or	lr,r9,r8
8000696e:	c0 81       	brne	8000697e <__avr32_f64_add_return_nan>
80006970:	30 0a       	mov	r10,0
80006972:	30 0b       	mov	r11,0
80006974:	ea 1b 7f f0 	orh	r11,0x7ff0
80006978:	18 4b       	or	r11,r12
8000697a:	e3 cd 80 e0 	ldm	sp++,r5-r7,pc

8000697e <__avr32_f64_add_return_nan>:
8000697e:	3f fa       	mov	r10,-1
80006980:	3f fb       	mov	r11,-1
80006982:	e3 cd 80 e0 	ldm	sp++,r5-r7,pc

80006986 <__avr32_f64_add_longshift>:
80006986:	f1 b6 04 c0 	satu	r6,0x6
8000698a:	f0 0e 17 00 	moveq	lr,r8
8000698e:	c0 60       	breq	8000699a <__avr32_f64_add_longshift+0x14>
80006990:	f2 05 09 4e 	lsl	lr,r9,r5
80006994:	58 08       	cp.w	r8,0
80006996:	5f 18       	srne	r8
80006998:	10 4e       	or	lr,r8
8000699a:	f2 06 0a 48 	lsr	r8,r9,r6
8000699e:	30 09       	mov	r9,0
800069a0:	cc 7b       	rjmp	8000692e <__avr32_f64_add_shift_done>

800069a2 <__avr32_f64_add_res_of>:
800069a2:	fd ee 10 1e 	or	lr,lr,lr<<0x1
800069a6:	a1 9b       	lsr	r11,0x1
800069a8:	5d 0a       	ror	r10
800069aa:	5d 0e       	ror	lr
800069ac:	2f f7       	sub	r7,-1
800069ae:	e0 47 07 ff 	cp.w	r7,2047
800069b2:	f9 ba 00 00 	moveq	r10,0
800069b6:	f9 bb 00 00 	moveq	r11,0
800069ba:	f9 be 00 00 	moveq	lr,0
800069be:	cb eb       	rjmp	8000693a <__avr32_f64_add_res_of_done>

800069c0 <__avr32_f64_add_op2_subnormal>:
800069c0:	30 16       	mov	r6,1
800069c2:	58 07       	cp.w	r7,0
800069c4:	c9 f1       	brne	80006902 <__avr32_f64_add+0x3e>
800069c6:	b5 cb       	cbr	r11,0x14
800069c8:	10 0a       	add	r10,r8
800069ca:	f6 09 00 4b 	adc	r11,r11,r9
800069ce:	18 4b       	or	r11,r12
800069d0:	e3 cd 80 e0 	ldm	sp++,r5-r7,pc

800069d4 <__avr32_f64_to_u32>:
800069d4:	58 0b       	cp.w	r11,0
800069d6:	5e 6d       	retmi	0

800069d8 <__avr32_f64_to_s32>:
800069d8:	f6 0c 15 01 	lsl	r12,r11,0x1
800069dc:	b5 9c       	lsr	r12,0x15
800069de:	e0 2c 03 ff 	sub	r12,1023
800069e2:	5e 3d       	retlo	0
800069e4:	f8 0c 11 1f 	rsub	r12,r12,31
800069e8:	16 99       	mov	r9,r11
800069ea:	ab 7b       	lsl	r11,0xb
800069ec:	bf bb       	sbr	r11,0x1f
800069ee:	f7 ea 13 5b 	or	r11,r11,r10>>0x15
800069f2:	f6 0c 0a 4b 	lsr	r11,r11,r12
800069f6:	a1 79       	lsl	r9,0x1
800069f8:	5e 2b       	reths	r11
800069fa:	5c 3b       	neg	r11
800069fc:	5e fb       	retal	r11

800069fe <__avr32_f32_cmp_lt>:
800069fe:	f8 0a 15 01 	lsl	r10,r12,0x1
80006a02:	f6 09 15 01 	lsl	r9,r11,0x1
80006a06:	f5 ba 00 00 	subfeq	r10,0
80006a0a:	5e 0d       	reteq	0
80006a0c:	30 08       	mov	r8,0
80006a0e:	ea 18 ff 00 	orh	r8,0xff00
80006a12:	10 3a       	cp.w	r10,r8
80006a14:	5e bd       	rethi	0
80006a16:	10 39       	cp.w	r9,r8
80006a18:	5e bd       	rethi	0
80006a1a:	f7 ec 20 08 	eor	r8,r11,r12
80006a1e:	ed bc 00 1f 	bld	r12,0x1f
80006a22:	5f 38       	srlo	r8
80006a24:	5e 68       	retmi	r8
80006a26:	c0 43       	brcs	80006a2e <__avr32_f32_cmp_lt+0x30>
80006a28:	16 3c       	cp.w	r12,r11
80006a2a:	5e 2d       	reths	0
80006a2c:	5e 3f       	retlo	1
80006a2e:	18 3b       	cp.w	r11,r12
80006a30:	5e 2d       	reths	0
80006a32:	5e 3f       	retlo	1

80006a34 <__avr32_f64_div>:
80006a34:	eb cd 40 ff 	pushm	r0-r7,lr
80006a38:	f7 e9 20 0e 	eor	lr,r11,r9
80006a3c:	f6 07 16 14 	lsr	r7,r11,0x14
80006a40:	a9 7b       	lsl	r11,0x9
80006a42:	f7 ea 13 7b 	or	r11,r11,r10>>0x17
80006a46:	a9 7a       	lsl	r10,0x9
80006a48:	bd bb       	sbr	r11,0x1d
80006a4a:	e4 1b 3f ff 	andh	r11,0x3fff
80006a4e:	ab d7       	cbr	r7,0xb
80006a50:	e0 80 00 cd 	breq	80006bea <__avr32_f64_div_round_subnormal+0x54>
80006a54:	e0 47 07 ff 	cp.w	r7,2047
80006a58:	e0 84 00 b6 	brge	80006bc4 <__avr32_f64_div_round_subnormal+0x2e>
80006a5c:	f2 06 16 14 	lsr	r6,r9,0x14
80006a60:	a9 79       	lsl	r9,0x9
80006a62:	f3 e8 13 79 	or	r9,r9,r8>>0x17
80006a66:	a9 78       	lsl	r8,0x9
80006a68:	bd b9       	sbr	r9,0x1d
80006a6a:	e4 19 3f ff 	andh	r9,0x3fff
80006a6e:	ab d6       	cbr	r6,0xb
80006a70:	e0 80 00 e3 	breq	80006c36 <__avr32_f64_div_round_subnormal+0xa0>
80006a74:	e0 46 07 ff 	cp.w	r6,2047
80006a78:	e0 84 00 b3 	brge	80006bde <__avr32_f64_div_round_subnormal+0x48>
80006a7c:	0c 17       	sub	r7,r6
80006a7e:	fe 37 fc 01 	sub	r7,-1023
80006a82:	30 0c       	mov	r12,0
80006a84:	ea 1c 80 00 	orh	r12,0x8000
80006a88:	f8 03 16 01 	lsr	r3,r12,0x1
80006a8c:	e9 d9 c3 62 	bfextu	r4,r9,0x1b,0x2
80006a90:	5c d4       	com	r4
80006a92:	e7 d4 d3 82 	bfins	r3,r4,0x1c,0x2
80006a96:	e6 09 06 44 	mulu.d	r4,r3,r9
80006a9a:	f8 05 01 25 	sub	r5,r12,r5<<0x2
80006a9e:	e6 05 06 44 	mulu.d	r4,r3,r5
80006aa2:	ea 03 15 02 	lsl	r3,r5,0x2
80006aa6:	e6 09 06 44 	mulu.d	r4,r3,r9
80006aaa:	f8 05 01 25 	sub	r5,r12,r5<<0x2
80006aae:	e6 05 06 44 	mulu.d	r4,r3,r5
80006ab2:	ea 03 15 02 	lsl	r3,r5,0x2
80006ab6:	e6 09 06 44 	mulu.d	r4,r3,r9
80006aba:	f8 05 01 25 	sub	r5,r12,r5<<0x2
80006abe:	e6 05 06 44 	mulu.d	r4,r3,r5
80006ac2:	ea 03 15 02 	lsl	r3,r5,0x2
80006ac6:	e6 08 06 40 	mulu.d	r0,r3,r8
80006aca:	e4 09 07 40 	macu.d	r0,r2,r9
80006ace:	e6 09 06 44 	mulu.d	r4,r3,r9
80006ad2:	02 04       	add	r4,r1
80006ad4:	5c 05       	acr	r5
80006ad6:	a3 65       	lsl	r5,0x2
80006ad8:	eb e4 13 e5 	or	r5,r5,r4>>0x1e
80006adc:	a3 64       	lsl	r4,0x2
80006ade:	5c 34       	neg	r4
80006ae0:	f8 05 01 45 	sbc	r5,r12,r5
80006ae4:	e6 04 06 40 	mulu.d	r0,r3,r4
80006ae8:	e4 05 07 40 	macu.d	r0,r2,r5
80006aec:	e6 05 06 44 	mulu.d	r4,r3,r5
80006af0:	02 04       	add	r4,r1
80006af2:	5c 05       	acr	r5
80006af4:	ea 03 15 02 	lsl	r3,r5,0x2
80006af8:	e7 e4 13 e3 	or	r3,r3,r4>>0x1e
80006afc:	e8 02 15 02 	lsl	r2,r4,0x2
80006b00:	e6 08 06 40 	mulu.d	r0,r3,r8
80006b04:	e4 09 07 40 	macu.d	r0,r2,r9
80006b08:	e6 09 06 44 	mulu.d	r4,r3,r9
80006b0c:	02 04       	add	r4,r1
80006b0e:	5c 05       	acr	r5
80006b10:	a3 65       	lsl	r5,0x2
80006b12:	eb e4 13 e5 	or	r5,r5,r4>>0x1e
80006b16:	a3 64       	lsl	r4,0x2
80006b18:	5c 34       	neg	r4
80006b1a:	f8 05 01 45 	sbc	r5,r12,r5
80006b1e:	e6 04 06 40 	mulu.d	r0,r3,r4
80006b22:	e4 05 07 40 	macu.d	r0,r2,r5
80006b26:	e6 05 06 44 	mulu.d	r4,r3,r5
80006b2a:	02 04       	add	r4,r1
80006b2c:	5c 05       	acr	r5
80006b2e:	ea 03 15 02 	lsl	r3,r5,0x2
80006b32:	e7 e4 13 e3 	or	r3,r3,r4>>0x1e
80006b36:	e8 02 15 02 	lsl	r2,r4,0x2
80006b3a:	e6 0a 06 40 	mulu.d	r0,r3,r10
80006b3e:	e4 0b 07 40 	macu.d	r0,r2,r11
80006b42:	e6 0b 06 42 	mulu.d	r2,r3,r11
80006b46:	02 02       	add	r2,r1
80006b48:	5c 03       	acr	r3
80006b4a:	ed b3 00 1c 	bld	r3,0x1c
80006b4e:	c0 90       	breq	80006b60 <__avr32_f64_div+0x12c>
80006b50:	a1 72       	lsl	r2,0x1
80006b52:	5c f3       	rol	r3
80006b54:	20 17       	sub	r7,1
80006b56:	a3 9a       	lsr	r10,0x3
80006b58:	f5 eb 11 da 	or	r10,r10,r11<<0x1d
80006b5c:	a3 9b       	lsr	r11,0x3
80006b5e:	c0 58       	rjmp	80006b68 <__avr32_f64_div+0x134>
80006b60:	a5 8a       	lsr	r10,0x4
80006b62:	f5 eb 11 ca 	or	r10,r10,r11<<0x1c
80006b66:	a5 8b       	lsr	r11,0x4
80006b68:	58 07       	cp.w	r7,0
80006b6a:	e0 8a 00 8b 	brle	80006c80 <__avr32_f64_div_res_subnormal>
80006b6e:	e0 12 ff 00 	andl	r2,0xff00
80006b72:	e8 12 00 80 	orl	r2,0x80
80006b76:	e6 08 06 40 	mulu.d	r0,r3,r8
80006b7a:	e4 09 07 40 	macu.d	r0,r2,r9
80006b7e:	e4 08 06 44 	mulu.d	r4,r2,r8
80006b82:	e6 09 06 48 	mulu.d	r8,r3,r9
80006b86:	00 05       	add	r5,r0
80006b88:	f0 01 00 48 	adc	r8,r8,r1
80006b8c:	5c 09       	acr	r9
80006b8e:	f9 d2 c1 01 	bfextu	r12,r2,0x8,0x1
80006b92:	58 04       	cp.w	r4,0
80006b94:	5c 25       	cpc	r5

80006b96 <__avr32_f64_div_round_subnormal>:
80006b96:	f4 08 13 00 	cpc	r8,r10
80006b9a:	f6 09 13 00 	cpc	r9,r11
80006b9e:	5f 36       	srlo	r6
80006ba0:	f8 06 17 00 	moveq	r6,r12
80006ba4:	e4 0a 16 08 	lsr	r10,r2,0x8
80006ba8:	f5 e3 11 8a 	or	r10,r10,r3<<0x18
80006bac:	e6 0b 16 08 	lsr	r11,r3,0x8
80006bb0:	f7 d7 d2 8b 	bfins	r11,r7,0x14,0xb
80006bb4:	ed be 00 1f 	bld	lr,0x1f
80006bb8:	ef bb 00 1f 	bst	r11,0x1f
80006bbc:	0c 0a       	add	r10,r6
80006bbe:	5c 0b       	acr	r11
80006bc0:	e3 cd 80 ff 	ldm	sp++,r0-r7,pc
80006bc4:	e4 1b 00 0f 	andh	r11,0xf
80006bc8:	14 4b       	or	r11,r10
80006bca:	e0 81 00 a7 	brne	80006d18 <__avr32_f64_div_res_subnormal+0x98>
80006bce:	f2 06 16 14 	lsr	r6,r9,0x14
80006bd2:	ab d6       	cbr	r6,0xb
80006bd4:	e0 46 07 ff 	cp.w	r6,2047
80006bd8:	e0 81 00 a4 	brne	80006d20 <__avr32_f64_div_res_subnormal+0xa0>
80006bdc:	c9 e8       	rjmp	80006d18 <__avr32_f64_div_res_subnormal+0x98>
80006bde:	e4 19 00 0f 	andh	r9,0xf
80006be2:	10 49       	or	r9,r8
80006be4:	e0 81 00 9a 	brne	80006d18 <__avr32_f64_div_res_subnormal+0x98>
80006be8:	c9 28       	rjmp	80006d0c <__avr32_f64_div_res_subnormal+0x8c>
80006bea:	a3 7b       	lsl	r11,0x3
80006bec:	f7 ea 13 db 	or	r11,r11,r10>>0x1d
80006bf0:	a3 7a       	lsl	r10,0x3
80006bf2:	f5 eb 10 04 	or	r4,r10,r11
80006bf6:	e0 80 00 a0 	breq	80006d36 <__avr32_f64_div_op1_zero>
80006bfa:	f6 04 12 00 	clz	r4,r11
80006bfe:	c1 70       	breq	80006c2c <__avr32_f64_div_round_subnormal+0x96>
80006c00:	c0 c3       	brcs	80006c18 <__avr32_f64_div_round_subnormal+0x82>
80006c02:	e8 05 11 20 	rsub	r5,r4,32
80006c06:	f6 04 09 4b 	lsl	r11,r11,r4
80006c0a:	f4 05 0a 45 	lsr	r5,r10,r5
80006c0e:	0a 4b       	or	r11,r5
80006c10:	f4 04 09 4a 	lsl	r10,r10,r4
80006c14:	08 17       	sub	r7,r4
80006c16:	c0 b8       	rjmp	80006c2c <__avr32_f64_div_round_subnormal+0x96>
80006c18:	f4 04 12 00 	clz	r4,r10
80006c1c:	f9 b4 03 00 	movlo	r4,0
80006c20:	f7 b4 02 e0 	subhs	r4,-32
80006c24:	f4 04 09 4b 	lsl	r11,r10,r4
80006c28:	30 0a       	mov	r10,0
80006c2a:	08 17       	sub	r7,r4
80006c2c:	a3 8a       	lsr	r10,0x2
80006c2e:	f5 eb 11 ea 	or	r10,r10,r11<<0x1e
80006c32:	a3 8b       	lsr	r11,0x2
80006c34:	c1 0b       	rjmp	80006a54 <__avr32_f64_div+0x20>
80006c36:	a3 79       	lsl	r9,0x3
80006c38:	f3 e8 13 d9 	or	r9,r9,r8>>0x1d
80006c3c:	a3 78       	lsl	r8,0x3
80006c3e:	f3 e8 10 04 	or	r4,r9,r8
80006c42:	c6 f0       	breq	80006d20 <__avr32_f64_div_res_subnormal+0xa0>
80006c44:	f2 04 12 00 	clz	r4,r9
80006c48:	c1 70       	breq	80006c76 <__avr32_f64_div_round_subnormal+0xe0>
80006c4a:	c0 c3       	brcs	80006c62 <__avr32_f64_div_round_subnormal+0xcc>
80006c4c:	e8 05 11 20 	rsub	r5,r4,32
80006c50:	f2 04 09 49 	lsl	r9,r9,r4
80006c54:	f0 05 0a 45 	lsr	r5,r8,r5
80006c58:	0a 49       	or	r9,r5
80006c5a:	f0 04 09 48 	lsl	r8,r8,r4
80006c5e:	08 16       	sub	r6,r4
80006c60:	c0 b8       	rjmp	80006c76 <__avr32_f64_div_round_subnormal+0xe0>
80006c62:	f0 04 12 00 	clz	r4,r8
80006c66:	f9 b4 03 00 	movlo	r4,0
80006c6a:	f7 b4 02 e0 	subhs	r4,-32
80006c6e:	f0 04 09 49 	lsl	r9,r8,r4
80006c72:	30 08       	mov	r8,0
80006c74:	08 16       	sub	r6,r4
80006c76:	a3 88       	lsr	r8,0x2
80006c78:	f1 e9 11 e8 	or	r8,r8,r9<<0x1e
80006c7c:	a3 89       	lsr	r9,0x2
80006c7e:	cf ba       	rjmp	80006a74 <__avr32_f64_div+0x40>

80006c80 <__avr32_f64_div_res_subnormal>:
80006c80:	5c 37       	neg	r7
80006c82:	2f f7       	sub	r7,-1
80006c84:	f1 b7 04 c0 	satu	r7,0x6
80006c88:	e0 47 00 20 	cp.w	r7,32
80006c8c:	c1 54       	brge	80006cb6 <__avr32_f64_div_res_subnormal+0x36>
80006c8e:	ee 06 11 20 	rsub	r6,r7,32
80006c92:	e4 07 0a 42 	lsr	r2,r2,r7
80006c96:	e6 06 09 4c 	lsl	r12,r3,r6
80006c9a:	18 42       	or	r2,r12
80006c9c:	e6 07 0a 43 	lsr	r3,r3,r7
80006ca0:	f4 06 09 41 	lsl	r1,r10,r6
80006ca4:	f4 07 0a 4a 	lsr	r10,r10,r7
80006ca8:	f6 06 09 4c 	lsl	r12,r11,r6
80006cac:	18 4a       	or	r10,r12
80006cae:	f6 07 0a 4b 	lsr	r11,r11,r7
80006cb2:	30 00       	mov	r0,0
80006cb4:	c1 58       	rjmp	80006cde <__avr32_f64_div_res_subnormal+0x5e>
80006cb6:	ee 06 11 20 	rsub	r6,r7,32
80006cba:	f9 b0 00 00 	moveq	r0,0
80006cbe:	f9 bc 00 00 	moveq	r12,0
80006cc2:	c0 50       	breq	80006ccc <__avr32_f64_div_res_subnormal+0x4c>
80006cc4:	f4 06 09 40 	lsl	r0,r10,r6
80006cc8:	f6 06 09 4c 	lsl	r12,r11,r6
80006ccc:	e6 07 0a 42 	lsr	r2,r3,r7
80006cd0:	30 03       	mov	r3,0
80006cd2:	f4 07 0a 41 	lsr	r1,r10,r7
80006cd6:	18 41       	or	r1,r12
80006cd8:	f6 07 0a 4a 	lsr	r10,r11,r7
80006cdc:	30 0b       	mov	r11,0
80006cde:	e0 12 ff 00 	andl	r2,0xff00
80006ce2:	e8 12 00 80 	orl	r2,0x80
80006ce6:	e6 08 06 46 	mulu.d	r6,r3,r8
80006cea:	e4 09 07 46 	macu.d	r6,r2,r9
80006cee:	e4 08 06 44 	mulu.d	r4,r2,r8
80006cf2:	e6 09 06 48 	mulu.d	r8,r3,r9
80006cf6:	0c 05       	add	r5,r6
80006cf8:	f0 07 00 48 	adc	r8,r8,r7
80006cfc:	5c 09       	acr	r9
80006cfe:	30 07       	mov	r7,0
80006d00:	f9 d2 c1 01 	bfextu	r12,r2,0x8,0x1
80006d04:	00 34       	cp.w	r4,r0
80006d06:	e2 05 13 00 	cpc	r5,r1
80006d0a:	c4 6b       	rjmp	80006b96 <__avr32_f64_div_round_subnormal>
80006d0c:	1c 9b       	mov	r11,lr
80006d0e:	e6 1b 80 00 	andh	r11,0x8000,COH
80006d12:	30 0a       	mov	r10,0
80006d14:	e3 cd 80 ff 	ldm	sp++,r0-r7,pc
80006d18:	3f fb       	mov	r11,-1
80006d1a:	30 0a       	mov	r10,0
80006d1c:	e3 cd 80 ff 	ldm	sp++,r0-r7,pc
80006d20:	f5 eb 10 04 	or	r4,r10,r11
80006d24:	c0 90       	breq	80006d36 <__avr32_f64_div_op1_zero>
80006d26:	1c 9b       	mov	r11,lr
80006d28:	e6 1b 80 00 	andh	r11,0x8000,COH
80006d2c:	ea 1b 7f f0 	orh	r11,0x7ff0
80006d30:	30 0a       	mov	r10,0
80006d32:	e3 cd 80 ff 	ldm	sp++,r0-r7,pc

80006d36 <__avr32_f64_div_op1_zero>:
80006d36:	f1 e9 10 15 	or	r5,r8,r9<<0x1
80006d3a:	ce f0       	breq	80006d18 <__avr32_f64_div_res_subnormal+0x98>
80006d3c:	e9 d9 c2 8b 	bfextu	r4,r9,0x14,0xb
80006d40:	e0 44 07 ff 	cp.w	r4,2047
80006d44:	ce 41       	brne	80006d0c <__avr32_f64_div_res_subnormal+0x8c>
80006d46:	f1 e9 10 c5 	or	r5,r8,r9<<0xc
80006d4a:	ce 10       	breq	80006d0c <__avr32_f64_div_res_subnormal+0x8c>
80006d4c:	ce 6b       	rjmp	80006d18 <__avr32_f64_div_res_subnormal+0x98>
	...

80006d50 <__avr32_f32_div>:
80006d50:	f7 ec 20 08 	eor	r8,r11,r12
80006d54:	a1 7c       	lsl	r12,0x1
80006d56:	a1 7b       	lsl	r11,0x1
80006d58:	c7 e0       	breq	80006e54 <__divsf_return_op1+0x18>
80006d5a:	18 7c       	tst	r12,r12
80006d5c:	f9 b9 00 00 	moveq	r9,0
80006d60:	c0 a0       	breq	80006d74 <__avr32_f32_div+0x24>
80006d62:	f8 09 16 18 	lsr	r9,r12,0x18
80006d66:	e0 80 00 83 	breq	80006e6c <__divsf_return_op1+0x30>
80006d6a:	e0 49 00 ff 	cp.w	r9,255
80006d6e:	c6 a2       	brcc	80006e42 <__divsf_return_op1+0x6>
80006d70:	a7 7c       	lsl	r12,0x7
80006d72:	bf bc       	sbr	r12,0x1f
80006d74:	f6 0a 16 18 	lsr	r10,r11,0x18
80006d78:	e0 80 00 82 	breq	80006e7c <__divsf_return_op1+0x40>
80006d7c:	e0 4a 00 ff 	cp.w	r10,255
80006d80:	c6 82       	brcc	80006e50 <__divsf_return_op1+0x14>
80006d82:	a7 7b       	lsl	r11,0x7
80006d84:	bf bb       	sbr	r11,0x1f
80006d86:	58 09       	cp.w	r9,0
80006d88:	f5 bc 00 00 	subfeq	r12,0
80006d8c:	5e 0d       	reteq	0
80006d8e:	1a d5       	st.w	--sp,r5
80006d90:	bb 27       	st.d	--sp,r6
80006d92:	14 19       	sub	r9,r10
80006d94:	28 19       	sub	r9,-127
80006d96:	30 0a       	mov	r10,0
80006d98:	ea 1a 80 00 	orh	r10,0x8000
80006d9c:	a3 8c       	lsr	r12,0x2
80006d9e:	f6 05 16 02 	lsr	r5,r11,0x2
80006da2:	f4 0b 16 01 	lsr	r11,r10,0x1
80006da6:	ed d5 c3 62 	bfextu	r6,r5,0x1b,0x2
80006daa:	5c d6       	com	r6
80006dac:	f7 d6 d3 82 	bfins	r11,r6,0x1c,0x2
80006db0:	f6 05 06 46 	mulu.d	r6,r11,r5
80006db4:	f4 07 01 27 	sub	r7,r10,r7<<0x2
80006db8:	f6 07 06 46 	mulu.d	r6,r11,r7
80006dbc:	ee 0b 15 02 	lsl	r11,r7,0x2
80006dc0:	f6 05 06 46 	mulu.d	r6,r11,r5
80006dc4:	f4 07 01 27 	sub	r7,r10,r7<<0x2
80006dc8:	f6 07 06 46 	mulu.d	r6,r11,r7
80006dcc:	ee 0b 15 02 	lsl	r11,r7,0x2
80006dd0:	f6 05 06 46 	mulu.d	r6,r11,r5
80006dd4:	f4 07 01 27 	sub	r7,r10,r7<<0x2
80006dd8:	f6 07 06 46 	mulu.d	r6,r11,r7
80006ddc:	ee 0b 15 02 	lsl	r11,r7,0x2
80006de0:	f6 05 06 46 	mulu.d	r6,r11,r5
80006de4:	f4 07 01 27 	sub	r7,r10,r7<<0x2
80006de8:	f6 07 06 46 	mulu.d	r6,r11,r7
80006dec:	ee 0b 15 02 	lsl	r11,r7,0x2
80006df0:	f6 0c 06 46 	mulu.d	r6,r11,r12
80006df4:	a5 8c       	lsr	r12,0x4
80006df6:	ed b7 00 1c 	bld	r7,0x1c
80006dfa:	c0 40       	breq	80006e02 <__avr32_f32_div+0xb2>
80006dfc:	a1 77       	lsl	r7,0x1
80006dfe:	20 19       	sub	r9,1
80006e00:	a1 7c       	lsl	r12,0x1
80006e02:	58 09       	cp.w	r9,0
80006e04:	e0 8a 00 44 	brle	80006e8c <__avr32_f32_div_res_subnormal>
80006e08:	e0 17 ff e0 	andl	r7,0xffe0
80006e0c:	e8 17 00 10 	orl	r7,0x10
80006e10:	ea 07 06 4a 	mulu.d	r10,r5,r7
80006e14:	eb d7 c0 a1 	bfextu	r5,r7,0x5,0x1
80006e18:	58 0a       	cp.w	r10,0

80006e1a <__avr32_f32_div_round_subnormal>:
80006e1a:	f8 0b 13 00 	cpc	r11,r12
80006e1e:	5f 3b       	srlo	r11
80006e20:	ea 0b 17 00 	moveq	r11,r5
80006e24:	ee 0c 16 05 	lsr	r12,r7,0x5
80006e28:	f9 d9 d2 e8 	bfins	r12,r9,0x17,0x8
80006e2c:	bb 07       	ld.d	r6,sp++
80006e2e:	1b 05       	ld.w	r5,sp++
80006e30:	ed b8 00 1f 	bld	r8,0x1f
80006e34:	ef bc 00 1f 	bst	r12,0x1f
80006e38:	16 0c       	add	r12,r11
80006e3a:	5e fc       	retal	r12

80006e3c <__divsf_return_op1>:
80006e3c:	a1 78       	lsl	r8,0x1
80006e3e:	5d 0c       	ror	r12
80006e40:	5e fc       	retal	r12
80006e42:	5e 1e       	retne	-1
80006e44:	30 09       	mov	r9,0
80006e46:	ea 19 ff 00 	orh	r9,0xff00
80006e4a:	12 3b       	cp.w	r11,r9
80006e4c:	cf 83       	brcs	80006e3c <__divsf_return_op1>
80006e4e:	5e fe       	retal	-1
80006e50:	5e 0d       	reteq	0
80006e52:	5e fe       	retal	-1
80006e54:	18 7c       	tst	r12,r12
80006e56:	5e 0e       	reteq	-1
80006e58:	f8 09 16 18 	lsr	r9,r12,0x18
80006e5c:	c0 80       	breq	80006e6c <__divsf_return_op1+0x30>
80006e5e:	e0 49 00 ff 	cp.w	r9,255
80006e62:	cf 02       	brcc	80006e42 <__divsf_return_op1+0x6>
80006e64:	30 0c       	mov	r12,0
80006e66:	ea 1c ff 00 	orh	r12,0xff00
80006e6a:	ce 9b       	rjmp	80006e3c <__divsf_return_op1>
80006e6c:	a7 7c       	lsl	r12,0x7
80006e6e:	f8 09 12 00 	clz	r9,r12
80006e72:	f8 09 09 4c 	lsl	r12,r12,r9
80006e76:	f2 09 11 01 	rsub	r9,r9,1
80006e7a:	c7 db       	rjmp	80006d74 <__avr32_f32_div+0x24>
80006e7c:	a7 7b       	lsl	r11,0x7
80006e7e:	f6 0a 12 00 	clz	r10,r11
80006e82:	f6 0a 09 4b 	lsl	r11,r11,r10
80006e86:	f4 0a 11 01 	rsub	r10,r10,1
80006e8a:	c8 2b       	rjmp	80006d8e <__avr32_f32_div+0x3e>

80006e8c <__avr32_f32_div_res_subnormal>:
80006e8c:	5c 39       	neg	r9
80006e8e:	2f f9       	sub	r9,-1
80006e90:	f1 b9 04 a0 	satu	r9,0x5
80006e94:	f2 0a 11 20 	rsub	r10,r9,32
80006e98:	ee 09 0a 47 	lsr	r7,r7,r9
80006e9c:	f8 0a 09 46 	lsl	r6,r12,r10
80006ea0:	f8 09 0a 4c 	lsr	r12,r12,r9
80006ea4:	e0 17 ff e0 	andl	r7,0xffe0
80006ea8:	e8 17 00 10 	orl	r7,0x10
80006eac:	ea 07 06 4a 	mulu.d	r10,r5,r7
80006eb0:	30 09       	mov	r9,0
80006eb2:	eb d7 c0 a1 	bfextu	r5,r7,0x5,0x1
80006eb6:	0c 3a       	cp.w	r10,r6
80006eb8:	cb 1b       	rjmp	80006e1a <__avr32_f32_div_round_subnormal>
	...

80006ebc <__avr32_f32_sub_from_add>:
80006ebc:	ee 1b 80 00 	eorh	r11,0x8000

80006ec0 <__avr32_f32_sub>:
80006ec0:	f7 ec 20 08 	eor	r8,r11,r12
80006ec4:	c6 66       	brmi	80006f90 <__avr32_f32_add_from_sub>
80006ec6:	18 98       	mov	r8,r12
80006ec8:	e6 1c 80 00 	andh	r12,0x8000,COH
80006ecc:	bf db       	cbr	r11,0x1f
80006ece:	bf d8       	cbr	r8,0x1f
80006ed0:	f0 0b 0c 4a 	max	r10,r8,r11
80006ed4:	f0 0b 0d 49 	min	r9,r8,r11
80006ed8:	10 3a       	cp.w	r10,r8
80006eda:	f7 bc 01 01 	subne	r12,1
80006ede:	e6 1c 80 00 	andh	r12,0x8000,COH
80006ee2:	f4 08 15 08 	lsl	r8,r10,0x8
80006ee6:	bf b8       	sbr	r8,0x1f
80006ee8:	b7 9a       	lsr	r10,0x17
80006eea:	e0 4a 00 ff 	cp.w	r10,255
80006eee:	c3 90       	breq	80006f60 <__avr32_f32_sub_op1_nan_or_inf>
80006ef0:	f2 0b 15 08 	lsl	r11,r9,0x8
80006ef4:	bf bb       	sbr	r11,0x1f
80006ef6:	b7 99       	lsr	r9,0x17
80006ef8:	1a dc       	st.w	--sp,r12
80006efa:	c2 a0       	breq	80006f4e <__avr32_f32_sub_op2_subnormal>
80006efc:	f4 09 01 0c 	sub	r12,r10,r9
80006f00:	c0 c0       	breq	80006f18 <__avr32_f32_sub_shift_done>
80006f02:	f1 bc 04 a0 	satu	r12,0x5
80006f06:	f8 09 11 20 	rsub	r9,r12,32
80006f0a:	f6 09 09 49 	lsl	r9,r11,r9
80006f0e:	f7 b8 01 01 	subne	r8,1
80006f12:	5f 19       	srne	r9
80006f14:	f6 0c 0a 4b 	lsr	r11,r11,r12

80006f18 <__avr32_f32_sub_shift_done>:
80006f18:	16 18       	sub	r8,r11
80006f1a:	1b 0c       	ld.w	r12,sp++
80006f1c:	f0 0b 12 00 	clz	r11,r8
80006f20:	5e 3d       	retlo	0
80006f22:	f0 0b 09 48 	lsl	r8,r8,r11
80006f26:	16 1a       	sub	r10,r11
80006f28:	e0 8a 00 27 	brle	80006f76 <__avr32_f32_sub_subnormal_result>
80006f2c:	f3 e8 11 89 	or	r9,r9,r8<<0x18
80006f30:	f9 e8 12 8c 	or	r12,r12,r8>>0x8
80006f34:	f9 da d2 e8 	bfins	r12,r10,0x17,0x8

80006f38 <__avr32_f32_sub_round>:
80006f38:	30 0a       	mov	r10,0
80006f3a:	ea 1a 80 00 	orh	r10,0x8000
80006f3e:	ed bc 00 00 	bld	r12,0x0
80006f42:	f7 ba 01 ff 	subne	r10,-1
80006f46:	14 39       	cp.w	r9,r10
80006f48:	f7 bc 02 ff 	subhs	r12,-1
80006f4c:	5e fc       	retal	r12

80006f4e <__avr32_f32_sub_op2_subnormal>:
80006f4e:	bf db       	cbr	r11,0x1f
80006f50:	f9 b9 01 01 	movne	r9,1
80006f54:	58 0a       	cp.w	r10,0
80006f56:	cd 31       	brne	80006efc <__avr32_f32_sub+0x3c>
80006f58:	bf d8       	cbr	r8,0x1f
80006f5a:	f9 ba 01 01 	movne	r10,1
80006f5e:	cc fb       	rjmp	80006efc <__avr32_f32_sub+0x3c>

80006f60 <__avr32_f32_sub_op1_nan_or_inf>:
80006f60:	f0 0b 15 01 	lsl	r11,r8,0x1
80006f64:	5e 1e       	retne	-1
80006f66:	f9 da d2 e8 	bfins	r12,r10,0x17,0x8
80006f6a:	f2 0b 16 17 	lsr	r11,r9,0x17
80006f6e:	e0 4b 00 ff 	cp.w	r11,255
80006f72:	5e 1c       	retne	r12
80006f74:	5e fe       	retal	-1

80006f76 <__avr32_f32_sub_subnormal_result>:
80006f76:	f4 0a 11 09 	rsub	r10,r10,9
80006f7a:	f4 0b 11 20 	rsub	r11,r10,32
80006f7e:	5e 3d       	retlo	0
80006f80:	f0 0a 0a 4a 	lsr	r10,r8,r10
80006f84:	14 4c       	or	r12,r10
80006f86:	f0 0b 09 48 	lsl	r8,r8,r11
80006f8a:	10 49       	or	r9,r8
80006f8c:	cd 6b       	rjmp	80006f38 <__avr32_f32_sub_round>
	...

80006f90 <__avr32_f32_add_from_sub>:
80006f90:	ee 1b 80 00 	eorh	r11,0x8000

80006f94 <__avr32_f32_add>:
80006f94:	f7 ec 20 08 	eor	r8,r11,r12
80006f98:	c9 26       	brmi	80006ebc <__avr32_f32_sub_from_add>
80006f9a:	18 98       	mov	r8,r12
80006f9c:	e6 1c 80 00 	andh	r12,0x8000,COH
80006fa0:	bf db       	cbr	r11,0x1f
80006fa2:	bf d8       	cbr	r8,0x1f
80006fa4:	f0 0b 0c 4a 	max	r10,r8,r11
80006fa8:	f0 0b 0d 49 	min	r9,r8,r11
80006fac:	f4 08 15 08 	lsl	r8,r10,0x8
80006fb0:	bf b8       	sbr	r8,0x1f
80006fb2:	b7 9a       	lsr	r10,0x17
80006fb4:	e0 4a 00 ff 	cp.w	r10,255
80006fb8:	c2 e0       	breq	80007014 <__avr32_f32_add_op1_nan_or_inf>
80006fba:	f2 0b 15 08 	lsl	r11,r9,0x8
80006fbe:	bf bb       	sbr	r11,0x1f
80006fc0:	b7 99       	lsr	r9,0x17
80006fc2:	c1 f0       	breq	80007000 <__avr32_f32_add_op2_subnormal>
80006fc4:	1a dc       	st.w	--sp,r12
80006fc6:	14 29       	rsub	r9,r10
80006fc8:	f1 b9 04 a0 	satu	r9,0x5
80006fcc:	f6 09 0a 4c 	lsr	r12,r11,r9
80006fd0:	f2 09 11 18 	rsub	r9,r9,24
80006fd4:	f6 09 09 4b 	lsl	r11,r11,r9
80006fd8:	f7 dc d3 08 	bfins	r11,r12,0x18,0x8
80006fdc:	18 08       	add	r8,r12
80006fde:	1b 0c       	ld.w	r12,sp++
80006fe0:	c2 73       	brcs	8000702e <__avr32_f32_add_res_of>
80006fe2:	f9 e8 12 8c 	or	r12,r12,r8>>0x8
80006fe6:	f9 da d2 e8 	bfins	r12,r10,0x17,0x8
80006fea:	30 0a       	mov	r10,0
80006fec:	ea 1a 80 00 	orh	r10,0x8000
80006ff0:	ed bc 00 00 	bld	r12,0x0
80006ff4:	f7 ba 01 ff 	subne	r10,-1
80006ff8:	14 3b       	cp.w	r11,r10
80006ffa:	f7 bc 02 ff 	subhs	r12,-1
80006ffe:	5e fc       	retal	r12

80007000 <__avr32_f32_add_op2_subnormal>:
80007000:	bf db       	cbr	r11,0x1f
80007002:	f9 b9 01 01 	movne	r9,1
80007006:	58 0a       	cp.w	r10,0
80007008:	cd e1       	brne	80006fc4 <__avr32_f32_add+0x30>
8000700a:	bf d8       	cbr	r8,0x1f
8000700c:	10 0b       	add	r11,r8
8000700e:	f9 eb 12 8c 	or	r12,r12,r11>>0x8
80007012:	5e fc       	retal	r12

80007014 <__avr32_f32_add_op1_nan_or_inf>:
80007014:	f0 0b 15 01 	lsl	r11,r8,0x1
80007018:	5e 1e       	retne	-1
8000701a:	f9 da d2 e8 	bfins	r12,r10,0x17,0x8
8000701e:	f2 0b 16 17 	lsr	r11,r9,0x17
80007022:	e0 4b 00 ff 	cp.w	r11,255
80007026:	5e 1c       	retne	r12
80007028:	a9 79       	lsl	r9,0x9
8000702a:	5e 0c       	reteq	r12
8000702c:	5e fe       	retal	-1

8000702e <__avr32_f32_add_res_of>:
8000702e:	a1 98       	lsr	r8,0x1
80007030:	2f fa       	sub	r10,-1
80007032:	e0 4a 00 ff 	cp.w	r10,255
80007036:	f9 b8 00 00 	moveq	r8,0
8000703a:	f9 bb 00 00 	moveq	r11,0
8000703e:	cd 2b       	rjmp	80006fe2 <__avr32_f32_add+0x4e>

80007040 <__avr32_f32_mul>:
80007040:	18 98       	mov	r8,r12
80007042:	16 5c       	eor	r12,r11
80007044:	e6 1c 80 00 	andh	r12,0x8000,COH
80007048:	bf d8       	cbr	r8,0x1f
8000704a:	c6 70       	breq	80007118 <__avr32_f32_mul_op1_zero>
8000704c:	bf db       	cbr	r11,0x1f
8000704e:	f0 0b 0c 4a 	max	r10,r8,r11
80007052:	f0 0b 0d 49 	min	r9,r8,r11
80007056:	f4 08 15 08 	lsl	r8,r10,0x8
8000705a:	bf b8       	sbr	r8,0x1f
8000705c:	b7 9a       	lsr	r10,0x17
8000705e:	e0 4a 00 ff 	cp.w	r10,255
80007062:	c3 e0       	breq	800070de <__avr32_f32_mul_op1_nan_or_inf>
80007064:	f2 0b 15 08 	lsl	r11,r9,0x8
80007068:	bf bb       	sbr	r11,0x1f
8000706a:	b7 99       	lsr	r9,0x17
8000706c:	c2 50       	breq	800070b6 <__avr32_f32_mul_op2_subnormal>
8000706e:	14 09       	add	r9,r10
80007070:	f0 0b 06 4a 	mulu.d	r10,r8,r11
80007074:	f6 08 15 01 	lsl	r8,r11,0x1
80007078:	f0 0b 17 20 	movhs	r11,r8
8000707c:	f7 b9 02 01 	subhs	r9,1
80007080:	a9 8a       	lsr	r10,0x8
80007082:	f5 db d3 08 	bfins	r10,r11,0x18,0x8
80007086:	27 e9       	sub	r9,126
80007088:	e0 8a 00 3a 	brle	800070fc <__avr32_f32_mul_res_subnormal>
8000708c:	e0 49 00 ff 	cp.w	r9,255
80007090:	c1 04       	brge	800070b0 <__avr32_f32_mul_round+0x16>
80007092:	f9 eb 12 8c 	or	r12,r12,r11>>0x8
80007096:	f9 d9 d2 e8 	bfins	r12,r9,0x17,0x8

8000709a <__avr32_f32_mul_round>:
8000709a:	30 08       	mov	r8,0
8000709c:	ea 18 80 00 	orh	r8,0x8000
800070a0:	ed bc 00 00 	bld	r12,0x0
800070a4:	f7 b8 01 ff 	subne	r8,-1
800070a8:	10 3a       	cp.w	r10,r8
800070aa:	f7 bc 02 ff 	subhs	r12,-1
800070ae:	5e fc       	retal	r12
800070b0:	ea 1c 7f 80 	orh	r12,0x7f80
800070b4:	5e fc       	retal	r12

800070b6 <__avr32_f32_mul_op2_subnormal>:
800070b6:	bf db       	cbr	r11,0x1f
800070b8:	f6 09 12 00 	clz	r9,r11
800070bc:	5e 3d       	retlo	0
800070be:	20 89       	sub	r9,8
800070c0:	f6 09 09 4b 	lsl	r11,r11,r9
800070c4:	f2 09 11 01 	rsub	r9,r9,1
800070c8:	14 7a       	tst	r10,r10
800070ca:	cd 21       	brne	8000706e <__avr32_f32_mul+0x2e>
800070cc:	bf d8       	cbr	r8,0x1f
800070ce:	f6 0a 12 00 	clz	r10,r11
800070d2:	5e 3d       	retlo	0
800070d4:	f0 0a 09 48 	lsl	r8,r8,r10
800070d8:	f4 0a 11 01 	rsub	r10,r10,1
800070dc:	cc 9b       	rjmp	8000706e <__avr32_f32_mul+0x2e>

800070de <__avr32_f32_mul_op1_nan_or_inf>:
800070de:	f0 0b 15 01 	lsl	r11,r8,0x1
800070e2:	5e 1e       	retne	-1
800070e4:	12 79       	tst	r9,r9
800070e6:	5e 0e       	reteq	-1
800070e8:	f9 da d2 e8 	bfins	r12,r10,0x17,0x8
800070ec:	f2 0b 16 17 	lsr	r11,r9,0x17
800070f0:	e0 4b 00 ff 	cp.w	r11,255
800070f4:	5e 1c       	retne	r12
800070f6:	a9 79       	lsl	r9,0x9
800070f8:	5e 0c       	reteq	r12
800070fa:	5e fe       	retal	-1

800070fc <__avr32_f32_mul_res_subnormal>:
800070fc:	f2 09 11 09 	rsub	r9,r9,9
80007100:	f2 08 11 20 	rsub	r8,r9,32
80007104:	5e 3d       	retlo	0
80007106:	f6 09 0a 49 	lsr	r9,r11,r9
8000710a:	12 4c       	or	r12,r9
8000710c:	f6 08 09 4b 	lsl	r11,r11,r8
80007110:	e4 1a 00 ff 	andh	r10,0xff
80007114:	16 4a       	or	r10,r11
80007116:	cc 2b       	rjmp	8000709a <__avr32_f32_mul_round>

80007118 <__avr32_f32_mul_op1_zero>:
80007118:	f5 db c2 e8 	bfextu	r10,r11,0x17,0x8
8000711c:	e0 4a 00 ff 	cp.w	r10,255
80007120:	5e 1c       	retne	r12
80007122:	5e 0e       	reteq	-1

80007124 <__avr32_s32_to_f32>:
80007124:	58 0c       	cp.w	r12,0
80007126:	5e 0c       	reteq	r12
80007128:	18 9b       	mov	r11,r12
8000712a:	5c 4c       	abs	r12
8000712c:	e0 6a 00 9e 	mov	r10,158
80007130:	f8 09 12 00 	clz	r9,r12
80007134:	12 1a       	sub	r10,r9
80007136:	f8 09 09 4c 	lsl	r12,r12,r9
8000713a:	58 0a       	cp.w	r10,0
8000713c:	e0 8a 00 15 	brle	80007166 <__avr32_s32_to_f32_subnormal>
80007140:	37 f9       	mov	r9,127
80007142:	ed bc 00 08 	bld	r12,0x8
80007146:	f7 b9 00 ff 	subeq	r9,-1
8000714a:	12 0c       	add	r12,r9
8000714c:	f7 ba 03 fe 	sublo	r10,-2
80007150:	ed bc 00 1f 	bld	r12,0x1f
80007154:	f7 ba 01 01 	subne	r10,1
80007158:	f8 0c 16 07 	lsr	r12,r12,0x7
8000715c:	f9 da d3 08 	bfins	r12,r10,0x18,0x8
80007160:	a1 7b       	lsl	r11,0x1
80007162:	5d 0c       	ror	r12
80007164:	5e fc       	retal	r12

80007166 <__avr32_s32_to_f32_subnormal>:
80007166:	f4 0a 11 01 	rsub	r10,r10,1
8000716a:	59 9a       	cp.w	r10,25
8000716c:	f9 bc 02 00 	movhs	r12,0
80007170:	c1 32       	brcc	80007196 <__avr32_s32_to_f32_subnormal+0x30>
80007172:	f4 09 11 20 	rsub	r9,r10,32
80007176:	f8 09 09 49 	lsl	r9,r12,r9
8000717a:	5f 19       	srne	r9
8000717c:	f8 0a 0a 4c 	lsr	r12,r12,r10
80007180:	12 4c       	or	r12,r9
80007182:	37 f9       	mov	r9,127
80007184:	ed bc 00 08 	bld	r12,0x8
80007188:	f7 b9 00 ff 	subeq	r9,-1
8000718c:	12 0c       	add	r12,r9
8000718e:	f8 0c 16 07 	lsr	r12,r12,0x7
80007192:	a1 7b       	lsl	r11,0x1
80007194:	5d 0c       	ror	r12
80007196:	5e fc       	retal	r12

80007198 <__avr32_f32_to_s32>:
80007198:	f7 dc c2 e8 	bfextu	r11,r12,0x17,0x8
8000719c:	27 fb       	sub	r11,127
8000719e:	5e 3d       	retlo	0
800071a0:	f6 0b 11 1f 	rsub	r11,r11,31
800071a4:	f8 0a 15 08 	lsl	r10,r12,0x8
800071a8:	bf ba       	sbr	r10,0x1f
800071aa:	f4 0b 0a 4a 	lsr	r10,r10,r11
800071ae:	a1 7c       	lsl	r12,0x1
800071b0:	5e 2a       	reths	r10
800071b2:	5c 3a       	neg	r10
800071b4:	5e fa       	retal	r10

800071b6 <__avr32_f32_to_f64>:
800071b6:	f8 0b 15 01 	lsl	r11,r12,0x1
800071ba:	f9 ba 00 00 	moveq	r10,0
800071be:	5e 0b       	reteq	r11
800071c0:	f3 db c3 08 	bfextu	r9,r11,0x18,0x8
800071c4:	e0 49 00 ff 	cp.w	r9,255
800071c8:	c1 e0       	breq	80007204 <__extendsfdf_return_op1+0x6>
800071ca:	a7 7b       	lsl	r11,0x7
800071cc:	30 0a       	mov	r10,0
800071ce:	58 09       	cp.w	r9,0
800071d0:	f7 b9 00 ff 	subeq	r9,-1
800071d4:	5f 18       	srne	r8
800071d6:	f7 e8 11 fb 	or	r11,r11,r8<<0x1f
800071da:	fe 39 fc 80 	sub	r9,-896
800071de:	f6 08 12 00 	clz	r8,r11
800071e2:	10 19       	sub	r9,r8
800071e4:	f6 08 09 4b 	lsl	r11,r11,r8
800071e8:	ed bb 00 1f 	bld	r11,0x1f
800071ec:	f7 b9 01 01 	subne	r9,1
800071f0:	ab 9a       	lsr	r10,0xb
800071f2:	f5 eb 11 5a 	or	r10,r10,r11<<0x15
800071f6:	a1 7b       	lsl	r11,0x1
800071f8:	ab 9b       	lsr	r11,0xb
800071fa:	f7 e9 11 5b 	or	r11,r11,r9<<0x15

800071fe <__extendsfdf_return_op1>:
800071fe:	a1 7c       	lsl	r12,0x1
80007200:	5d 0b       	ror	r11
80007202:	5e fb       	retal	r11
80007204:	30 0a       	mov	r10,0
80007206:	ea 1a ff e0 	orh	r10,0xffe0
8000720a:	a9 6b       	lsl	r11,0x8
8000720c:	f9 bb 01 ff 	movne	r11,-1
80007210:	f4 0b 17 00 	moveq	r11,r10
80007214:	30 0a       	mov	r10,0
80007216:	cf 4b       	rjmp	800071fe <__extendsfdf_return_op1>

80007218 <__avr32_f64_to_f32>:
80007218:	f6 09 15 01 	lsl	r9,r11,0x1
8000721c:	b5 99       	lsr	r9,0x15
8000721e:	5e 0d       	reteq	0
80007220:	f6 08 15 0a 	lsl	r8,r11,0xa
80007224:	f1 ea 13 6c 	or	r12,r8,r10>>0x16
80007228:	ab 6a       	lsl	r10,0xa
8000722a:	5c 3a       	neg	r10
8000722c:	5c fc       	rol	r12
8000722e:	e0 49 07 ff 	cp.w	r9,2047
80007232:	c1 a0       	breq	80007266 <__truncdfsf_return_op1+0x6>
80007234:	e0 29 03 80 	sub	r9,896
80007238:	bf bc       	sbr	r12,0x1f
8000723a:	58 09       	cp.w	r9,0
8000723c:	e0 8a 00 1b 	brle	80007272 <__truncdfsf_return_op1+0x12>
80007240:	37 fa       	mov	r10,127
80007242:	ed bc 00 08 	bld	r12,0x8
80007246:	f7 ba 00 ff 	subeq	r10,-1
8000724a:	14 0c       	add	r12,r10
8000724c:	f7 b9 03 fe 	sublo	r9,-2
80007250:	ed bc 00 1f 	bld	r12,0x1f
80007254:	f7 b9 01 01 	subne	r9,1
80007258:	f8 0c 16 07 	lsr	r12,r12,0x7
8000725c:	f9 d9 d3 08 	bfins	r12,r9,0x18,0x8

80007260 <__truncdfsf_return_op1>:
80007260:	a1 7b       	lsl	r11,0x1
80007262:	5d 0c       	ror	r12
80007264:	5e fc       	retal	r12
80007266:	bf dc       	cbr	r12,0x1f
80007268:	5e 1e       	retne	-1
8000726a:	30 0c       	mov	r12,0
8000726c:	ea 1c 7f 80 	orh	r12,0x7f80
80007270:	5e fc       	retal	r12
80007272:	f2 09 11 01 	rsub	r9,r9,1
80007276:	59 99       	cp.w	r9,25
80007278:	f9 bc 02 00 	movhs	r12,0
8000727c:	c1 32       	brcc	800072a2 <__truncdfsf_return_op1+0x42>
8000727e:	f2 0a 11 20 	rsub	r10,r9,32
80007282:	f8 0a 09 4a 	lsl	r10,r12,r10
80007286:	5f 1a       	srne	r10
80007288:	f8 09 0a 4c 	lsr	r12,r12,r9
8000728c:	14 4c       	or	r12,r10
8000728e:	37 fa       	mov	r10,127
80007290:	ed bc 00 08 	bld	r12,0x8
80007294:	f7 ba 00 ff 	subeq	r10,-1
80007298:	14 0c       	add	r12,r10
8000729a:	f8 0c 16 07 	lsr	r12,r12,0x7
8000729e:	a1 7b       	lsl	r11,0x1
800072a0:	5d 0c       	ror	r12
800072a2:	5e fc       	retal	r12

800072a4 <_Unwind_SjLj_Register>:
800072a4:	48 38       	lddpc	r8,800072b0 <_Unwind_SjLj_Register+0xc>
800072a6:	70 09       	ld.w	r9,r8[0x0]
800072a8:	99 09       	st.w	r12[0x0],r9
800072aa:	91 0c       	st.w	r8[0x0],r12
800072ac:	5e fc       	retal	r12
800072ae:	00 00       	add	r0,r0
800072b0:	00 00       	add	r0,r0
800072b2:	0f 48       	ld.w	r8,--r7

800072b4 <_Unwind_SjLj_Unregister>:
800072b4:	78 09       	ld.w	r9,r12[0x0]
800072b6:	48 28       	lddpc	r8,800072bc <_Unwind_SjLj_Unregister+0x8>
800072b8:	91 09       	st.w	r8[0x0],r9
800072ba:	5e fc       	retal	r12
800072bc:	00 00       	add	r0,r0
800072be:	0f 48       	ld.w	r8,--r7

800072c0 <_Unwind_GetGR>:
800072c0:	78 08       	ld.w	r8,r12[0x0]
800072c2:	2f eb       	sub	r11,-2
800072c4:	f0 0b 03 2c 	ld.w	r12,r8[r11<<0x2]
800072c8:	5e fc       	retal	r12

800072ca <_Unwind_GetCFA>:
800072ca:	78 0c       	ld.w	r12,r12[0x0]
800072cc:	58 0c       	cp.w	r12,0
800072ce:	5e 0c       	reteq	r12
800072d0:	78 ac       	ld.w	r12,r12[0x28]
800072d2:	5e fc       	retal	r12

800072d4 <_Unwind_SetGR>:
800072d4:	78 08       	ld.w	r8,r12[0x0]
800072d6:	2f eb       	sub	r11,-2
800072d8:	f0 0b 09 2a 	st.w	r8[r11<<0x2],r10
800072dc:	5e fc       	retal	r12

800072de <_Unwind_GetIP>:
800072de:	78 08       	ld.w	r8,r12[0x0]
800072e0:	70 1c       	ld.w	r12,r8[0x4]
800072e2:	2f fc       	sub	r12,-1
800072e4:	5e fc       	retal	r12

800072e6 <_Unwind_GetIPInfo>:
800072e6:	30 08       	mov	r8,0
800072e8:	97 08       	st.w	r11[0x0],r8
800072ea:	78 0c       	ld.w	r12,r12[0x0]
800072ec:	58 0c       	cp.w	r12,0
800072ee:	5e 0c       	reteq	r12
800072f0:	78 1c       	ld.w	r12,r12[0x4]
800072f2:	2f fc       	sub	r12,-1
800072f4:	5e fc       	retal	r12

800072f6 <_Unwind_SetIP>:
800072f6:	78 08       	ld.w	r8,r12[0x0]
800072f8:	20 1b       	sub	r11,1
800072fa:	91 1b       	st.w	r8[0x4],r11
800072fc:	5e fc       	retal	r12

800072fe <_Unwind_GetLanguageSpecificData>:
800072fe:	78 08       	ld.w	r8,r12[0x0]
80007300:	70 7c       	ld.w	r12,r8[0x1c]
80007302:	5e fc       	retal	r12

80007304 <_Unwind_GetRegionStart>:
80007304:	5e fd       	retal	0

80007306 <_Unwind_FindEnclosingFunction>:
80007306:	5e fd       	retal	0

80007308 <_Unwind_GetDataRelBase>:
80007308:	5e fd       	retal	0

8000730a <_Unwind_GetTextRelBase>:
8000730a:	5e fd       	retal	0

8000730c <_Unwind_ForcedUnwind_Phase2>:
8000730c:	d4 31       	pushm	r0-r7,lr
8000730e:	30 03       	mov	r3,0
80007310:	18 95       	mov	r5,r12
80007312:	16 96       	mov	r6,r11
80007314:	78 32       	ld.w	r2,r12[0xc]
80007316:	78 41       	ld.w	r1,r12[0x10]
80007318:	49 d0       	lddpc	r0,8000738c <_Unwind_ForcedUnwind_Phase2+0x80>
8000731a:	6c 04       	ld.w	r4,r6[0x0]
8000731c:	58 04       	cp.w	r4,0
8000731e:	c0 31       	brne	80007324 <_Unwind_ForcedUnwind_Phase2+0x18>
80007320:	30 57       	mov	r7,5
80007322:	c0 38       	rjmp	80007328 <_Unwind_ForcedUnwind_Phase2+0x1c>
80007324:	68 64       	ld.w	r4,r4[0x18]
80007326:	30 07       	mov	r7,0
80007328:	58 57       	cp.w	r7,5
8000732a:	5f 19       	srne	r9
8000732c:	58 07       	cp.w	r7,0
8000732e:	5f 18       	srne	r8
80007330:	f3 e8 00 08 	and	r8,r9,r8
80007334:	e6 08 18 00 	cp.b	r8,r3
80007338:	c2 61       	brne	80007384 <_Unwind_ForcedUnwind_Phase2+0x78>
8000733a:	1a d1       	st.w	--sp,r1
8000733c:	58 57       	cp.w	r7,5
8000733e:	f9 bb 01 0a 	movne	r11,10
80007342:	f9 bb 00 1a 	moveq	r11,26
80007346:	1a d6       	st.w	--sp,r6
80007348:	0a 9a       	mov	r10,r5
8000734a:	ea e8 00 00 	ld.d	r8,r5[0]
8000734e:	30 1c       	mov	r12,1
80007350:	5d 12       	icall	r2
80007352:	2f ed       	sub	sp,-8
80007354:	58 0c       	cp.w	r12,0
80007356:	c1 71       	brne	80007384 <_Unwind_ForcedUnwind_Phase2+0x78>
80007358:	58 57       	cp.w	r7,5
8000735a:	c1 60       	breq	80007386 <_Unwind_ForcedUnwind_Phase2+0x7a>
8000735c:	58 04       	cp.w	r4,0
8000735e:	c0 e0       	breq	8000737a <_Unwind_ForcedUnwind_Phase2+0x6e>
80007360:	1a d6       	st.w	--sp,r6
80007362:	0a 9a       	mov	r10,r5
80007364:	ea e8 00 00 	ld.d	r8,r5[0]
80007368:	30 ab       	mov	r11,10
8000736a:	30 1c       	mov	r12,1
8000736c:	5d 14       	icall	r4
8000736e:	2f fd       	sub	sp,-4
80007370:	18 97       	mov	r7,r12
80007372:	58 7c       	cp.w	r12,7
80007374:	c0 90       	breq	80007386 <_Unwind_ForcedUnwind_Phase2+0x7a>
80007376:	58 8c       	cp.w	r12,8
80007378:	c0 61       	brne	80007384 <_Unwind_ForcedUnwind_Phase2+0x78>
8000737a:	6c 08       	ld.w	r8,r6[0x0]
8000737c:	70 08       	ld.w	r8,r8[0x0]
8000737e:	81 08       	st.w	r0[0x0],r8
80007380:	8d 08       	st.w	r6[0x0],r8
80007382:	cc cb       	rjmp	8000731a <_Unwind_ForcedUnwind_Phase2+0xe>
80007384:	30 27       	mov	r7,2
80007386:	0e 9c       	mov	r12,r7
80007388:	d8 32       	popm	r0-r7,pc
8000738a:	00 00       	add	r0,r0
8000738c:	00 00       	add	r0,r0
8000738e:	0f 48       	ld.w	r8,--r7

80007390 <_Unwind_DeleteException>:
80007390:	d4 01       	pushm	lr
80007392:	18 9b       	mov	r11,r12
80007394:	78 28       	ld.w	r8,r12[0x8]
80007396:	58 08       	cp.w	r8,0
80007398:	c0 30       	breq	8000739e <_Unwind_DeleteException+0xe>
8000739a:	30 1c       	mov	r12,1
8000739c:	5d 18       	icall	r8
8000739e:	d8 02       	popm	pc

800073a0 <_Unwind_Backtrace>:
800073a0:	d4 31       	pushm	r0-r7,lr
800073a2:	20 1d       	sub	sp,4
800073a4:	49 38       	lddpc	r8,800073f0 <_Unwind_Backtrace+0x50>
800073a6:	fa c7 ff fc 	sub	r7,sp,-4
800073aa:	70 08       	ld.w	r8,r8[0x0]
800073ac:	18 93       	mov	r3,r12
800073ae:	16 94       	mov	r4,r11
800073b0:	0e d8       	st.w	--r7,r8
800073b2:	30 05       	mov	r5,0
800073b4:	40 06       	lddsp	r6,sp[0x0]
800073b6:	58 06       	cp.w	r6,0
800073b8:	f9 b6 00 05 	moveq	r6,5
800073bc:	f9 b6 01 00 	movne	r6,0
800073c0:	58 56       	cp.w	r6,5
800073c2:	5f 19       	srne	r9
800073c4:	58 06       	cp.w	r6,0
800073c6:	5f 18       	srne	r8
800073c8:	f3 e8 00 08 	and	r8,r9,r8
800073cc:	ea 08 18 00 	cp.b	r8,r5
800073d0:	c0 b1       	brne	800073e6 <_Unwind_Backtrace+0x46>
800073d2:	08 9b       	mov	r11,r4
800073d4:	1a 9c       	mov	r12,sp
800073d6:	5d 13       	icall	r3
800073d8:	c0 71       	brne	800073e6 <_Unwind_Backtrace+0x46>
800073da:	58 56       	cp.w	r6,5
800073dc:	c0 60       	breq	800073e8 <_Unwind_Backtrace+0x48>
800073de:	40 08       	lddsp	r8,sp[0x0]
800073e0:	70 08       	ld.w	r8,r8[0x0]
800073e2:	50 08       	stdsp	sp[0x0],r8
800073e4:	ce 8b       	rjmp	800073b4 <_Unwind_Backtrace+0x14>
800073e6:	30 36       	mov	r6,3
800073e8:	0c 9c       	mov	r12,r6
800073ea:	2f fd       	sub	sp,-4
800073ec:	d8 32       	popm	r0-r7,pc
800073ee:	00 00       	add	r0,r0
800073f0:	00 00       	add	r0,r0
800073f2:	0f 48       	ld.w	r8,--r7

800073f4 <_Unwind_RaiseException_Phase2>:
800073f4:	d4 21       	pushm	r4-r7,lr
800073f6:	18 96       	mov	r6,r12
800073f8:	16 97       	mov	r7,r11
800073fa:	6e 08       	ld.w	r8,r7[0x0]
800073fc:	58 08       	cp.w	r8,0
800073fe:	c0 41       	brne	80007406 <_Unwind_RaiseException_Phase2+0x12>
80007400:	10 95       	mov	r5,r8
80007402:	30 59       	mov	r9,5
80007404:	c0 38       	rjmp	8000740a <_Unwind_RaiseException_Phase2+0x16>
80007406:	70 65       	ld.w	r5,r8[0x18]
80007408:	30 09       	mov	r9,0
8000740a:	6c 44       	ld.w	r4,r6[0x10]
8000740c:	08 38       	cp.w	r8,r4
8000740e:	f9 b4 00 04 	moveq	r4,4
80007412:	f9 b4 01 00 	movne	r4,0
80007416:	58 09       	cp.w	r9,0
80007418:	c1 81       	brne	80007448 <_Unwind_RaiseException_Phase2+0x54>
8000741a:	58 05       	cp.w	r5,0
8000741c:	c0 e0       	breq	80007438 <_Unwind_RaiseException_Phase2+0x44>
8000741e:	1a d7       	st.w	--sp,r7
80007420:	0c 9a       	mov	r10,r6
80007422:	ec e8 00 00 	ld.d	r8,r6[0]
80007426:	08 9b       	mov	r11,r4
80007428:	30 1c       	mov	r12,1
8000742a:	a1 bb       	sbr	r11,0x1
8000742c:	5d 15       	icall	r5
8000742e:	2f fd       	sub	sp,-4
80007430:	58 7c       	cp.w	r12,7
80007432:	c0 c0       	breq	8000744a <_Unwind_RaiseException_Phase2+0x56>
80007434:	58 8c       	cp.w	r12,8
80007436:	c0 91       	brne	80007448 <_Unwind_RaiseException_Phase2+0x54>
80007438:	58 04       	cp.w	r4,0
8000743a:	c0 30       	breq	80007440 <_Unwind_RaiseException_Phase2+0x4c>
8000743c:	f0 1f 00 04 	mcall	8000744c <_Unwind_RaiseException_Phase2+0x58>
80007440:	6e 08       	ld.w	r8,r7[0x0]
80007442:	70 08       	ld.w	r8,r8[0x0]
80007444:	8f 08       	st.w	r7[0x0],r8
80007446:	cd ab       	rjmp	800073fa <_Unwind_RaiseException_Phase2+0x6>
80007448:	30 2c       	mov	r12,2
8000744a:	d8 22       	popm	r4-r7,pc
8000744c:	80 00       	ld.sh	r0,r0[0x0]
8000744e:	75 70       	ld.w	r0,r10[0x5c]

80007450 <uw_install_context>:
80007450:	d4 21       	pushm	r4-r7,lr
80007452:	76 09       	ld.w	r9,r11[0x0]
80007454:	1a 97       	mov	r7,sp
80007456:	f2 c8 ff e0 	sub	r8,r9,-32
8000745a:	48 4a       	lddpc	r10,80007468 <uw_install_context+0x18>
8000745c:	95 09       	st.w	r10[0x0],r9
8000745e:	70 19       	ld.w	r9,r8[0x4]
80007460:	70 07       	ld.w	r7,r8[0x0]
80007462:	70 2d       	ld.w	sp,r8[0x8]
80007464:	12 9f       	mov	pc,r9
80007466:	00 00       	add	r0,r0
80007468:	00 00       	add	r0,r0
8000746a:	0f 48       	ld.w	r8,--r7

8000746c <_Unwind_SjLj_Resume>:
8000746c:	d4 01       	pushm	lr
8000746e:	20 2d       	sub	sp,8
80007470:	48 a8       	lddpc	r8,80007498 <_Unwind_SjLj_Resume+0x2c>
80007472:	70 08       	ld.w	r8,r8[0x0]
80007474:	50 08       	stdsp	sp[0x0],r8
80007476:	50 18       	stdsp	sp[0x4],r8
80007478:	1a 9b       	mov	r11,sp
8000747a:	78 38       	ld.w	r8,r12[0xc]
8000747c:	58 08       	cp.w	r8,0
8000747e:	c0 31       	brne	80007484 <_Unwind_SjLj_Resume+0x18>
80007480:	cb af       	rcall	800073f4 <_Unwind_RaiseException_Phase2>
80007482:	c0 38       	rjmp	80007488 <_Unwind_SjLj_Resume+0x1c>
80007484:	1a 9b       	mov	r11,sp
80007486:	c4 3f       	rcall	8000730c <_Unwind_ForcedUnwind_Phase2>
80007488:	58 7c       	cp.w	r12,7
8000748a:	c0 30       	breq	80007490 <_Unwind_SjLj_Resume+0x24>
8000748c:	f0 1f 00 04 	mcall	8000749c <_Unwind_SjLj_Resume+0x30>
80007490:	1a 9b       	mov	r11,sp
80007492:	fa cc ff fc 	sub	r12,sp,-4
80007496:	cd df       	rcall	80007450 <uw_install_context>
80007498:	00 00       	add	r0,r0
8000749a:	0f 48       	ld.w	r8,--r7
8000749c:	80 00       	ld.sh	r0,r0[0x0]
8000749e:	75 70       	ld.w	r0,r10[0x5c]

800074a0 <_Unwind_SjLj_ForcedUnwind>:
800074a0:	d4 21       	pushm	r4-r7,lr
800074a2:	20 2d       	sub	sp,8
800074a4:	48 98       	lddpc	r8,800074c8 <_Unwind_SjLj_ForcedUnwind+0x28>
800074a6:	70 08       	ld.w	r8,r8[0x0]
800074a8:	99 3b       	st.w	r12[0xc],r11
800074aa:	99 4a       	st.w	r12[0x10],r10
800074ac:	50 08       	stdsp	sp[0x0],r8
800074ae:	50 18       	stdsp	sp[0x4],r8
800074b0:	1a 97       	mov	r7,sp
800074b2:	1a 9b       	mov	r11,sp
800074b4:	c2 cf       	rcall	8000730c <_Unwind_ForcedUnwind_Phase2>
800074b6:	58 7c       	cp.w	r12,7
800074b8:	c0 30       	breq	800074be <_Unwind_SjLj_ForcedUnwind+0x1e>
800074ba:	2f ed       	sub	sp,-8
800074bc:	d8 22       	popm	r4-r7,pc
800074be:	1a 9b       	mov	r11,sp
800074c0:	fa cc ff fc 	sub	r12,sp,-4
800074c4:	cc 6f       	rcall	80007450 <uw_install_context>
800074c6:	00 00       	add	r0,r0
800074c8:	00 00       	add	r0,r0
800074ca:	0f 48       	ld.w	r8,--r7

800074cc <_Unwind_SjLj_RaiseException>:
800074cc:	d4 21       	pushm	r4-r7,lr
800074ce:	20 2d       	sub	sp,8
800074d0:	49 88       	lddpc	r8,80007530 <_Unwind_SjLj_RaiseException+0x64>
800074d2:	18 97       	mov	r7,r12
800074d4:	70 08       	ld.w	r8,r8[0x0]
800074d6:	1a 95       	mov	r5,sp
800074d8:	50 08       	stdsp	sp[0x0],r8
800074da:	50 18       	stdsp	sp[0x4],r8
800074dc:	40 08       	lddsp	r8,sp[0x0]
800074de:	58 08       	cp.w	r8,0
800074e0:	c2 50       	breq	8000752a <_Unwind_SjLj_RaiseException+0x5e>
800074e2:	70 66       	ld.w	r6,r8[0x18]
800074e4:	58 06       	cp.w	r6,0
800074e6:	c0 f0       	breq	80007504 <_Unwind_SjLj_RaiseException+0x38>
800074e8:	1a d5       	st.w	--sp,r5
800074ea:	30 1b       	mov	r11,1
800074ec:	0e 9a       	mov	r10,r7
800074ee:	ee e8 00 00 	ld.d	r8,r7[0]
800074f2:	16 9c       	mov	r12,r11
800074f4:	5d 16       	icall	r6
800074f6:	2f fd       	sub	sp,-4
800074f8:	58 6c       	cp.w	r12,6
800074fa:	c0 90       	breq	8000750c <_Unwind_SjLj_RaiseException+0x40>
800074fc:	58 8c       	cp.w	r12,8
800074fe:	c0 30       	breq	80007504 <_Unwind_SjLj_RaiseException+0x38>
80007500:	30 3c       	mov	r12,3
80007502:	c1 58       	rjmp	8000752c <_Unwind_SjLj_RaiseException+0x60>
80007504:	40 08       	lddsp	r8,sp[0x0]
80007506:	70 08       	ld.w	r8,r8[0x0]
80007508:	50 08       	stdsp	sp[0x0],r8
8000750a:	ce 9b       	rjmp	800074dc <_Unwind_SjLj_RaiseException+0x10>
8000750c:	40 08       	lddsp	r8,sp[0x0]
8000750e:	8f 48       	st.w	r7[0x10],r8
80007510:	40 18       	lddsp	r8,sp[0x4]
80007512:	50 08       	stdsp	sp[0x0],r8
80007514:	30 08       	mov	r8,0
80007516:	0e 9c       	mov	r12,r7
80007518:	8f 38       	st.w	r7[0xc],r8
8000751a:	1a 9b       	mov	r11,sp
8000751c:	c6 cf       	rcall	800073f4 <_Unwind_RaiseException_Phase2>
8000751e:	58 7c       	cp.w	r12,7
80007520:	c0 61       	brne	8000752c <_Unwind_SjLj_RaiseException+0x60>
80007522:	1a 9b       	mov	r11,sp
80007524:	fa cc ff fc 	sub	r12,sp,-4
80007528:	c9 4f       	rcall	80007450 <uw_install_context>
8000752a:	30 5c       	mov	r12,5
8000752c:	2f ed       	sub	sp,-8
8000752e:	d8 22       	popm	r4-r7,pc
80007530:	00 00       	add	r0,r0
80007532:	0f 48       	ld.w	r8,--r7

80007534 <_Unwind_SjLj_Resume_or_Rethrow>:
80007534:	d4 21       	pushm	r4-r7,lr
80007536:	20 2d       	sub	sp,8
80007538:	78 38       	ld.w	r8,r12[0xc]
8000753a:	58 08       	cp.w	r8,0
8000753c:	c0 51       	brne	80007546 <_Unwind_SjLj_Resume_or_Rethrow+0x12>
8000753e:	f0 1f 00 0a 	mcall	80007564 <_Unwind_SjLj_Resume_or_Rethrow+0x30>
80007542:	2f ed       	sub	sp,-8
80007544:	d8 22       	popm	r4-r7,pc
80007546:	48 98       	lddpc	r8,80007568 <_Unwind_SjLj_Resume_or_Rethrow+0x34>
80007548:	70 08       	ld.w	r8,r8[0x0]
8000754a:	1a 9b       	mov	r11,sp
8000754c:	50 08       	stdsp	sp[0x0],r8
8000754e:	50 18       	stdsp	sp[0x4],r8
80007550:	cd ee       	rcall	8000730c <_Unwind_ForcedUnwind_Phase2>
80007552:	58 7c       	cp.w	r12,7
80007554:	c0 30       	breq	8000755a <_Unwind_SjLj_Resume_or_Rethrow+0x26>
80007556:	f0 1f 00 06 	mcall	8000756c <_Unwind_SjLj_Resume_or_Rethrow+0x38>
8000755a:	1a 9b       	mov	r11,sp
8000755c:	fa cc ff fc 	sub	r12,sp,-4
80007560:	c7 8f       	rcall	80007450 <uw_install_context>
80007562:	00 00       	add	r0,r0
80007564:	80 00       	ld.sh	r0,r0[0x0]
80007566:	74 cc       	ld.w	r12,r10[0x30]
80007568:	00 00       	add	r0,r0
8000756a:	0f 48       	ld.w	r8,--r7
8000756c:	80 00       	ld.sh	r0,r0[0x0]
8000756e:	75 70       	ld.w	r0,r10[0x5c]

80007570 <abort>:
80007570:	d4 01       	pushm	lr
80007572:	30 6c       	mov	r12,6
80007574:	f0 1f 00 03 	mcall	80007580 <abort+0x10>
80007578:	30 1c       	mov	r12,1
8000757a:	f0 1f 00 03 	mcall	80007584 <abort+0x14>
8000757e:	00 00       	add	r0,r0
80007580:	80 00       	ld.sh	r0,r0[0x0]
80007582:	84 24       	ld.sh	r4,r2[0x4]
80007584:	80 00       	ld.sh	r0,r0[0x0]
80007586:	85 aa       	st.w	r2[0x28],r10

80007588 <_fputc_r>:
80007588:	d4 21       	pushm	r4-r7,lr
8000758a:	20 2d       	sub	sp,8
8000758c:	18 97       	mov	r7,r12
8000758e:	58 0c       	cp.w	r12,0
80007590:	c0 a0       	breq	800075a4 <_fputc_r+0x1c>
80007592:	78 68       	ld.w	r8,r12[0x18]
80007594:	58 08       	cp.w	r8,0
80007596:	c0 71       	brne	800075a4 <_fputc_r+0x1c>
80007598:	50 1b       	stdsp	sp[0x4],r11
8000759a:	50 0a       	stdsp	sp[0x0],r10
8000759c:	f0 1f 00 0c 	mcall	800075cc <_fputc_r+0x44>
800075a0:	40 0a       	lddsp	r10,sp[0x0]
800075a2:	40 1b       	lddsp	r11,sp[0x4]
800075a4:	48 b8       	lddpc	r8,800075d0 <_fputc_r+0x48>
800075a6:	10 3a       	cp.w	r10,r8
800075a8:	c0 31       	brne	800075ae <_fputc_r+0x26>
800075aa:	6e 0a       	ld.w	r10,r7[0x0]
800075ac:	c0 a8       	rjmp	800075c0 <_fputc_r+0x38>
800075ae:	48 a8       	lddpc	r8,800075d4 <_fputc_r+0x4c>
800075b0:	10 3a       	cp.w	r10,r8
800075b2:	c0 31       	brne	800075b8 <_fputc_r+0x30>
800075b4:	6e 1a       	ld.w	r10,r7[0x4]
800075b6:	c0 58       	rjmp	800075c0 <_fputc_r+0x38>
800075b8:	48 88       	lddpc	r8,800075d8 <_fputc_r+0x50>
800075ba:	10 3a       	cp.w	r10,r8
800075bc:	c0 21       	brne	800075c0 <_fputc_r+0x38>
800075be:	6e 2a       	ld.w	r10,r7[0x8]
800075c0:	0e 9c       	mov	r12,r7
800075c2:	f0 1f 00 07 	mcall	800075dc <_fputc_r+0x54>
800075c6:	2f ed       	sub	sp,-8
800075c8:	d8 22       	popm	r4-r7,pc
800075ca:	00 00       	add	r0,r0
800075cc:	80 00       	ld.sh	r0,r0[0x0]
800075ce:	bb 18       	ld.d	r8,--sp
800075d0:	80 00       	ld.sh	r0,r0[0x0]
800075d2:	df 64       	*unknown*
800075d4:	80 00       	ld.sh	r0,r0[0x0]
800075d6:	df 84       	*unknown*
800075d8:	80 00       	ld.sh	r0,r0[0x0]
800075da:	df a4       	*unknown*
800075dc:	80 00       	ld.sh	r0,r0[0x0]
800075de:	80 20       	ld.sh	r0,r0[0x4]

800075e0 <fputc>:
800075e0:	d4 01       	pushm	lr
800075e2:	48 48       	lddpc	r8,800075f0 <fputc+0x10>
800075e4:	16 9a       	mov	r10,r11
800075e6:	18 9b       	mov	r11,r12
800075e8:	70 0c       	ld.w	r12,r8[0x0]
800075ea:	f0 1f 00 03 	mcall	800075f4 <fputc+0x14>
800075ee:	d8 02       	popm	pc
800075f0:	00 00       	add	r0,r0
800075f2:	01 c4       	ld.ub	r4,r0[0x4]
800075f4:	80 00       	ld.sh	r0,r0[0x0]
800075f6:	75 88       	ld.w	r8,r10[0x60]

800075f8 <_fputs_r>:
800075f8:	d4 21       	pushm	r4-r7,lr
800075fa:	20 5d       	sub	sp,20
800075fc:	18 97       	mov	r7,r12
800075fe:	14 96       	mov	r6,r10
80007600:	50 3b       	stdsp	sp[0xc],r11
80007602:	16 9c       	mov	r12,r11
80007604:	f0 1f 00 13 	mcall	80007650 <_fputs_r+0x58>
80007608:	fa c8 ff f4 	sub	r8,sp,-12
8000760c:	50 4c       	stdsp	sp[0x10],r12
8000760e:	50 08       	stdsp	sp[0x0],r8
80007610:	50 2c       	stdsp	sp[0x8],r12
80007612:	30 18       	mov	r8,1
80007614:	50 18       	stdsp	sp[0x4],r8
80007616:	58 07       	cp.w	r7,0
80007618:	c0 70       	breq	80007626 <_fputs_r+0x2e>
8000761a:	6e 68       	ld.w	r8,r7[0x18]
8000761c:	58 08       	cp.w	r8,0
8000761e:	c0 41       	brne	80007626 <_fputs_r+0x2e>
80007620:	0e 9c       	mov	r12,r7
80007622:	f0 1f 00 0d 	mcall	80007654 <_fputs_r+0x5c>
80007626:	48 d8       	lddpc	r8,80007658 <_fputs_r+0x60>
80007628:	10 36       	cp.w	r6,r8
8000762a:	c0 31       	brne	80007630 <_fputs_r+0x38>
8000762c:	6e 06       	ld.w	r6,r7[0x0]
8000762e:	c0 a8       	rjmp	80007642 <_fputs_r+0x4a>
80007630:	48 b8       	lddpc	r8,8000765c <_fputs_r+0x64>
80007632:	10 36       	cp.w	r6,r8
80007634:	c0 31       	brne	8000763a <_fputs_r+0x42>
80007636:	6e 16       	ld.w	r6,r7[0x4]
80007638:	c0 58       	rjmp	80007642 <_fputs_r+0x4a>
8000763a:	48 a8       	lddpc	r8,80007660 <_fputs_r+0x68>
8000763c:	10 36       	cp.w	r6,r8
8000763e:	c0 21       	brne	80007642 <_fputs_r+0x4a>
80007640:	6e 26       	ld.w	r6,r7[0x8]
80007642:	0c 9b       	mov	r11,r6
80007644:	0e 9c       	mov	r12,r7
80007646:	1a 9a       	mov	r10,sp
80007648:	f0 1f 00 07 	mcall	80007664 <_fputs_r+0x6c>
8000764c:	2f bd       	sub	sp,-20
8000764e:	d8 22       	popm	r4-r7,pc
80007650:	80 00       	ld.sh	r0,r0[0x0]
80007652:	85 6e       	st.w	r2[0x18],lr
80007654:	80 00       	ld.sh	r0,r0[0x0]
80007656:	bb 18       	ld.d	r8,--sp
80007658:	80 00       	ld.sh	r0,r0[0x0]
8000765a:	df 64       	*unknown*
8000765c:	80 00       	ld.sh	r0,r0[0x0]
8000765e:	df 84       	*unknown*
80007660:	80 00       	ld.sh	r0,r0[0x0]
80007662:	df a4       	*unknown*
80007664:	80 00       	ld.sh	r0,r0[0x0]
80007666:	76 80       	ld.w	r0,r11[0x20]

80007668 <fputs>:
80007668:	d4 01       	pushm	lr
8000766a:	48 48       	lddpc	r8,80007678 <fputs+0x10>
8000766c:	16 9a       	mov	r10,r11
8000766e:	18 9b       	mov	r11,r12
80007670:	70 0c       	ld.w	r12,r8[0x0]
80007672:	f0 1f 00 03 	mcall	8000767c <fputs+0x14>
80007676:	d8 02       	popm	pc
80007678:	00 00       	add	r0,r0
8000767a:	01 c4       	ld.ub	r4,r0[0x4]
8000767c:	80 00       	ld.sh	r0,r0[0x0]
8000767e:	75 f8       	ld.w	r8,r10[0x7c]

80007680 <__sfvwrite_r>:
80007680:	d4 31       	pushm	r0-r7,lr
80007682:	20 3d       	sub	sp,12
80007684:	14 94       	mov	r4,r10
80007686:	18 95       	mov	r5,r12
80007688:	16 97       	mov	r7,r11
8000768a:	74 28       	ld.w	r8,r10[0x8]
8000768c:	58 08       	cp.w	r8,0
8000768e:	e0 80 01 43 	breq	80007914 <__sfvwrite_r+0x294>
80007692:	96 68       	ld.sh	r8,r11[0xc]
80007694:	ed b8 00 03 	bld	r8,0x3
80007698:	c0 41       	brne	800076a0 <__sfvwrite_r+0x20>
8000769a:	76 48       	ld.w	r8,r11[0x10]
8000769c:	58 08       	cp.w	r8,0
8000769e:	c0 c1       	brne	800076b6 <__sfvwrite_r+0x36>
800076a0:	0e 9b       	mov	r11,r7
800076a2:	0a 9c       	mov	r12,r5
800076a4:	f0 1f 00 9e 	mcall	8000791c <__sfvwrite_r+0x29c>
800076a8:	c0 70       	breq	800076b6 <__sfvwrite_r+0x36>
800076aa:	8e 68       	ld.sh	r8,r7[0xc]
800076ac:	a7 a8       	sbr	r8,0x6
800076ae:	ae 68       	st.h	r7[0xc],r8
800076b0:	30 98       	mov	r8,9
800076b2:	8b 38       	st.w	r5[0xc],r8
800076b4:	c2 e9       	rjmp	80007910 <__sfvwrite_r+0x290>
800076b6:	8e 63       	ld.sh	r3,r7[0xc]
800076b8:	68 00       	ld.w	r0,r4[0x0]
800076ba:	06 96       	mov	r6,r3
800076bc:	e2 16 00 02 	andl	r6,0x2,COH
800076c0:	c2 10       	breq	80007702 <__sfvwrite_r+0x82>
800076c2:	30 03       	mov	r3,0
800076c4:	e0 62 04 00 	mov	r2,1024
800076c8:	06 96       	mov	r6,r3
800076ca:	c0 48       	rjmp	800076d2 <__sfvwrite_r+0x52>
800076cc:	60 03       	ld.w	r3,r0[0x0]
800076ce:	60 16       	ld.w	r6,r0[0x4]
800076d0:	2f 80       	sub	r0,-8
800076d2:	58 06       	cp.w	r6,0
800076d4:	cf c0       	breq	800076cc <__sfvwrite_r+0x4c>
800076d6:	e0 46 04 00 	cp.w	r6,1024
800076da:	ec 09 17 80 	movls	r9,r6
800076de:	e4 09 17 b0 	movhi	r9,r2
800076e2:	06 9a       	mov	r10,r3
800076e4:	6e a8       	ld.w	r8,r7[0x28]
800076e6:	6e 8b       	ld.w	r11,r7[0x20]
800076e8:	0a 9c       	mov	r12,r5
800076ea:	5d 18       	icall	r8
800076ec:	18 16       	sub	r6,r12
800076ee:	58 0c       	cp.w	r12,0
800076f0:	e0 8a 01 0d 	brle	8000790a <__sfvwrite_r+0x28a>
800076f4:	68 28       	ld.w	r8,r4[0x8]
800076f6:	18 18       	sub	r8,r12
800076f8:	89 28       	st.w	r4[0x8],r8
800076fa:	e0 80 01 0d 	breq	80007914 <__sfvwrite_r+0x294>
800076fe:	18 03       	add	r3,r12
80007700:	ce 9b       	rjmp	800076d2 <__sfvwrite_r+0x52>
80007702:	e7 d3 c0 01 	bfextu	r3,r3,0x0,0x1
80007706:	c0 70       	breq	80007714 <__sfvwrite_r+0x94>
80007708:	50 06       	stdsp	sp[0x0],r6
8000770a:	0c 93       	mov	r3,r6
8000770c:	0c 91       	mov	r1,r6
8000770e:	50 15       	stdsp	sp[0x4],r5
80007710:	08 92       	mov	r2,r4
80007712:	ca 08       	rjmp	80007852 <__sfvwrite_r+0x1d2>
80007714:	06 96       	mov	r6,r3
80007716:	08 91       	mov	r1,r4
80007718:	c0 48       	rjmp	80007720 <__sfvwrite_r+0xa0>
8000771a:	60 03       	ld.w	r3,r0[0x0]
8000771c:	60 16       	ld.w	r6,r0[0x4]
8000771e:	2f 80       	sub	r0,-8
80007720:	58 06       	cp.w	r6,0
80007722:	cf c0       	breq	8000771a <__sfvwrite_r+0x9a>
80007724:	8e 68       	ld.sh	r8,r7[0xc]
80007726:	6e 24       	ld.w	r4,r7[0x8]
80007728:	10 99       	mov	r9,r8
8000772a:	e2 19 02 00 	andl	r9,0x200,COH
8000772e:	c5 70       	breq	800077dc <__sfvwrite_r+0x15c>
80007730:	08 36       	cp.w	r6,r4
80007732:	c4 53       	brcs	800077bc <__sfvwrite_r+0x13c>
80007734:	10 99       	mov	r9,r8
80007736:	e2 19 04 80 	andl	r9,0x480,COH
8000773a:	c4 10       	breq	800077bc <__sfvwrite_r+0x13c>
8000773c:	6e 4b       	ld.w	r11,r7[0x10]
8000773e:	6e 09       	ld.w	r9,r7[0x0]
80007740:	16 19       	sub	r9,r11
80007742:	50 09       	stdsp	sp[0x0],r9
80007744:	6e 59       	ld.w	r9,r7[0x14]
80007746:	10 9c       	mov	r12,r8
80007748:	f2 09 00 1a 	add	r10,r9,r9<<0x1
8000774c:	30 28       	mov	r8,2
8000774e:	f4 08 0c 08 	divs	r8,r10,r8
80007752:	fa e9 00 04 	st.d	sp[4],r8
80007756:	10 94       	mov	r4,r8
80007758:	40 09       	lddsp	r9,sp[0x0]
8000775a:	e2 1c 04 00 	andl	r12,0x400,COH
8000775e:	2f f9       	sub	r9,-1
80007760:	0c 09       	add	r9,r6
80007762:	12 38       	cp.w	r8,r9
80007764:	f2 04 17 30 	movlo	r4,r9
80007768:	58 0c       	cp.w	r12,0
8000776a:	c1 10       	breq	8000778c <__sfvwrite_r+0x10c>
8000776c:	08 9b       	mov	r11,r4
8000776e:	0a 9c       	mov	r12,r5
80007770:	f0 1f 00 6c 	mcall	80007920 <__sfvwrite_r+0x2a0>
80007774:	18 92       	mov	r2,r12
80007776:	c1 50       	breq	800077a0 <__sfvwrite_r+0x120>
80007778:	40 0a       	lddsp	r10,sp[0x0]
8000777a:	6e 4b       	ld.w	r11,r7[0x10]
8000777c:	f0 1f 00 6a 	mcall	80007924 <__sfvwrite_r+0x2a4>
80007780:	8e 68       	ld.sh	r8,r7[0xc]
80007782:	e0 18 fb 7f 	andl	r8,0xfb7f
80007786:	a7 b8       	sbr	r8,0x7
80007788:	ae 68       	st.h	r7[0xc],r8
8000778a:	c0 e8       	rjmp	800077a6 <__sfvwrite_r+0x126>
8000778c:	08 9a       	mov	r10,r4
8000778e:	0a 9c       	mov	r12,r5
80007790:	f0 1f 00 66 	mcall	80007928 <__sfvwrite_r+0x2a8>
80007794:	18 92       	mov	r2,r12
80007796:	c0 81       	brne	800077a6 <__sfvwrite_r+0x126>
80007798:	6e 4b       	ld.w	r11,r7[0x10]
8000779a:	0a 9c       	mov	r12,r5
8000779c:	f0 1f 00 64 	mcall	8000792c <__sfvwrite_r+0x2ac>
800077a0:	30 c8       	mov	r8,12
800077a2:	8b 38       	st.w	r5[0xc],r8
800077a4:	cb 38       	rjmp	8000790a <__sfvwrite_r+0x28a>
800077a6:	40 0a       	lddsp	r10,sp[0x0]
800077a8:	40 09       	lddsp	r9,sp[0x0]
800077aa:	e8 0a 01 0a 	sub	r10,r4,r10
800077ae:	e4 09 00 08 	add	r8,r2,r9
800077b2:	8f 54       	st.w	r7[0x14],r4
800077b4:	8f 2a       	st.w	r7[0x8],r10
800077b6:	8f 08       	st.w	r7[0x0],r8
800077b8:	8f 42       	st.w	r7[0x10],r2
800077ba:	0c 94       	mov	r4,r6
800077bc:	08 36       	cp.w	r6,r4
800077be:	ec 04 17 30 	movlo	r4,r6
800077c2:	06 9b       	mov	r11,r3
800077c4:	08 9a       	mov	r10,r4
800077c6:	6e 0c       	ld.w	r12,r7[0x0]
800077c8:	f0 1f 00 5a 	mcall	80007930 <__sfvwrite_r+0x2b0>
800077cc:	6e 08       	ld.w	r8,r7[0x0]
800077ce:	08 08       	add	r8,r4
800077d0:	8f 08       	st.w	r7[0x0],r8
800077d2:	6e 28       	ld.w	r8,r7[0x8]
800077d4:	08 18       	sub	r8,r4
800077d6:	0c 94       	mov	r4,r6
800077d8:	8f 28       	st.w	r7[0x8],r8
800077da:	c3 08       	rjmp	8000783a <__sfvwrite_r+0x1ba>
800077dc:	08 36       	cp.w	r6,r4
800077de:	5f ba       	srhi	r10
800077e0:	6e 0c       	ld.w	r12,r7[0x0]
800077e2:	6e 48       	ld.w	r8,r7[0x10]
800077e4:	10 3c       	cp.w	r12,r8
800077e6:	5f b8       	srhi	r8
800077e8:	f5 e8 00 08 	and	r8,r10,r8
800077ec:	f2 08 18 00 	cp.b	r8,r9
800077f0:	c0 e0       	breq	8000780c <__sfvwrite_r+0x18c>
800077f2:	06 9b       	mov	r11,r3
800077f4:	08 9a       	mov	r10,r4
800077f6:	f0 1f 00 4f 	mcall	80007930 <__sfvwrite_r+0x2b0>
800077fa:	6e 08       	ld.w	r8,r7[0x0]
800077fc:	08 08       	add	r8,r4
800077fe:	0e 9b       	mov	r11,r7
80007800:	8f 08       	st.w	r7[0x0],r8
80007802:	0a 9c       	mov	r12,r5
80007804:	f0 1f 00 4c 	mcall	80007934 <__sfvwrite_r+0x2b4>
80007808:	c1 90       	breq	8000783a <__sfvwrite_r+0x1ba>
8000780a:	c8 08       	rjmp	8000790a <__sfvwrite_r+0x28a>
8000780c:	6e 59       	ld.w	r9,r7[0x14]
8000780e:	12 36       	cp.w	r6,r9
80007810:	c0 a3       	brcs	80007824 <__sfvwrite_r+0x1a4>
80007812:	6e a8       	ld.w	r8,r7[0x28]
80007814:	06 9a       	mov	r10,r3
80007816:	6e 8b       	ld.w	r11,r7[0x20]
80007818:	0a 9c       	mov	r12,r5
8000781a:	5d 18       	icall	r8
8000781c:	18 94       	mov	r4,r12
8000781e:	e0 89 00 0e 	brgt	8000783a <__sfvwrite_r+0x1ba>
80007822:	c7 48       	rjmp	8000790a <__sfvwrite_r+0x28a>
80007824:	0c 9a       	mov	r10,r6
80007826:	06 9b       	mov	r11,r3
80007828:	f0 1f 00 42 	mcall	80007930 <__sfvwrite_r+0x2b0>
8000782c:	6e 08       	ld.w	r8,r7[0x0]
8000782e:	0c 08       	add	r8,r6
80007830:	0c 94       	mov	r4,r6
80007832:	8f 08       	st.w	r7[0x0],r8
80007834:	6e 28       	ld.w	r8,r7[0x8]
80007836:	0c 18       	sub	r8,r6
80007838:	8f 28       	st.w	r7[0x8],r8
8000783a:	62 28       	ld.w	r8,r1[0x8]
8000783c:	08 18       	sub	r8,r4
8000783e:	83 28       	st.w	r1[0x8],r8
80007840:	c6 a0       	breq	80007914 <__sfvwrite_r+0x294>
80007842:	08 16       	sub	r6,r4
80007844:	08 03       	add	r3,r4
80007846:	c6 db       	rjmp	80007720 <__sfvwrite_r+0xa0>
80007848:	60 03       	ld.w	r3,r0[0x0]
8000784a:	60 11       	ld.w	r1,r0[0x4]
8000784c:	30 08       	mov	r8,0
8000784e:	2f 80       	sub	r0,-8
80007850:	50 08       	stdsp	sp[0x0],r8
80007852:	58 01       	cp.w	r1,0
80007854:	cf a0       	breq	80007848 <__sfvwrite_r+0x1c8>
80007856:	40 0a       	lddsp	r10,sp[0x0]
80007858:	58 0a       	cp.w	r10,0
8000785a:	c1 11       	brne	8000787c <__sfvwrite_r+0x1fc>
8000785c:	02 9a       	mov	r10,r1
8000785e:	30 ab       	mov	r11,10
80007860:	06 9c       	mov	r12,r3
80007862:	f0 1f 00 36 	mcall	80007938 <__sfvwrite_r+0x2b8>
80007866:	c0 70       	breq	80007874 <__sfvwrite_r+0x1f4>
80007868:	f8 c6 ff ff 	sub	r6,r12,-1
8000786c:	30 19       	mov	r9,1
8000786e:	06 16       	sub	r6,r3
80007870:	50 09       	stdsp	sp[0x0],r9
80007872:	c0 58       	rjmp	8000787c <__sfvwrite_r+0x1fc>
80007874:	30 18       	mov	r8,1
80007876:	e2 c6 ff ff 	sub	r6,r1,-1
8000787a:	50 08       	stdsp	sp[0x0],r8
8000787c:	02 36       	cp.w	r6,r1
8000787e:	ec 04 17 80 	movls	r4,r6
80007882:	e2 04 17 b0 	movhi	r4,r1
80007886:	6e 59       	ld.w	r9,r7[0x14]
80007888:	6e 25       	ld.w	r5,r7[0x8]
8000788a:	f2 05 00 05 	add	r5,r9,r5
8000788e:	0a 34       	cp.w	r4,r5
80007890:	5f 9a       	srgt	r10
80007892:	6e 0c       	ld.w	r12,r7[0x0]
80007894:	6e 48       	ld.w	r8,r7[0x10]
80007896:	10 3c       	cp.w	r12,r8
80007898:	5f b8       	srhi	r8
8000789a:	f5 e8 00 08 	and	r8,r10,r8
8000789e:	30 0a       	mov	r10,0
800078a0:	f4 08 18 00 	cp.b	r8,r10
800078a4:	c0 e0       	breq	800078c0 <__sfvwrite_r+0x240>
800078a6:	06 9b       	mov	r11,r3
800078a8:	0a 9a       	mov	r10,r5
800078aa:	f0 1f 00 22 	mcall	80007930 <__sfvwrite_r+0x2b0>
800078ae:	6e 08       	ld.w	r8,r7[0x0]
800078b0:	0a 08       	add	r8,r5
800078b2:	0e 9b       	mov	r11,r7
800078b4:	8f 08       	st.w	r7[0x0],r8
800078b6:	40 1c       	lddsp	r12,sp[0x4]
800078b8:	f0 1f 00 1f 	mcall	80007934 <__sfvwrite_r+0x2b4>
800078bc:	c1 80       	breq	800078ec <__sfvwrite_r+0x26c>
800078be:	c2 68       	rjmp	8000790a <__sfvwrite_r+0x28a>
800078c0:	12 34       	cp.w	r4,r9
800078c2:	c0 a5       	brlt	800078d6 <__sfvwrite_r+0x256>
800078c4:	6e a8       	ld.w	r8,r7[0x28]
800078c6:	06 9a       	mov	r10,r3
800078c8:	6e 8b       	ld.w	r11,r7[0x20]
800078ca:	40 1c       	lddsp	r12,sp[0x4]
800078cc:	5d 18       	icall	r8
800078ce:	18 95       	mov	r5,r12
800078d0:	e0 89 00 0e 	brgt	800078ec <__sfvwrite_r+0x26c>
800078d4:	c1 b8       	rjmp	8000790a <__sfvwrite_r+0x28a>
800078d6:	08 9a       	mov	r10,r4
800078d8:	06 9b       	mov	r11,r3
800078da:	f0 1f 00 16 	mcall	80007930 <__sfvwrite_r+0x2b0>
800078de:	6e 08       	ld.w	r8,r7[0x0]
800078e0:	08 08       	add	r8,r4
800078e2:	08 95       	mov	r5,r4
800078e4:	8f 08       	st.w	r7[0x0],r8
800078e6:	6e 28       	ld.w	r8,r7[0x8]
800078e8:	08 18       	sub	r8,r4
800078ea:	8f 28       	st.w	r7[0x8],r8
800078ec:	0a 16       	sub	r6,r5
800078ee:	c0 71       	brne	800078fc <__sfvwrite_r+0x27c>
800078f0:	0e 9b       	mov	r11,r7
800078f2:	40 1c       	lddsp	r12,sp[0x4]
800078f4:	f0 1f 00 10 	mcall	80007934 <__sfvwrite_r+0x2b4>
800078f8:	c0 91       	brne	8000790a <__sfvwrite_r+0x28a>
800078fa:	50 06       	stdsp	sp[0x0],r6
800078fc:	64 28       	ld.w	r8,r2[0x8]
800078fe:	0a 18       	sub	r8,r5
80007900:	85 28       	st.w	r2[0x8],r8
80007902:	c0 90       	breq	80007914 <__sfvwrite_r+0x294>
80007904:	0a 11       	sub	r1,r5
80007906:	0a 03       	add	r3,r5
80007908:	ca 5b       	rjmp	80007852 <__sfvwrite_r+0x1d2>
8000790a:	8e 68       	ld.sh	r8,r7[0xc]
8000790c:	a7 a8       	sbr	r8,0x6
8000790e:	ae 68       	st.h	r7[0xc],r8
80007910:	3f fc       	mov	r12,-1
80007912:	c0 28       	rjmp	80007916 <__sfvwrite_r+0x296>
80007914:	30 0c       	mov	r12,0
80007916:	2f dd       	sub	sp,-12
80007918:	d8 32       	popm	r0-r7,pc
8000791a:	00 00       	add	r0,r0
8000791c:	80 00       	ld.sh	r0,r0[0x0]
8000791e:	aa 7c       	st.h	r5[0xe],r12
80007920:	80 00       	ld.sh	r0,r0[0x0]
80007922:	7a 00       	ld.w	r0,sp[0x0]
80007924:	80 00       	ld.sh	r0,r0[0x0]
80007926:	7e 88       	ld.w	r8,pc[0x20]
80007928:	80 00       	ld.sh	r0,r0[0x0]
8000792a:	80 c4       	ld.uh	r4,r0[0x8]
8000792c:	80 00       	ld.sh	r0,r0[0x0]
8000792e:	bc 70       	st.h	lr[0xe],r0
80007930:	80 00       	ld.sh	r0,r0[0x0]
80007932:	7f d0       	ld.w	r0,pc[0x74]
80007934:	80 00       	ld.sh	r0,r0[0x0]
80007936:	b9 40       	asr	r0,0x18
80007938:	80 00       	ld.sh	r0,r0[0x0]
8000793a:	7e 4c       	ld.w	r12,pc[0x10]

8000793c <_fwrite_r>:
8000793c:	d4 31       	pushm	r0-r7,lr
8000793e:	20 5d       	sub	sp,20
80007940:	12 96       	mov	r6,r9
80007942:	fa c9 ff f4 	sub	r9,sp,-12
80007946:	ec 0a 02 45 	mul	r5,r6,r10
8000794a:	50 09       	stdsp	sp[0x0],r9
8000794c:	50 3b       	stdsp	sp[0xc],r11
8000794e:	30 19       	mov	r9,1
80007950:	50 45       	stdsp	sp[0x10],r5
80007952:	50 25       	stdsp	sp[0x8],r5
80007954:	50 19       	stdsp	sp[0x4],r9
80007956:	14 97       	mov	r7,r10
80007958:	10 93       	mov	r3,r8
8000795a:	18 94       	mov	r4,r12
8000795c:	58 0c       	cp.w	r12,0
8000795e:	c0 60       	breq	8000796a <_fwrite_r+0x2e>
80007960:	78 68       	ld.w	r8,r12[0x18]
80007962:	58 08       	cp.w	r8,0
80007964:	c0 31       	brne	8000796a <_fwrite_r+0x2e>
80007966:	f0 1f 00 0f 	mcall	800079a0 <_fwrite_r+0x64>
8000796a:	48 f8       	lddpc	r8,800079a4 <_fwrite_r+0x68>
8000796c:	10 33       	cp.w	r3,r8
8000796e:	c0 31       	brne	80007974 <_fwrite_r+0x38>
80007970:	68 03       	ld.w	r3,r4[0x0]
80007972:	c0 a8       	rjmp	80007986 <_fwrite_r+0x4a>
80007974:	48 d8       	lddpc	r8,800079a8 <_fwrite_r+0x6c>
80007976:	10 33       	cp.w	r3,r8
80007978:	c0 31       	brne	8000797e <_fwrite_r+0x42>
8000797a:	68 13       	ld.w	r3,r4[0x4]
8000797c:	c0 58       	rjmp	80007986 <_fwrite_r+0x4a>
8000797e:	48 c8       	lddpc	r8,800079ac <_fwrite_r+0x70>
80007980:	10 33       	cp.w	r3,r8
80007982:	c0 21       	brne	80007986 <_fwrite_r+0x4a>
80007984:	68 23       	ld.w	r3,r4[0x8]
80007986:	06 9b       	mov	r11,r3
80007988:	08 9c       	mov	r12,r4
8000798a:	1a 9a       	mov	r10,sp
8000798c:	f0 1f 00 09 	mcall	800079b0 <_fwrite_r+0x74>
80007990:	c0 50       	breq	8000799a <_fwrite_r+0x5e>
80007992:	40 28       	lddsp	r8,sp[0x8]
80007994:	10 15       	sub	r5,r8
80007996:	ea 07 0d 06 	divu	r6,r5,r7
8000799a:	0c 9c       	mov	r12,r6
8000799c:	2f bd       	sub	sp,-20
8000799e:	d8 32       	popm	r0-r7,pc
800079a0:	80 00       	ld.sh	r0,r0[0x0]
800079a2:	bb 18       	ld.d	r8,--sp
800079a4:	80 00       	ld.sh	r0,r0[0x0]
800079a6:	df 64       	*unknown*
800079a8:	80 00       	ld.sh	r0,r0[0x0]
800079aa:	df 84       	*unknown*
800079ac:	80 00       	ld.sh	r0,r0[0x0]
800079ae:	df a4       	*unknown*
800079b0:	80 00       	ld.sh	r0,r0[0x0]
800079b2:	76 80       	ld.w	r0,r11[0x20]

800079b4 <fwrite>:
800079b4:	d4 01       	pushm	lr
800079b6:	12 98       	mov	r8,r9
800079b8:	14 99       	mov	r9,r10
800079ba:	16 9a       	mov	r10,r11
800079bc:	18 9b       	mov	r11,r12
800079be:	48 3c       	lddpc	r12,800079c8 <fwrite+0x14>
800079c0:	78 0c       	ld.w	r12,r12[0x0]
800079c2:	f0 1f 00 03 	mcall	800079cc <fwrite+0x18>
800079c6:	d8 02       	popm	pc
800079c8:	00 00       	add	r0,r0
800079ca:	01 c4       	ld.ub	r4,r0[0x4]
800079cc:	80 00       	ld.sh	r0,r0[0x0]
800079ce:	79 3c       	ld.w	r12,r12[0x4c]

800079d0 <free>:
800079d0:	d4 01       	pushm	lr
800079d2:	48 48       	lddpc	r8,800079e0 <free+0x10>
800079d4:	18 9b       	mov	r11,r12
800079d6:	70 0c       	ld.w	r12,r8[0x0]
800079d8:	f0 1f 00 03 	mcall	800079e4 <free+0x14>
800079dc:	d8 02       	popm	pc
800079de:	00 00       	add	r0,r0
800079e0:	00 00       	add	r0,r0
800079e2:	01 c4       	ld.ub	r4,r0[0x4]
800079e4:	80 00       	ld.sh	r0,r0[0x0]
800079e6:	bc 70       	st.h	lr[0xe],r0

800079e8 <malloc>:
800079e8:	d4 01       	pushm	lr
800079ea:	48 48       	lddpc	r8,800079f8 <malloc+0x10>
800079ec:	18 9b       	mov	r11,r12
800079ee:	70 0c       	ld.w	r12,r8[0x0]
800079f0:	f0 1f 00 03 	mcall	800079fc <malloc+0x14>
800079f4:	d8 02       	popm	pc
800079f6:	00 00       	add	r0,r0
800079f8:	00 00       	add	r0,r0
800079fa:	01 c4       	ld.ub	r4,r0[0x4]
800079fc:	80 00       	ld.sh	r0,r0[0x0]
800079fe:	7a 00       	ld.w	r0,sp[0x0]

80007a00 <_malloc_r>:
80007a00:	d4 31       	pushm	r0-r7,lr
80007a02:	f6 c8 ff f5 	sub	r8,r11,-11
80007a06:	18 95       	mov	r5,r12
80007a08:	10 97       	mov	r7,r8
80007a0a:	e0 17 ff f8 	andl	r7,0xfff8
80007a0e:	59 68       	cp.w	r8,22
80007a10:	f9 b7 08 10 	movls	r7,16
80007a14:	16 37       	cp.w	r7,r11
80007a16:	5f 38       	srlo	r8
80007a18:	f1 e7 13 f8 	or	r8,r8,r7>>0x1f
80007a1c:	c0 50       	breq	80007a26 <_malloc_r+0x26>
80007a1e:	30 c8       	mov	r8,12
80007a20:	99 38       	st.w	r12[0xc],r8
80007a22:	e0 8f 01 f2 	bral	80007e06 <_malloc_r+0x406>
80007a26:	f0 1f 00 50 	mcall	80007b64 <_malloc_r+0x164>
80007a2a:	e0 47 01 f7 	cp.w	r7,503
80007a2e:	e0 8b 00 1c 	brhi	80007a66 <_malloc_r+0x66>
80007a32:	ee 03 16 03 	lsr	r3,r7,0x3
80007a36:	4c d8       	lddpc	r8,80007b68 <_malloc_r+0x168>
80007a38:	f0 03 00 38 	add	r8,r8,r3<<0x3
80007a3c:	70 36       	ld.w	r6,r8[0xc]
80007a3e:	10 36       	cp.w	r6,r8
80007a40:	c0 61       	brne	80007a4c <_malloc_r+0x4c>
80007a42:	ec c8 ff f8 	sub	r8,r6,-8
80007a46:	70 36       	ld.w	r6,r8[0xc]
80007a48:	10 36       	cp.w	r6,r8
80007a4a:	c0 c0       	breq	80007a62 <_malloc_r+0x62>
80007a4c:	6c 18       	ld.w	r8,r6[0x4]
80007a4e:	e0 18 ff fc 	andl	r8,0xfffc
80007a52:	6c 3a       	ld.w	r10,r6[0xc]
80007a54:	ec 08 00 09 	add	r9,r6,r8
80007a58:	0a 9c       	mov	r12,r5
80007a5a:	6c 28       	ld.w	r8,r6[0x8]
80007a5c:	95 28       	st.w	r10[0x8],r8
80007a5e:	91 3a       	st.w	r8[0xc],r10
80007a60:	c4 68       	rjmp	80007aec <_malloc_r+0xec>
80007a62:	2f e3       	sub	r3,-2
80007a64:	c4 c8       	rjmp	80007afc <_malloc_r+0xfc>
80007a66:	ee 03 16 09 	lsr	r3,r7,0x9
80007a6a:	c0 41       	brne	80007a72 <_malloc_r+0x72>
80007a6c:	ee 03 16 03 	lsr	r3,r7,0x3
80007a70:	c2 68       	rjmp	80007abc <_malloc_r+0xbc>
80007a72:	58 43       	cp.w	r3,4
80007a74:	e0 8b 00 06 	brhi	80007a80 <_malloc_r+0x80>
80007a78:	ee 03 16 06 	lsr	r3,r7,0x6
80007a7c:	2c 83       	sub	r3,-56
80007a7e:	c1 f8       	rjmp	80007abc <_malloc_r+0xbc>
80007a80:	59 43       	cp.w	r3,20
80007a82:	e0 8b 00 04 	brhi	80007a8a <_malloc_r+0x8a>
80007a86:	2a 53       	sub	r3,-91
80007a88:	c1 a8       	rjmp	80007abc <_malloc_r+0xbc>
80007a8a:	e0 43 00 54 	cp.w	r3,84
80007a8e:	e0 8b 00 06 	brhi	80007a9a <_malloc_r+0x9a>
80007a92:	ee 03 16 0c 	lsr	r3,r7,0xc
80007a96:	29 23       	sub	r3,-110
80007a98:	c1 28       	rjmp	80007abc <_malloc_r+0xbc>
80007a9a:	e0 43 01 54 	cp.w	r3,340
80007a9e:	e0 8b 00 06 	brhi	80007aaa <_malloc_r+0xaa>
80007aa2:	ee 03 16 0f 	lsr	r3,r7,0xf
80007aa6:	28 93       	sub	r3,-119
80007aa8:	c0 a8       	rjmp	80007abc <_malloc_r+0xbc>
80007aaa:	e0 43 05 54 	cp.w	r3,1364
80007aae:	e0 88 00 04 	brls	80007ab6 <_malloc_r+0xb6>
80007ab2:	37 e3       	mov	r3,126
80007ab4:	c0 48       	rjmp	80007abc <_malloc_r+0xbc>
80007ab6:	ee 03 16 12 	lsr	r3,r7,0x12
80007aba:	28 43       	sub	r3,-124
80007abc:	4a ba       	lddpc	r10,80007b68 <_malloc_r+0x168>
80007abe:	f4 03 00 3a 	add	r10,r10,r3<<0x3
80007ac2:	74 36       	ld.w	r6,r10[0xc]
80007ac4:	c1 98       	rjmp	80007af6 <_malloc_r+0xf6>
80007ac6:	6c 19       	ld.w	r9,r6[0x4]
80007ac8:	e0 19 ff fc 	andl	r9,0xfffc
80007acc:	f2 07 01 0b 	sub	r11,r9,r7
80007ad0:	58 fb       	cp.w	r11,15
80007ad2:	e0 8a 00 04 	brle	80007ada <_malloc_r+0xda>
80007ad6:	20 13       	sub	r3,1
80007ad8:	c1 18       	rjmp	80007afa <_malloc_r+0xfa>
80007ada:	6c 38       	ld.w	r8,r6[0xc]
80007adc:	58 0b       	cp.w	r11,0
80007ade:	c0 b5       	brlt	80007af4 <_malloc_r+0xf4>
80007ae0:	6c 2a       	ld.w	r10,r6[0x8]
80007ae2:	ec 09 00 09 	add	r9,r6,r9
80007ae6:	0a 9c       	mov	r12,r5
80007ae8:	91 2a       	st.w	r8[0x8],r10
80007aea:	95 38       	st.w	r10[0xc],r8
80007aec:	72 18       	ld.w	r8,r9[0x4]
80007aee:	a1 a8       	sbr	r8,0x0
80007af0:	93 18       	st.w	r9[0x4],r8
80007af2:	cb c8       	rjmp	80007c6a <_malloc_r+0x26a>
80007af4:	10 96       	mov	r6,r8
80007af6:	14 36       	cp.w	r6,r10
80007af8:	ce 71       	brne	80007ac6 <_malloc_r+0xc6>
80007afa:	2f f3       	sub	r3,-1
80007afc:	49 ba       	lddpc	r10,80007b68 <_malloc_r+0x168>
80007afe:	f4 cc ff f8 	sub	r12,r10,-8
80007b02:	78 26       	ld.w	r6,r12[0x8]
80007b04:	18 36       	cp.w	r6,r12
80007b06:	c6 e0       	breq	80007be2 <_malloc_r+0x1e2>
80007b08:	6c 19       	ld.w	r9,r6[0x4]
80007b0a:	e0 19 ff fc 	andl	r9,0xfffc
80007b0e:	f2 07 01 08 	sub	r8,r9,r7
80007b12:	58 f8       	cp.w	r8,15
80007b14:	e0 89 00 90 	brgt	80007c34 <_malloc_r+0x234>
80007b18:	99 3c       	st.w	r12[0xc],r12
80007b1a:	99 2c       	st.w	r12[0x8],r12
80007b1c:	58 08       	cp.w	r8,0
80007b1e:	c0 55       	brlt	80007b28 <_malloc_r+0x128>
80007b20:	ec 09 00 09 	add	r9,r6,r9
80007b24:	0a 9c       	mov	r12,r5
80007b26:	ce 3b       	rjmp	80007aec <_malloc_r+0xec>
80007b28:	e0 49 01 ff 	cp.w	r9,511
80007b2c:	e0 8b 00 13 	brhi	80007b52 <_malloc_r+0x152>
80007b30:	a3 99       	lsr	r9,0x3
80007b32:	f4 09 00 38 	add	r8,r10,r9<<0x3
80007b36:	70 2b       	ld.w	r11,r8[0x8]
80007b38:	8d 38       	st.w	r6[0xc],r8
80007b3a:	8d 2b       	st.w	r6[0x8],r11
80007b3c:	97 36       	st.w	r11[0xc],r6
80007b3e:	91 26       	st.w	r8[0x8],r6
80007b40:	a3 49       	asr	r9,0x2
80007b42:	74 18       	ld.w	r8,r10[0x4]
80007b44:	30 1b       	mov	r11,1
80007b46:	f6 09 09 49 	lsl	r9,r11,r9
80007b4a:	f1 e9 10 09 	or	r9,r8,r9
80007b4e:	95 19       	st.w	r10[0x4],r9
80007b50:	c4 98       	rjmp	80007be2 <_malloc_r+0x1e2>
80007b52:	f2 0a 16 09 	lsr	r10,r9,0x9
80007b56:	58 4a       	cp.w	r10,4
80007b58:	e0 8b 00 0a 	brhi	80007b6c <_malloc_r+0x16c>
80007b5c:	f2 0a 16 06 	lsr	r10,r9,0x6
80007b60:	2c 8a       	sub	r10,-56
80007b62:	c2 38       	rjmp	80007ba8 <_malloc_r+0x1a8>
80007b64:	80 00       	ld.sh	r0,r0[0x0]
80007b66:	80 1c       	ld.sh	r12,r0[0x2]
80007b68:	00 00       	add	r0,r0
80007b6a:	01 c8       	ld.ub	r8,r0[0x4]
80007b6c:	59 4a       	cp.w	r10,20
80007b6e:	e0 8b 00 04 	brhi	80007b76 <_malloc_r+0x176>
80007b72:	2a 5a       	sub	r10,-91
80007b74:	c1 a8       	rjmp	80007ba8 <_malloc_r+0x1a8>
80007b76:	e0 4a 00 54 	cp.w	r10,84
80007b7a:	e0 8b 00 06 	brhi	80007b86 <_malloc_r+0x186>
80007b7e:	f2 0a 16 0c 	lsr	r10,r9,0xc
80007b82:	29 2a       	sub	r10,-110
80007b84:	c1 28       	rjmp	80007ba8 <_malloc_r+0x1a8>
80007b86:	e0 4a 01 54 	cp.w	r10,340
80007b8a:	e0 8b 00 06 	brhi	80007b96 <_malloc_r+0x196>
80007b8e:	f2 0a 16 0f 	lsr	r10,r9,0xf
80007b92:	28 9a       	sub	r10,-119
80007b94:	c0 a8       	rjmp	80007ba8 <_malloc_r+0x1a8>
80007b96:	e0 4a 05 54 	cp.w	r10,1364
80007b9a:	e0 88 00 04 	brls	80007ba2 <_malloc_r+0x1a2>
80007b9e:	37 ea       	mov	r10,126
80007ba0:	c0 48       	rjmp	80007ba8 <_malloc_r+0x1a8>
80007ba2:	f2 0a 16 12 	lsr	r10,r9,0x12
80007ba6:	28 4a       	sub	r10,-124
80007ba8:	4c 8b       	lddpc	r11,80007cc8 <_malloc_r+0x2c8>
80007baa:	f6 0a 00 34 	add	r4,r11,r10<<0x3
80007bae:	68 28       	ld.w	r8,r4[0x8]
80007bb0:	08 38       	cp.w	r8,r4
80007bb2:	c0 e1       	brne	80007bce <_malloc_r+0x1ce>
80007bb4:	76 19       	ld.w	r9,r11[0x4]
80007bb6:	a3 4a       	asr	r10,0x2
80007bb8:	30 1e       	mov	lr,1
80007bba:	fc 0a 09 4a 	lsl	r10,lr,r10
80007bbe:	f3 ea 10 0a 	or	r10,r9,r10
80007bc2:	10 99       	mov	r9,r8
80007bc4:	97 1a       	st.w	r11[0x4],r10
80007bc6:	c0 a8       	rjmp	80007bda <_malloc_r+0x1da>
80007bc8:	70 28       	ld.w	r8,r8[0x8]
80007bca:	08 38       	cp.w	r8,r4
80007bcc:	c0 60       	breq	80007bd8 <_malloc_r+0x1d8>
80007bce:	70 1a       	ld.w	r10,r8[0x4]
80007bd0:	e0 1a ff fc 	andl	r10,0xfffc
80007bd4:	14 39       	cp.w	r9,r10
80007bd6:	cf 93       	brcs	80007bc8 <_malloc_r+0x1c8>
80007bd8:	70 39       	ld.w	r9,r8[0xc]
80007bda:	8d 39       	st.w	r6[0xc],r9
80007bdc:	8d 28       	st.w	r6[0x8],r8
80007bde:	91 36       	st.w	r8[0xc],r6
80007be0:	93 26       	st.w	r9[0x8],r6
80007be2:	e6 08 14 02 	asr	r8,r3,0x2
80007be6:	30 1b       	mov	r11,1
80007be8:	4b 84       	lddpc	r4,80007cc8 <_malloc_r+0x2c8>
80007bea:	f6 08 09 4b 	lsl	r11,r11,r8
80007bee:	68 18       	ld.w	r8,r4[0x4]
80007bf0:	10 3b       	cp.w	r11,r8
80007bf2:	e0 8b 00 6f 	brhi	80007cd0 <_malloc_r+0x2d0>
80007bf6:	f7 e8 00 09 	and	r9,r11,r8
80007bfa:	c0 b1       	brne	80007c10 <_malloc_r+0x210>
80007bfc:	e0 13 ff fc 	andl	r3,0xfffc
80007c00:	a1 7b       	lsl	r11,0x1
80007c02:	2f c3       	sub	r3,-4
80007c04:	c0 38       	rjmp	80007c0a <_malloc_r+0x20a>
80007c06:	2f c3       	sub	r3,-4
80007c08:	a1 7b       	lsl	r11,0x1
80007c0a:	f7 e8 00 09 	and	r9,r11,r8
80007c0e:	cf c0       	breq	80007c06 <_malloc_r+0x206>
80007c10:	e8 03 00 3e 	add	lr,r4,r3<<0x3
80007c14:	06 92       	mov	r2,r3
80007c16:	1c 91       	mov	r1,lr
80007c18:	62 36       	ld.w	r6,r1[0xc]
80007c1a:	c2 e8       	rjmp	80007c76 <_malloc_r+0x276>
80007c1c:	6c 1a       	ld.w	r10,r6[0x4]
80007c1e:	e0 1a ff fc 	andl	r10,0xfffc
80007c22:	f4 07 01 08 	sub	r8,r10,r7
80007c26:	58 f8       	cp.w	r8,15
80007c28:	e0 8a 00 15 	brle	80007c52 <_malloc_r+0x252>
80007c2c:	6c 3a       	ld.w	r10,r6[0xc]
80007c2e:	6c 29       	ld.w	r9,r6[0x8]
80007c30:	95 29       	st.w	r10[0x8],r9
80007c32:	93 3a       	st.w	r9[0xc],r10
80007c34:	0e 99       	mov	r9,r7
80007c36:	ec 07 00 07 	add	r7,r6,r7
80007c3a:	a1 a9       	sbr	r9,0x0
80007c3c:	99 37       	st.w	r12[0xc],r7
80007c3e:	99 27       	st.w	r12[0x8],r7
80007c40:	8d 19       	st.w	r6[0x4],r9
80007c42:	ee 08 09 08 	st.w	r7[r8],r8
80007c46:	8f 2c       	st.w	r7[0x8],r12
80007c48:	8f 3c       	st.w	r7[0xc],r12
80007c4a:	a1 a8       	sbr	r8,0x0
80007c4c:	0a 9c       	mov	r12,r5
80007c4e:	8f 18       	st.w	r7[0x4],r8
80007c50:	c0 d8       	rjmp	80007c6a <_malloc_r+0x26a>
80007c52:	6c 39       	ld.w	r9,r6[0xc]
80007c54:	58 08       	cp.w	r8,0
80007c56:	c0 f5       	brlt	80007c74 <_malloc_r+0x274>
80007c58:	ec 0a 00 0a 	add	r10,r6,r10
80007c5c:	74 18       	ld.w	r8,r10[0x4]
80007c5e:	a1 a8       	sbr	r8,0x0
80007c60:	0a 9c       	mov	r12,r5
80007c62:	95 18       	st.w	r10[0x4],r8
80007c64:	6c 28       	ld.w	r8,r6[0x8]
80007c66:	93 28       	st.w	r9[0x8],r8
80007c68:	91 39       	st.w	r8[0xc],r9
80007c6a:	f0 1f 00 19 	mcall	80007ccc <_malloc_r+0x2cc>
80007c6e:	ec cc ff f8 	sub	r12,r6,-8
80007c72:	d8 32       	popm	r0-r7,pc
80007c74:	12 96       	mov	r6,r9
80007c76:	02 36       	cp.w	r6,r1
80007c78:	cd 21       	brne	80007c1c <_malloc_r+0x21c>
80007c7a:	2f f2       	sub	r2,-1
80007c7c:	f1 d2 c0 02 	bfextu	r8,r2,0x0,0x2
80007c80:	c0 30       	breq	80007c86 <_malloc_r+0x286>
80007c82:	2f 81       	sub	r1,-8
80007c84:	cc ab       	rjmp	80007c18 <_malloc_r+0x218>
80007c86:	1c 98       	mov	r8,lr
80007c88:	f3 d3 c0 02 	bfextu	r9,r3,0x0,0x2
80007c8c:	c0 81       	brne	80007c9c <_malloc_r+0x29c>
80007c8e:	68 19       	ld.w	r9,r4[0x4]
80007c90:	f6 08 11 ff 	rsub	r8,r11,-1
80007c94:	f3 e8 00 08 	and	r8,r9,r8
80007c98:	89 18       	st.w	r4[0x4],r8
80007c9a:	c0 78       	rjmp	80007ca8 <_malloc_r+0x2a8>
80007c9c:	f0 c9 00 08 	sub	r9,r8,8
80007ca0:	20 13       	sub	r3,1
80007ca2:	70 08       	ld.w	r8,r8[0x0]
80007ca4:	12 38       	cp.w	r8,r9
80007ca6:	cf 10       	breq	80007c88 <_malloc_r+0x288>
80007ca8:	a1 7b       	lsl	r11,0x1
80007caa:	68 18       	ld.w	r8,r4[0x4]
80007cac:	10 3b       	cp.w	r11,r8
80007cae:	e0 8b 00 11 	brhi	80007cd0 <_malloc_r+0x2d0>
80007cb2:	58 0b       	cp.w	r11,0
80007cb4:	c0 e0       	breq	80007cd0 <_malloc_r+0x2d0>
80007cb6:	04 93       	mov	r3,r2
80007cb8:	c0 38       	rjmp	80007cbe <_malloc_r+0x2be>
80007cba:	2f c3       	sub	r3,-4
80007cbc:	a1 7b       	lsl	r11,0x1
80007cbe:	f7 e8 00 09 	and	r9,r11,r8
80007cc2:	ca 71       	brne	80007c10 <_malloc_r+0x210>
80007cc4:	cf bb       	rjmp	80007cba <_malloc_r+0x2ba>
80007cc6:	00 00       	add	r0,r0
80007cc8:	00 00       	add	r0,r0
80007cca:	01 c8       	ld.ub	r8,r0[0x4]
80007ccc:	80 00       	ld.sh	r0,r0[0x0]
80007cce:	80 1e       	ld.sh	lr,r0[0x2]
80007cd0:	68 23       	ld.w	r3,r4[0x8]
80007cd2:	66 12       	ld.w	r2,r3[0x4]
80007cd4:	e0 12 ff fc 	andl	r2,0xfffc
80007cd8:	0e 32       	cp.w	r2,r7
80007cda:	5f 39       	srlo	r9
80007cdc:	e4 07 01 08 	sub	r8,r2,r7
80007ce0:	58 f8       	cp.w	r8,15
80007ce2:	5f aa       	srle	r10
80007ce4:	f5 e9 10 09 	or	r9,r10,r9
80007ce8:	e0 80 00 a0 	breq	80007e28 <_malloc_r+0x428>
80007cec:	4c 78       	lddpc	r8,80007e08 <_malloc_r+0x408>
80007cee:	70 01       	ld.w	r1,r8[0x0]
80007cf0:	4c 78       	lddpc	r8,80007e0c <_malloc_r+0x40c>
80007cf2:	2f 01       	sub	r1,-16
80007cf4:	70 08       	ld.w	r8,r8[0x0]
80007cf6:	0e 01       	add	r1,r7
80007cf8:	5b f8       	cp.w	r8,-1
80007cfa:	c0 40       	breq	80007d02 <_malloc_r+0x302>
80007cfc:	28 11       	sub	r1,-127
80007cfe:	e0 11 ff 80 	andl	r1,0xff80
80007d02:	02 9b       	mov	r11,r1
80007d04:	0a 9c       	mov	r12,r5
80007d06:	f0 1f 00 43 	mcall	80007e10 <_malloc_r+0x410>
80007d0a:	18 96       	mov	r6,r12
80007d0c:	5b fc       	cp.w	r12,-1
80007d0e:	c6 d0       	breq	80007de8 <_malloc_r+0x3e8>
80007d10:	e6 02 00 08 	add	r8,r3,r2
80007d14:	10 3c       	cp.w	r12,r8
80007d16:	c0 32       	brcc	80007d1c <_malloc_r+0x31c>
80007d18:	08 33       	cp.w	r3,r4
80007d1a:	c6 71       	brne	80007de8 <_malloc_r+0x3e8>
80007d1c:	4b ea       	lddpc	r10,80007e14 <_malloc_r+0x414>
80007d1e:	74 09       	ld.w	r9,r10[0x0]
80007d20:	e2 09 00 09 	add	r9,r1,r9
80007d24:	95 09       	st.w	r10[0x0],r9
80007d26:	10 36       	cp.w	r6,r8
80007d28:	c0 a1       	brne	80007d3c <_malloc_r+0x33c>
80007d2a:	f5 d6 c0 07 	bfextu	r10,r6,0x0,0x7
80007d2e:	c0 71       	brne	80007d3c <_malloc_r+0x33c>
80007d30:	e2 02 00 02 	add	r2,r1,r2
80007d34:	68 28       	ld.w	r8,r4[0x8]
80007d36:	a1 a2       	sbr	r2,0x0
80007d38:	91 12       	st.w	r8[0x4],r2
80007d3a:	c4 98       	rjmp	80007dcc <_malloc_r+0x3cc>
80007d3c:	4b 4a       	lddpc	r10,80007e0c <_malloc_r+0x40c>
80007d3e:	74 0b       	ld.w	r11,r10[0x0]
80007d40:	5b fb       	cp.w	r11,-1
80007d42:	c0 31       	brne	80007d48 <_malloc_r+0x348>
80007d44:	95 06       	st.w	r10[0x0],r6
80007d46:	c0 68       	rjmp	80007d52 <_malloc_r+0x352>
80007d48:	ec 09 00 09 	add	r9,r6,r9
80007d4c:	4b 2a       	lddpc	r10,80007e14 <_malloc_r+0x414>
80007d4e:	10 19       	sub	r9,r8
80007d50:	95 09       	st.w	r10[0x0],r9
80007d52:	f1 d6 c0 03 	bfextu	r8,r6,0x0,0x3
80007d56:	c0 40       	breq	80007d5e <_malloc_r+0x35e>
80007d58:	f0 08 11 08 	rsub	r8,r8,8
80007d5c:	10 06       	add	r6,r8
80007d5e:	28 08       	sub	r8,-128
80007d60:	ec 01 00 01 	add	r1,r6,r1
80007d64:	0a 9c       	mov	r12,r5
80007d66:	e3 d1 c0 07 	bfextu	r1,r1,0x0,0x7
80007d6a:	f0 01 01 01 	sub	r1,r8,r1
80007d6e:	02 9b       	mov	r11,r1
80007d70:	f0 1f 00 28 	mcall	80007e10 <_malloc_r+0x410>
80007d74:	30 08       	mov	r8,0
80007d76:	5b fc       	cp.w	r12,-1
80007d78:	c0 31       	brne	80007d7e <_malloc_r+0x37e>
80007d7a:	0c 9c       	mov	r12,r6
80007d7c:	10 91       	mov	r1,r8
80007d7e:	4a 68       	lddpc	r8,80007e14 <_malloc_r+0x414>
80007d80:	0c 1c       	sub	r12,r6
80007d82:	70 09       	ld.w	r9,r8[0x0]
80007d84:	02 0c       	add	r12,r1
80007d86:	89 26       	st.w	r4[0x8],r6
80007d88:	a1 ac       	sbr	r12,0x0
80007d8a:	12 01       	add	r1,r9
80007d8c:	8d 1c       	st.w	r6[0x4],r12
80007d8e:	91 01       	st.w	r8[0x0],r1
80007d90:	08 33       	cp.w	r3,r4
80007d92:	c1 d0       	breq	80007dcc <_malloc_r+0x3cc>
80007d94:	58 f2       	cp.w	r2,15
80007d96:	e0 8b 00 05 	brhi	80007da0 <_malloc_r+0x3a0>
80007d9a:	30 18       	mov	r8,1
80007d9c:	8d 18       	st.w	r6[0x4],r8
80007d9e:	c2 58       	rjmp	80007de8 <_malloc_r+0x3e8>
80007da0:	30 59       	mov	r9,5
80007da2:	20 c2       	sub	r2,12
80007da4:	e0 12 ff f8 	andl	r2,0xfff8
80007da8:	e6 02 00 08 	add	r8,r3,r2
80007dac:	91 29       	st.w	r8[0x8],r9
80007dae:	91 19       	st.w	r8[0x4],r9
80007db0:	66 18       	ld.w	r8,r3[0x4]
80007db2:	f1 d8 c0 01 	bfextu	r8,r8,0x0,0x1
80007db6:	e5 e8 10 08 	or	r8,r2,r8
80007dba:	87 18       	st.w	r3[0x4],r8
80007dbc:	58 f2       	cp.w	r2,15
80007dbe:	e0 88 00 07 	brls	80007dcc <_malloc_r+0x3cc>
80007dc2:	e6 cb ff f8 	sub	r11,r3,-8
80007dc6:	0a 9c       	mov	r12,r5
80007dc8:	f0 1f 00 14 	mcall	80007e18 <_malloc_r+0x418>
80007dcc:	49 28       	lddpc	r8,80007e14 <_malloc_r+0x414>
80007dce:	49 49       	lddpc	r9,80007e1c <_malloc_r+0x41c>
80007dd0:	70 08       	ld.w	r8,r8[0x0]
80007dd2:	72 0a       	ld.w	r10,r9[0x0]
80007dd4:	14 38       	cp.w	r8,r10
80007dd6:	e0 88 00 03 	brls	80007ddc <_malloc_r+0x3dc>
80007dda:	93 08       	st.w	r9[0x0],r8
80007ddc:	49 19       	lddpc	r9,80007e20 <_malloc_r+0x420>
80007dde:	72 0a       	ld.w	r10,r9[0x0]
80007de0:	14 38       	cp.w	r8,r10
80007de2:	e0 88 00 03 	brls	80007de8 <_malloc_r+0x3e8>
80007de6:	93 08       	st.w	r9[0x0],r8
80007de8:	68 28       	ld.w	r8,r4[0x8]
80007dea:	70 18       	ld.w	r8,r8[0x4]
80007dec:	e0 18 ff fc 	andl	r8,0xfffc
80007df0:	0e 38       	cp.w	r8,r7
80007df2:	5f 39       	srlo	r9
80007df4:	0e 18       	sub	r8,r7
80007df6:	58 f8       	cp.w	r8,15
80007df8:	5f aa       	srle	r10
80007dfa:	f5 e9 10 09 	or	r9,r10,r9
80007dfe:	c1 50       	breq	80007e28 <_malloc_r+0x428>
80007e00:	0a 9c       	mov	r12,r5
80007e02:	f0 1f 00 09 	mcall	80007e24 <_malloc_r+0x424>
80007e06:	d8 3a       	popm	r0-r7,pc,r12=0
80007e08:	00 00       	add	r0,r0
80007e0a:	0f 54       	ld.sh	r4,--r7
80007e0c:	00 00       	add	r0,r0
80007e0e:	05 d4       	ld.ub	r4,r2[0x5]
80007e10:	80 00       	ld.sh	r0,r0[0x0]
80007e12:	83 a4       	st.w	r1[0x28],r4
80007e14:	00 00       	add	r0,r0
80007e16:	0f 58       	ld.sh	r8,--r7
80007e18:	80 00       	ld.sh	r0,r0[0x0]
80007e1a:	bc 70       	st.h	lr[0xe],r0
80007e1c:	00 00       	add	r0,r0
80007e1e:	0f 50       	ld.sh	r0,--r7
80007e20:	00 00       	add	r0,r0
80007e22:	0f 4c       	ld.w	r12,--r7
80007e24:	80 00       	ld.sh	r0,r0[0x0]
80007e26:	80 1e       	ld.sh	lr,r0[0x2]
80007e28:	68 26       	ld.w	r6,r4[0x8]
80007e2a:	a1 a8       	sbr	r8,0x0
80007e2c:	0e 99       	mov	r9,r7
80007e2e:	a1 a9       	sbr	r9,0x0
80007e30:	8d 19       	st.w	r6[0x4],r9
80007e32:	ec 07 00 07 	add	r7,r6,r7
80007e36:	0a 9c       	mov	r12,r5
80007e38:	89 27       	st.w	r4[0x8],r7
80007e3a:	8f 18       	st.w	r7[0x4],r8
80007e3c:	f0 1f 00 03 	mcall	80007e48 <_malloc_r+0x448>
80007e40:	ec cc ff f8 	sub	r12,r6,-8
80007e44:	d8 32       	popm	r0-r7,pc
80007e46:	00 00       	add	r0,r0
80007e48:	80 00       	ld.sh	r0,r0[0x0]
80007e4a:	80 1e       	ld.sh	lr,r0[0x2]

80007e4c <memchr>:
80007e4c:	f7 db c0 08 	bfextu	r11,r11,0x0,0x8
80007e50:	c0 68       	rjmp	80007e5c <memchr+0x10>
80007e52:	20 1a       	sub	r10,1
80007e54:	19 88       	ld.ub	r8,r12[0x0]
80007e56:	16 38       	cp.w	r8,r11
80007e58:	5e 0c       	reteq	r12
80007e5a:	2f fc       	sub	r12,-1
80007e5c:	58 0a       	cp.w	r10,0
80007e5e:	cf a1       	brne	80007e52 <memchr+0x6>
80007e60:	5e fa       	retal	r10

80007e62 <memcmp>:
80007e62:	d4 01       	pushm	lr
80007e64:	30 08       	mov	r8,0
80007e66:	c0 d8       	rjmp	80007e80 <memcmp+0x1e>
80007e68:	f8 08 07 0e 	ld.ub	lr,r12[r8]
80007e6c:	f6 08 07 09 	ld.ub	r9,r11[r8]
80007e70:	20 1a       	sub	r10,1
80007e72:	2f f8       	sub	r8,-1
80007e74:	f2 0e 18 00 	cp.b	lr,r9
80007e78:	c0 40       	breq	80007e80 <memcmp+0x1e>
80007e7a:	fc 09 01 0c 	sub	r12,lr,r9
80007e7e:	d8 02       	popm	pc
80007e80:	58 0a       	cp.w	r10,0
80007e82:	cf 31       	brne	80007e68 <memcmp+0x6>
80007e84:	14 9c       	mov	r12,r10
80007e86:	d8 02       	popm	pc

80007e88 <memcpy>:
80007e88:	58 8a       	cp.w	r10,8
80007e8a:	c2 f5       	brlt	80007ee8 <memcpy+0x60>
80007e8c:	f9 eb 10 09 	or	r9,r12,r11
80007e90:	e2 19 00 03 	andl	r9,0x3,COH
80007e94:	e0 81 00 97 	brne	80007fc2 <memcpy+0x13a>
80007e98:	e0 4a 00 20 	cp.w	r10,32
80007e9c:	c3 b4       	brge	80007f12 <memcpy+0x8a>
80007e9e:	f4 08 14 02 	asr	r8,r10,0x2
80007ea2:	f0 09 11 08 	rsub	r9,r8,8
80007ea6:	fe 09 00 2f 	add	pc,pc,r9<<0x2
80007eaa:	76 69       	ld.w	r9,r11[0x18]
80007eac:	99 69       	st.w	r12[0x18],r9
80007eae:	76 59       	ld.w	r9,r11[0x14]
80007eb0:	99 59       	st.w	r12[0x14],r9
80007eb2:	76 49       	ld.w	r9,r11[0x10]
80007eb4:	99 49       	st.w	r12[0x10],r9
80007eb6:	76 39       	ld.w	r9,r11[0xc]
80007eb8:	99 39       	st.w	r12[0xc],r9
80007eba:	76 29       	ld.w	r9,r11[0x8]
80007ebc:	99 29       	st.w	r12[0x8],r9
80007ebe:	76 19       	ld.w	r9,r11[0x4]
80007ec0:	99 19       	st.w	r12[0x4],r9
80007ec2:	76 09       	ld.w	r9,r11[0x0]
80007ec4:	99 09       	st.w	r12[0x0],r9
80007ec6:	f6 08 00 2b 	add	r11,r11,r8<<0x2
80007eca:	f8 08 00 28 	add	r8,r12,r8<<0x2
80007ece:	e0 1a 00 03 	andl	r10,0x3
80007ed2:	f4 0a 11 04 	rsub	r10,r10,4
80007ed6:	fe 0a 00 2f 	add	pc,pc,r10<<0x2
80007eda:	17 a9       	ld.ub	r9,r11[0x2]
80007edc:	b0 a9       	st.b	r8[0x2],r9
80007ede:	17 99       	ld.ub	r9,r11[0x1]
80007ee0:	b0 99       	st.b	r8[0x1],r9
80007ee2:	17 89       	ld.ub	r9,r11[0x0]
80007ee4:	b0 89       	st.b	r8[0x0],r9
80007ee6:	5e fc       	retal	r12
80007ee8:	f4 0a 11 09 	rsub	r10,r10,9
80007eec:	fe 0a 00 2f 	add	pc,pc,r10<<0x2
80007ef0:	17 f9       	ld.ub	r9,r11[0x7]
80007ef2:	b8 f9       	st.b	r12[0x7],r9
80007ef4:	17 e9       	ld.ub	r9,r11[0x6]
80007ef6:	b8 e9       	st.b	r12[0x6],r9
80007ef8:	17 d9       	ld.ub	r9,r11[0x5]
80007efa:	b8 d9       	st.b	r12[0x5],r9
80007efc:	17 c9       	ld.ub	r9,r11[0x4]
80007efe:	b8 c9       	st.b	r12[0x4],r9
80007f00:	17 b9       	ld.ub	r9,r11[0x3]
80007f02:	b8 b9       	st.b	r12[0x3],r9
80007f04:	17 a9       	ld.ub	r9,r11[0x2]
80007f06:	b8 a9       	st.b	r12[0x2],r9
80007f08:	17 99       	ld.ub	r9,r11[0x1]
80007f0a:	b8 99       	st.b	r12[0x1],r9
80007f0c:	17 89       	ld.ub	r9,r11[0x0]
80007f0e:	b8 89       	st.b	r12[0x0],r9
80007f10:	5e fc       	retal	r12
80007f12:	eb cd 40 c0 	pushm	r6-r7,lr
80007f16:	18 99       	mov	r9,r12
80007f18:	22 0a       	sub	r10,32
80007f1a:	b7 07       	ld.d	r6,r11++
80007f1c:	b3 26       	st.d	r9++,r6
80007f1e:	b7 07       	ld.d	r6,r11++
80007f20:	b3 26       	st.d	r9++,r6
80007f22:	b7 07       	ld.d	r6,r11++
80007f24:	b3 26       	st.d	r9++,r6
80007f26:	b7 07       	ld.d	r6,r11++
80007f28:	b3 26       	st.d	r9++,r6
80007f2a:	22 0a       	sub	r10,32
80007f2c:	cf 74       	brge	80007f1a <memcpy+0x92>
80007f2e:	2f 0a       	sub	r10,-16
80007f30:	c0 65       	brlt	80007f3c <memcpy+0xb4>
80007f32:	b7 07       	ld.d	r6,r11++
80007f34:	b3 26       	st.d	r9++,r6
80007f36:	b7 07       	ld.d	r6,r11++
80007f38:	b3 26       	st.d	r9++,r6
80007f3a:	21 0a       	sub	r10,16
80007f3c:	5c 3a       	neg	r10
80007f3e:	fe 0a 00 3f 	add	pc,pc,r10<<0x3
80007f42:	d7 03       	nop
80007f44:	d7 03       	nop
80007f46:	f7 36 00 0e 	ld.ub	r6,r11[14]
80007f4a:	f3 66 00 0e 	st.b	r9[14],r6
80007f4e:	f7 36 00 0d 	ld.ub	r6,r11[13]
80007f52:	f3 66 00 0d 	st.b	r9[13],r6
80007f56:	f7 36 00 0c 	ld.ub	r6,r11[12]
80007f5a:	f3 66 00 0c 	st.b	r9[12],r6
80007f5e:	f7 36 00 0b 	ld.ub	r6,r11[11]
80007f62:	f3 66 00 0b 	st.b	r9[11],r6
80007f66:	f7 36 00 0a 	ld.ub	r6,r11[10]
80007f6a:	f3 66 00 0a 	st.b	r9[10],r6
80007f6e:	f7 36 00 09 	ld.ub	r6,r11[9]
80007f72:	f3 66 00 09 	st.b	r9[9],r6
80007f76:	f7 36 00 08 	ld.ub	r6,r11[8]
80007f7a:	f3 66 00 08 	st.b	r9[8],r6
80007f7e:	f7 36 00 07 	ld.ub	r6,r11[7]
80007f82:	f3 66 00 07 	st.b	r9[7],r6
80007f86:	f7 36 00 06 	ld.ub	r6,r11[6]
80007f8a:	f3 66 00 06 	st.b	r9[6],r6
80007f8e:	f7 36 00 05 	ld.ub	r6,r11[5]
80007f92:	f3 66 00 05 	st.b	r9[5],r6
80007f96:	f7 36 00 04 	ld.ub	r6,r11[4]
80007f9a:	f3 66 00 04 	st.b	r9[4],r6
80007f9e:	f7 36 00 03 	ld.ub	r6,r11[3]
80007fa2:	f3 66 00 03 	st.b	r9[3],r6
80007fa6:	f7 36 00 02 	ld.ub	r6,r11[2]
80007faa:	f3 66 00 02 	st.b	r9[2],r6
80007fae:	f7 36 00 01 	ld.ub	r6,r11[1]
80007fb2:	f3 66 00 01 	st.b	r9[1],r6
80007fb6:	f7 36 00 00 	ld.ub	r6,r11[0]
80007fba:	f3 66 00 00 	st.b	r9[0],r6
80007fbe:	e3 cd 80 c0 	ldm	sp++,r6-r7,pc
80007fc2:	20 1a       	sub	r10,1
80007fc4:	f6 0a 07 09 	ld.ub	r9,r11[r10]
80007fc8:	f8 0a 0b 09 	st.b	r12[r10],r9
80007fcc:	cf b1       	brne	80007fc2 <memcpy+0x13a>
80007fce:	5e fc       	retal	r12

80007fd0 <memmove>:
80007fd0:	d4 01       	pushm	lr
80007fd2:	18 3b       	cp.w	r11,r12
80007fd4:	c1 92       	brcc	80008006 <memmove+0x36>
80007fd6:	f6 0a 00 09 	add	r9,r11,r10
80007fda:	12 3c       	cp.w	r12,r9
80007fdc:	c1 52       	brcc	80008006 <memmove+0x36>
80007fde:	f8 0a 00 0b 	add	r11,r12,r10
80007fe2:	30 08       	mov	r8,0
80007fe4:	c0 68       	rjmp	80007ff0 <memmove+0x20>
80007fe6:	f2 08 07 0e 	ld.ub	lr,r9[r8]
80007fea:	20 1a       	sub	r10,1
80007fec:	f6 08 0b 0e 	st.b	r11[r8],lr
80007ff0:	20 18       	sub	r8,1
80007ff2:	58 0a       	cp.w	r10,0
80007ff4:	cf 91       	brne	80007fe6 <memmove+0x16>
80007ff6:	d8 02       	popm	pc
80007ff8:	f6 08 07 09 	ld.ub	r9,r11[r8]
80007ffc:	20 1a       	sub	r10,1
80007ffe:	f8 08 0b 09 	st.b	r12[r8],r9
80008002:	2f f8       	sub	r8,-1
80008004:	c0 28       	rjmp	80008008 <memmove+0x38>
80008006:	30 08       	mov	r8,0
80008008:	58 0a       	cp.w	r10,0
8000800a:	cf 71       	brne	80007ff8 <memmove+0x28>
8000800c:	d8 02       	popm	pc

8000800e <memset>:
8000800e:	18 98       	mov	r8,r12
80008010:	c0 38       	rjmp	80008016 <memset+0x8>
80008012:	10 cb       	st.b	r8++,r11
80008014:	20 1a       	sub	r10,1
80008016:	58 0a       	cp.w	r10,0
80008018:	cf d1       	brne	80008012 <memset+0x4>
8000801a:	5e fc       	retal	r12

8000801c <__malloc_lock>:
8000801c:	5e fc       	retal	r12

8000801e <__malloc_unlock>:
8000801e:	5e fc       	retal	r12

80008020 <_putc_r>:
80008020:	d4 21       	pushm	r4-r7,lr
80008022:	20 2d       	sub	sp,8
80008024:	18 97       	mov	r7,r12
80008026:	58 0c       	cp.w	r12,0
80008028:	c0 a0       	breq	8000803c <_putc_r+0x1c>
8000802a:	78 68       	ld.w	r8,r12[0x18]
8000802c:	58 08       	cp.w	r8,0
8000802e:	c0 71       	brne	8000803c <_putc_r+0x1c>
80008030:	50 1b       	stdsp	sp[0x4],r11
80008032:	50 0a       	stdsp	sp[0x0],r10
80008034:	f0 1f 00 19 	mcall	80008098 <_putc_r+0x78>
80008038:	40 0a       	lddsp	r10,sp[0x0]
8000803a:	40 1b       	lddsp	r11,sp[0x4]
8000803c:	49 88       	lddpc	r8,8000809c <_putc_r+0x7c>
8000803e:	10 3a       	cp.w	r10,r8
80008040:	c0 31       	brne	80008046 <_putc_r+0x26>
80008042:	6e 0a       	ld.w	r10,r7[0x0]
80008044:	c0 a8       	rjmp	80008058 <_putc_r+0x38>
80008046:	49 78       	lddpc	r8,800080a0 <_putc_r+0x80>
80008048:	10 3a       	cp.w	r10,r8
8000804a:	c0 31       	brne	80008050 <_putc_r+0x30>
8000804c:	6e 1a       	ld.w	r10,r7[0x4]
8000804e:	c0 58       	rjmp	80008058 <_putc_r+0x38>
80008050:	49 58       	lddpc	r8,800080a4 <_putc_r+0x84>
80008052:	10 3a       	cp.w	r10,r8
80008054:	c0 21       	brne	80008058 <_putc_r+0x38>
80008056:	6e 2a       	ld.w	r10,r7[0x8]
80008058:	74 28       	ld.w	r8,r10[0x8]
8000805a:	20 18       	sub	r8,1
8000805c:	95 28       	st.w	r10[0x8],r8
8000805e:	c1 57       	brpl	80008088 <_putc_r+0x68>
80008060:	74 69       	ld.w	r9,r10[0x18]
80008062:	12 38       	cp.w	r8,r9
80008064:	c0 e5       	brlt	80008080 <_putc_r+0x60>
80008066:	74 08       	ld.w	r8,r10[0x0]
80008068:	b0 8b       	st.b	r8[0x0],r11
8000806a:	30 a9       	mov	r9,10
8000806c:	74 08       	ld.w	r8,r10[0x0]
8000806e:	11 8c       	ld.ub	r12,r8[0x0]
80008070:	f2 0c 18 00 	cp.b	r12,r9
80008074:	c0 30       	breq	8000807a <_putc_r+0x5a>
80008076:	2f f8       	sub	r8,-1
80008078:	c0 c8       	rjmp	80008090 <_putc_r+0x70>
8000807a:	0e 9c       	mov	r12,r7
8000807c:	30 ab       	mov	r11,10
8000807e:	c0 28       	rjmp	80008082 <_putc_r+0x62>
80008080:	0e 9c       	mov	r12,r7
80008082:	f0 1f 00 0a 	mcall	800080a8 <_putc_r+0x88>
80008086:	c0 68       	rjmp	80008092 <_putc_r+0x72>
80008088:	74 08       	ld.w	r8,r10[0x0]
8000808a:	b0 8b       	st.b	r8[0x0],r11
8000808c:	74 08       	ld.w	r8,r10[0x0]
8000808e:	11 3c       	ld.ub	r12,r8++
80008090:	95 08       	st.w	r10[0x0],r8
80008092:	2f ed       	sub	sp,-8
80008094:	d8 22       	popm	r4-r7,pc
80008096:	00 00       	add	r0,r0
80008098:	80 00       	ld.sh	r0,r0[0x0]
8000809a:	bb 18       	ld.d	r8,--sp
8000809c:	80 00       	ld.sh	r0,r0[0x0]
8000809e:	df 64       	*unknown*
800080a0:	80 00       	ld.sh	r0,r0[0x0]
800080a2:	df 84       	*unknown*
800080a4:	80 00       	ld.sh	r0,r0[0x0]
800080a6:	df a4       	*unknown*
800080a8:	80 00       	ld.sh	r0,r0[0x0]
800080aa:	a9 c0       	cbr	r0,0x8

800080ac <realloc>:
800080ac:	d4 01       	pushm	lr
800080ae:	48 48       	lddpc	r8,800080bc <realloc+0x10>
800080b0:	16 9a       	mov	r10,r11
800080b2:	18 9b       	mov	r11,r12
800080b4:	70 0c       	ld.w	r12,r8[0x0]
800080b6:	f0 1f 00 03 	mcall	800080c0 <realloc+0x14>
800080ba:	d8 02       	popm	pc
800080bc:	00 00       	add	r0,r0
800080be:	01 c4       	ld.ub	r4,r0[0x4]
800080c0:	80 00       	ld.sh	r0,r0[0x0]
800080c2:	80 c4       	ld.uh	r4,r0[0x8]

800080c4 <_realloc_r>:
800080c4:	d4 31       	pushm	r0-r7,lr
800080c6:	20 1d       	sub	sp,4
800080c8:	16 94       	mov	r4,r11
800080ca:	18 92       	mov	r2,r12
800080cc:	14 9b       	mov	r11,r10
800080ce:	58 04       	cp.w	r4,0
800080d0:	c0 51       	brne	800080da <_realloc_r+0x16>
800080d2:	f0 1f 00 5b 	mcall	8000823c <_realloc_r+0x178>
800080d6:	18 95       	mov	r5,r12
800080d8:	c5 b9       	rjmp	8000838e <_realloc_r+0x2ca>
800080da:	50 0a       	stdsp	sp[0x0],r10
800080dc:	f0 1f 00 59 	mcall	80008240 <_realloc_r+0x17c>
800080e0:	40 0b       	lddsp	r11,sp[0x0]
800080e2:	f6 c8 ff f5 	sub	r8,r11,-11
800080e6:	e8 c1 00 08 	sub	r1,r4,8
800080ea:	10 96       	mov	r6,r8
800080ec:	62 1c       	ld.w	r12,r1[0x4]
800080ee:	e0 16 ff f8 	andl	r6,0xfff8
800080f2:	59 68       	cp.w	r8,22
800080f4:	f9 b6 08 10 	movls	r6,16
800080f8:	16 36       	cp.w	r6,r11
800080fa:	5f 38       	srlo	r8
800080fc:	f1 e6 13 f8 	or	r8,r8,r6>>0x1f
80008100:	c0 50       	breq	8000810a <_realloc_r+0x46>
80008102:	30 c8       	mov	r8,12
80008104:	30 05       	mov	r5,0
80008106:	85 38       	st.w	r2[0xc],r8
80008108:	c4 39       	rjmp	8000838e <_realloc_r+0x2ca>
8000810a:	18 90       	mov	r0,r12
8000810c:	e0 10 ff fc 	andl	r0,0xfffc
80008110:	0c 30       	cp.w	r0,r6
80008112:	e0 84 01 13 	brge	80008338 <_realloc_r+0x274>
80008116:	4c c8       	lddpc	r8,80008244 <_realloc_r+0x180>
80008118:	e2 00 00 09 	add	r9,r1,r0
8000811c:	70 25       	ld.w	r5,r8[0x8]
8000811e:	0a 39       	cp.w	r9,r5
80008120:	c0 90       	breq	80008132 <_realloc_r+0x6e>
80008122:	72 1a       	ld.w	r10,r9[0x4]
80008124:	a1 ca       	cbr	r10,0x0
80008126:	f2 0a 00 0a 	add	r10,r9,r10
8000812a:	74 1a       	ld.w	r10,r10[0x4]
8000812c:	ed ba 00 00 	bld	r10,0x0
80008130:	c2 20       	breq	80008174 <_realloc_r+0xb0>
80008132:	72 1a       	ld.w	r10,r9[0x4]
80008134:	e0 1a ff fc 	andl	r10,0xfffc
80008138:	f4 00 00 03 	add	r3,r10,r0
8000813c:	0a 39       	cp.w	r9,r5
8000813e:	c1 31       	brne	80008164 <_realloc_r+0xa0>
80008140:	ec c7 ff f0 	sub	r7,r6,-16
80008144:	0e 33       	cp.w	r3,r7
80008146:	c1 95       	brlt	80008178 <_realloc_r+0xb4>
80008148:	e2 06 00 09 	add	r9,r1,r6
8000814c:	0c 13       	sub	r3,r6
8000814e:	a1 a3       	sbr	r3,0x0
80008150:	93 13       	st.w	r9[0x4],r3
80008152:	91 29       	st.w	r8[0x8],r9
80008154:	04 9c       	mov	r12,r2
80008156:	62 18       	ld.w	r8,r1[0x4]
80008158:	08 95       	mov	r5,r4
8000815a:	f1 d8 c0 01 	bfextu	r8,r8,0x0,0x1
8000815e:	10 46       	or	r6,r8
80008160:	83 16       	st.w	r1[0x4],r6
80008162:	c1 49       	rjmp	8000838a <_realloc_r+0x2c6>
80008164:	0c 33       	cp.w	r3,r6
80008166:	c0 95       	brlt	80008178 <_realloc_r+0xb4>
80008168:	72 28       	ld.w	r8,r9[0x8]
8000816a:	02 97       	mov	r7,r1
8000816c:	72 39       	ld.w	r9,r9[0xc]
8000816e:	93 28       	st.w	r9[0x8],r8
80008170:	91 39       	st.w	r8[0xc],r9
80008172:	ce 58       	rjmp	8000833c <_realloc_r+0x278>
80008174:	30 0a       	mov	r10,0
80008176:	14 99       	mov	r9,r10
80008178:	ed bc 00 00 	bld	r12,0x0
8000817c:	e0 80 00 9e 	breq	800082b8 <_realloc_r+0x1f4>
80008180:	62 07       	ld.w	r7,r1[0x0]
80008182:	e2 07 01 07 	sub	r7,r1,r7
80008186:	6e 1c       	ld.w	r12,r7[0x4]
80008188:	e0 1c ff fc 	andl	r12,0xfffc
8000818c:	58 09       	cp.w	r9,0
8000818e:	c5 f0       	breq	8000824c <_realloc_r+0x188>
80008190:	f8 00 00 03 	add	r3,r12,r0
80008194:	0a 39       	cp.w	r9,r5
80008196:	c4 81       	brne	80008226 <_realloc_r+0x162>
80008198:	14 03       	add	r3,r10
8000819a:	ec c9 ff f0 	sub	r9,r6,-16
8000819e:	12 33       	cp.w	r3,r9
800081a0:	c5 65       	brlt	8000824c <_realloc_r+0x188>
800081a2:	6e 3a       	ld.w	r10,r7[0xc]
800081a4:	6e 29       	ld.w	r9,r7[0x8]
800081a6:	95 29       	st.w	r10[0x8],r9
800081a8:	93 3a       	st.w	r9[0xc],r10
800081aa:	ee c5 ff f8 	sub	r5,r7,-8
800081ae:	e0 ca 00 04 	sub	r10,r0,4
800081b2:	e0 4a 00 24 	cp.w	r10,36
800081b6:	e0 8b 00 25 	brhi	80008200 <_realloc_r+0x13c>
800081ba:	0a 99       	mov	r9,r5
800081bc:	59 3a       	cp.w	r10,19
800081be:	e0 88 00 1a 	brls	800081f2 <_realloc_r+0x12e>
800081c2:	09 09       	ld.w	r9,r4++
800081c4:	8b 09       	st.w	r5[0x0],r9
800081c6:	09 09       	ld.w	r9,r4++
800081c8:	8f 39       	st.w	r7[0xc],r9
800081ca:	ee c9 ff f0 	sub	r9,r7,-16
800081ce:	59 ba       	cp.w	r10,27
800081d0:	e0 88 00 11 	brls	800081f2 <_realloc_r+0x12e>
800081d4:	09 0b       	ld.w	r11,r4++
800081d6:	93 0b       	st.w	r9[0x0],r11
800081d8:	09 09       	ld.w	r9,r4++
800081da:	8f 59       	st.w	r7[0x14],r9
800081dc:	ee c9 ff e8 	sub	r9,r7,-24
800081e0:	e0 4a 00 24 	cp.w	r10,36
800081e4:	c0 71       	brne	800081f2 <_realloc_r+0x12e>
800081e6:	09 0a       	ld.w	r10,r4++
800081e8:	93 0a       	st.w	r9[0x0],r10
800081ea:	ee c9 ff e0 	sub	r9,r7,-32
800081ee:	09 0a       	ld.w	r10,r4++
800081f0:	8f 7a       	st.w	r7[0x1c],r10
800081f2:	09 0a       	ld.w	r10,r4++
800081f4:	12 aa       	st.w	r9++,r10
800081f6:	68 0a       	ld.w	r10,r4[0x0]
800081f8:	93 0a       	st.w	r9[0x0],r10
800081fa:	68 1a       	ld.w	r10,r4[0x4]
800081fc:	93 1a       	st.w	r9[0x4],r10
800081fe:	c0 78       	rjmp	8000820c <_realloc_r+0x148>
80008200:	50 08       	stdsp	sp[0x0],r8
80008202:	08 9b       	mov	r11,r4
80008204:	0a 9c       	mov	r12,r5
80008206:	f0 1f 00 11 	mcall	80008248 <_realloc_r+0x184>
8000820a:	40 08       	lddsp	r8,sp[0x0]
8000820c:	ee 06 00 09 	add	r9,r7,r6
80008210:	0c 13       	sub	r3,r6
80008212:	a1 a3       	sbr	r3,0x0
80008214:	93 13       	st.w	r9[0x4],r3
80008216:	91 29       	st.w	r8[0x8],r9
80008218:	04 9c       	mov	r12,r2
8000821a:	6e 18       	ld.w	r8,r7[0x4]
8000821c:	f1 d8 c0 01 	bfextu	r8,r8,0x0,0x1
80008220:	10 46       	or	r6,r8
80008222:	8f 16       	st.w	r7[0x4],r6
80008224:	cb 38       	rjmp	8000838a <_realloc_r+0x2c6>
80008226:	14 03       	add	r3,r10
80008228:	0c 33       	cp.w	r3,r6
8000822a:	c1 15       	brlt	8000824c <_realloc_r+0x188>
8000822c:	72 28       	ld.w	r8,r9[0x8]
8000822e:	72 39       	ld.w	r9,r9[0xc]
80008230:	93 28       	st.w	r9[0x8],r8
80008232:	91 39       	st.w	r8[0xc],r9
80008234:	6e 28       	ld.w	r8,r7[0x8]
80008236:	6e 39       	ld.w	r9,r7[0xc]
80008238:	c1 08       	rjmp	80008258 <_realloc_r+0x194>
8000823a:	00 00       	add	r0,r0
8000823c:	80 00       	ld.sh	r0,r0[0x0]
8000823e:	7a 00       	ld.w	r0,sp[0x0]
80008240:	80 00       	ld.sh	r0,r0[0x0]
80008242:	80 1c       	ld.sh	r12,r0[0x2]
80008244:	00 00       	add	r0,r0
80008246:	01 c8       	ld.ub	r8,r0[0x4]
80008248:	80 00       	ld.sh	r0,r0[0x0]
8000824a:	7f d0       	ld.w	r0,pc[0x74]
8000824c:	f8 00 00 03 	add	r3,r12,r0
80008250:	0c 33       	cp.w	r3,r6
80008252:	c3 35       	brlt	800082b8 <_realloc_r+0x1f4>
80008254:	6e 39       	ld.w	r9,r7[0xc]
80008256:	6e 28       	ld.w	r8,r7[0x8]
80008258:	93 28       	st.w	r9[0x8],r8
8000825a:	91 39       	st.w	r8[0xc],r9
8000825c:	e0 ca 00 04 	sub	r10,r0,4
80008260:	ee cc ff f8 	sub	r12,r7,-8
80008264:	e0 4a 00 24 	cp.w	r10,36
80008268:	e0 8b 00 24 	brhi	800082b0 <_realloc_r+0x1ec>
8000826c:	59 3a       	cp.w	r10,19
8000826e:	e0 88 00 1a 	brls	800082a2 <_realloc_r+0x1de>
80008272:	09 08       	ld.w	r8,r4++
80008274:	99 08       	st.w	r12[0x0],r8
80008276:	09 08       	ld.w	r8,r4++
80008278:	8f 38       	st.w	r7[0xc],r8
8000827a:	ee cc ff f0 	sub	r12,r7,-16
8000827e:	59 ba       	cp.w	r10,27
80008280:	e0 88 00 11 	brls	800082a2 <_realloc_r+0x1de>
80008284:	09 08       	ld.w	r8,r4++
80008286:	99 08       	st.w	r12[0x0],r8
80008288:	09 08       	ld.w	r8,r4++
8000828a:	8f 58       	st.w	r7[0x14],r8
8000828c:	ee cc ff e8 	sub	r12,r7,-24
80008290:	e0 4a 00 24 	cp.w	r10,36
80008294:	c0 71       	brne	800082a2 <_realloc_r+0x1de>
80008296:	09 08       	ld.w	r8,r4++
80008298:	99 08       	st.w	r12[0x0],r8
8000829a:	ee cc ff e0 	sub	r12,r7,-32
8000829e:	09 08       	ld.w	r8,r4++
800082a0:	8f 78       	st.w	r7[0x1c],r8
800082a2:	09 08       	ld.w	r8,r4++
800082a4:	18 a8       	st.w	r12++,r8
800082a6:	68 08       	ld.w	r8,r4[0x0]
800082a8:	99 08       	st.w	r12[0x0],r8
800082aa:	68 18       	ld.w	r8,r4[0x4]
800082ac:	99 18       	st.w	r12[0x4],r8
800082ae:	c4 78       	rjmp	8000833c <_realloc_r+0x278>
800082b0:	08 9b       	mov	r11,r4
800082b2:	f0 1f 00 39 	mcall	80008394 <_realloc_r+0x2d0>
800082b6:	c4 38       	rjmp	8000833c <_realloc_r+0x278>
800082b8:	04 9c       	mov	r12,r2
800082ba:	f0 1f 00 38 	mcall	80008398 <_realloc_r+0x2d4>
800082be:	18 95       	mov	r5,r12
800082c0:	c3 a0       	breq	80008334 <_realloc_r+0x270>
800082c2:	62 18       	ld.w	r8,r1[0x4]
800082c4:	f8 c9 00 08 	sub	r9,r12,8
800082c8:	a1 c8       	cbr	r8,0x0
800082ca:	e2 08 00 08 	add	r8,r1,r8
800082ce:	10 39       	cp.w	r9,r8
800082d0:	c0 71       	brne	800082de <_realloc_r+0x21a>
800082d2:	72 13       	ld.w	r3,r9[0x4]
800082d4:	02 97       	mov	r7,r1
800082d6:	e0 13 ff fc 	andl	r3,0xfffc
800082da:	00 03       	add	r3,r0
800082dc:	c3 08       	rjmp	8000833c <_realloc_r+0x278>
800082de:	e0 ca 00 04 	sub	r10,r0,4
800082e2:	e0 4a 00 24 	cp.w	r10,36
800082e6:	e0 8b 00 20 	brhi	80008326 <_realloc_r+0x262>
800082ea:	08 99       	mov	r9,r4
800082ec:	18 98       	mov	r8,r12
800082ee:	59 3a       	cp.w	r10,19
800082f0:	e0 88 00 14 	brls	80008318 <_realloc_r+0x254>
800082f4:	13 0b       	ld.w	r11,r9++
800082f6:	10 ab       	st.w	r8++,r11
800082f8:	13 0b       	ld.w	r11,r9++
800082fa:	10 ab       	st.w	r8++,r11
800082fc:	59 ba       	cp.w	r10,27
800082fe:	e0 88 00 0d 	brls	80008318 <_realloc_r+0x254>
80008302:	13 0b       	ld.w	r11,r9++
80008304:	10 ab       	st.w	r8++,r11
80008306:	13 0b       	ld.w	r11,r9++
80008308:	10 ab       	st.w	r8++,r11
8000830a:	e0 4a 00 24 	cp.w	r10,36
8000830e:	c0 51       	brne	80008318 <_realloc_r+0x254>
80008310:	13 0a       	ld.w	r10,r9++
80008312:	10 aa       	st.w	r8++,r10
80008314:	13 0a       	ld.w	r10,r9++
80008316:	10 aa       	st.w	r8++,r10
80008318:	13 0a       	ld.w	r10,r9++
8000831a:	10 aa       	st.w	r8++,r10
8000831c:	72 0a       	ld.w	r10,r9[0x0]
8000831e:	91 0a       	st.w	r8[0x0],r10
80008320:	72 19       	ld.w	r9,r9[0x4]
80008322:	91 19       	st.w	r8[0x4],r9
80008324:	c0 48       	rjmp	8000832c <_realloc_r+0x268>
80008326:	08 9b       	mov	r11,r4
80008328:	f0 1f 00 1b 	mcall	80008394 <_realloc_r+0x2d0>
8000832c:	08 9b       	mov	r11,r4
8000832e:	04 9c       	mov	r12,r2
80008330:	f0 1f 00 1b 	mcall	8000839c <_realloc_r+0x2d8>
80008334:	04 9c       	mov	r12,r2
80008336:	c2 a8       	rjmp	8000838a <_realloc_r+0x2c6>
80008338:	00 93       	mov	r3,r0
8000833a:	02 97       	mov	r7,r1
8000833c:	e6 06 01 09 	sub	r9,r3,r6
80008340:	6e 18       	ld.w	r8,r7[0x4]
80008342:	58 f9       	cp.w	r9,15
80008344:	e0 88 00 16 	brls	80008370 <_realloc_r+0x2ac>
80008348:	f1 d8 c0 01 	bfextu	r8,r8,0x0,0x1
8000834c:	ed e8 10 08 	or	r8,r6,r8
80008350:	8f 18       	st.w	r7[0x4],r8
80008352:	12 98       	mov	r8,r9
80008354:	a1 a8       	sbr	r8,0x0
80008356:	ee 06 00 0b 	add	r11,r7,r6
8000835a:	f6 09 00 09 	add	r9,r11,r9
8000835e:	97 18       	st.w	r11[0x4],r8
80008360:	72 18       	ld.w	r8,r9[0x4]
80008362:	a1 a8       	sbr	r8,0x0
80008364:	2f 8b       	sub	r11,-8
80008366:	93 18       	st.w	r9[0x4],r8
80008368:	04 9c       	mov	r12,r2
8000836a:	f0 1f 00 0d 	mcall	8000839c <_realloc_r+0x2d8>
8000836e:	c0 b8       	rjmp	80008384 <_realloc_r+0x2c0>
80008370:	f1 d8 c0 01 	bfextu	r8,r8,0x0,0x1
80008374:	e7 e8 10 08 	or	r8,r3,r8
80008378:	8f 18       	st.w	r7[0x4],r8
8000837a:	ee 03 00 03 	add	r3,r7,r3
8000837e:	66 18       	ld.w	r8,r3[0x4]
80008380:	a1 a8       	sbr	r8,0x0
80008382:	87 18       	st.w	r3[0x4],r8
80008384:	04 9c       	mov	r12,r2
80008386:	ee c5 ff f8 	sub	r5,r7,-8
8000838a:	f0 1f 00 06 	mcall	800083a0 <_realloc_r+0x2dc>
8000838e:	0a 9c       	mov	r12,r5
80008390:	2f fd       	sub	sp,-4
80008392:	d8 32       	popm	r0-r7,pc
80008394:	80 00       	ld.sh	r0,r0[0x0]
80008396:	7f d0       	ld.w	r0,pc[0x74]
80008398:	80 00       	ld.sh	r0,r0[0x0]
8000839a:	7a 00       	ld.w	r0,sp[0x0]
8000839c:	80 00       	ld.sh	r0,r0[0x0]
8000839e:	bc 70       	st.h	lr[0xe],r0
800083a0:	80 00       	ld.sh	r0,r0[0x0]
800083a2:	80 1e       	ld.sh	lr,r0[0x2]

800083a4 <_sbrk_r>:
800083a4:	d4 21       	pushm	r4-r7,lr
800083a6:	30 08       	mov	r8,0
800083a8:	18 97       	mov	r7,r12
800083aa:	48 76       	lddpc	r6,800083c4 <_sbrk_r+0x20>
800083ac:	16 9c       	mov	r12,r11
800083ae:	8d 08       	st.w	r6[0x0],r8
800083b0:	f0 1f 00 06 	mcall	800083c8 <_sbrk_r+0x24>
800083b4:	5b fc       	cp.w	r12,-1
800083b6:	c0 51       	brne	800083c0 <_sbrk_r+0x1c>
800083b8:	6c 08       	ld.w	r8,r6[0x0]
800083ba:	58 08       	cp.w	r8,0
800083bc:	c0 20       	breq	800083c0 <_sbrk_r+0x1c>
800083be:	8f 38       	st.w	r7[0xc],r8
800083c0:	d8 22       	popm	r4-r7,pc
800083c2:	00 00       	add	r0,r0
800083c4:	00 00       	add	r0,r0
800083c6:	0f 84       	ld.ub	r4,r7[0x0]
800083c8:	80 00       	ld.sh	r0,r0[0x0]
800083ca:	86 98       	ld.uh	r8,r3[0x2]

800083cc <_raise_r>:
800083cc:	d4 21       	pushm	r4-r7,lr
800083ce:	18 97       	mov	r7,r12
800083d0:	16 96       	mov	r6,r11
800083d2:	59 fb       	cp.w	r11,31
800083d4:	e0 88 00 05 	brls	800083de <_raise_r+0x12>
800083d8:	31 68       	mov	r8,22
800083da:	99 38       	st.w	r12[0xc],r8
800083dc:	dc 2a       	popm	r4-r7,pc,r12=-1
800083de:	79 19       	ld.w	r9,r12[0x44]
800083e0:	58 09       	cp.w	r9,0
800083e2:	c0 60       	breq	800083ee <_raise_r+0x22>
800083e4:	f2 0b 00 29 	add	r9,r9,r11<<0x2
800083e8:	72 08       	ld.w	r8,r9[0x0]
800083ea:	58 08       	cp.w	r8,0
800083ec:	c0 a1       	brne	80008400 <_raise_r+0x34>
800083ee:	0e 9c       	mov	r12,r7
800083f0:	f0 1f 00 0b 	mcall	8000841c <_raise_r+0x50>
800083f4:	0c 9a       	mov	r10,r6
800083f6:	18 9b       	mov	r11,r12
800083f8:	0e 9c       	mov	r12,r7
800083fa:	f0 1f 00 0a 	mcall	80008420 <_raise_r+0x54>
800083fe:	d8 22       	popm	r4-r7,pc
80008400:	58 18       	cp.w	r8,1
80008402:	c0 21       	brne	80008406 <_raise_r+0x3a>
80008404:	d8 2a       	popm	r4-r7,pc,r12=0
80008406:	5b f8       	cp.w	r8,-1
80008408:	c0 41       	brne	80008410 <_raise_r+0x44>
8000840a:	31 68       	mov	r8,22
8000840c:	99 38       	st.w	r12[0xc],r8
8000840e:	da 2a       	popm	r4-r7,pc,r12=1
80008410:	30 07       	mov	r7,0
80008412:	16 9c       	mov	r12,r11
80008414:	93 07       	st.w	r9[0x0],r7
80008416:	5d 18       	icall	r8
80008418:	0e 9c       	mov	r12,r7
8000841a:	d8 22       	popm	r4-r7,pc
8000841c:	80 00       	ld.sh	r0,r0[0x0]
8000841e:	84 3c       	ld.sh	r12,r2[0x6]
80008420:	80 00       	ld.sh	r0,r0[0x0]
80008422:	84 48       	ld.sh	r8,r2[0x8]

80008424 <raise>:
80008424:	d4 01       	pushm	lr
80008426:	48 48       	lddpc	r8,80008434 <raise+0x10>
80008428:	18 9b       	mov	r11,r12
8000842a:	70 0c       	ld.w	r12,r8[0x0]
8000842c:	f0 1f 00 03 	mcall	80008438 <raise+0x14>
80008430:	d8 02       	popm	pc
80008432:	00 00       	add	r0,r0
80008434:	00 00       	add	r0,r0
80008436:	01 c4       	ld.ub	r4,r0[0x4]
80008438:	80 00       	ld.sh	r0,r0[0x0]
8000843a:	83 cc       	st.w	r1[0x30],r12

8000843c <_getpid_r>:
8000843c:	d4 01       	pushm	lr
8000843e:	f0 1f 00 02 	mcall	80008444 <_getpid_r+0x8>
80008442:	d8 02       	popm	pc
80008444:	80 00       	ld.sh	r0,r0[0x0]
80008446:	86 96       	ld.uh	r6,r3[0x2]

80008448 <_kill_r>:
80008448:	d4 21       	pushm	r4-r7,lr
8000844a:	16 98       	mov	r8,r11
8000844c:	18 97       	mov	r7,r12
8000844e:	10 9c       	mov	r12,r8
80008450:	30 08       	mov	r8,0
80008452:	48 76       	lddpc	r6,8000846c <_kill_r+0x24>
80008454:	14 9b       	mov	r11,r10
80008456:	8d 08       	st.w	r6[0x0],r8
80008458:	f0 1f 00 06 	mcall	80008470 <_kill_r+0x28>
8000845c:	5b fc       	cp.w	r12,-1
8000845e:	c0 51       	brne	80008468 <_kill_r+0x20>
80008460:	6c 08       	ld.w	r8,r6[0x0]
80008462:	58 08       	cp.w	r8,0
80008464:	c0 20       	breq	80008468 <_kill_r+0x20>
80008466:	8f 38       	st.w	r7[0xc],r8
80008468:	d8 22       	popm	r4-r7,pc
8000846a:	00 00       	add	r0,r0
8000846c:	00 00       	add	r0,r0
8000846e:	0f 84       	ld.ub	r4,r7[0x0]
80008470:	80 00       	ld.sh	r0,r0[0x0]
80008472:	86 94       	ld.uh	r4,r3[0x2]

80008474 <sprintf>:
80008474:	d4 01       	pushm	lr
80008476:	21 7d       	sub	sp,92
80008478:	e0 68 ff ff 	mov	r8,65535
8000847c:	ea 18 7f ff 	orh	r8,0x7fff
80008480:	50 58       	stdsp	sp[0x14],r8
80008482:	50 28       	stdsp	sp[0x8],r8
80008484:	e0 68 02 08 	mov	r8,520
80008488:	ba 68       	st.h	sp[0xc],r8
8000848a:	3f f8       	mov	r8,-1
8000848c:	ba 78       	st.h	sp[0xe],r8
8000848e:	48 88       	lddpc	r8,800084ac <sprintf+0x38>
80008490:	50 4c       	stdsp	sp[0x10],r12
80008492:	16 9a       	mov	r10,r11
80008494:	50 0c       	stdsp	sp[0x0],r12
80008496:	fa c9 ff a0 	sub	r9,sp,-96
8000849a:	70 0c       	ld.w	r12,r8[0x0]
8000849c:	1a 9b       	mov	r11,sp
8000849e:	f0 1f 00 05 	mcall	800084b0 <sprintf+0x3c>
800084a2:	30 09       	mov	r9,0
800084a4:	40 08       	lddsp	r8,sp[0x0]
800084a6:	b0 89       	st.b	r8[0x0],r9
800084a8:	2e 9d       	sub	sp,-92
800084aa:	d8 02       	popm	pc
800084ac:	00 00       	add	r0,r0
800084ae:	01 c4       	ld.ub	r4,r0[0x4]
800084b0:	80 00       	ld.sh	r0,r0[0x0]
800084b2:	8a 1c       	ld.sh	r12,r5[0x2]

800084b4 <strcmp>:
800084b4:	f9 eb 10 0a 	or	r10,r12,r11
800084b8:	e2 1a 00 03 	andl	r10,0x3,COH
800084bc:	c3 41       	brne	80008524 <strcmp+0x70>
800084be:	78 0a       	ld.w	r10,r12[0x0]
800084c0:	76 09       	ld.w	r9,r11[0x0]
800084c2:	5c ea       	tnbz	r10
800084c4:	c1 70       	breq	800084f2 <strcmp+0x3e>
800084c6:	12 3a       	cp.w	r10,r9
800084c8:	c1 51       	brne	800084f2 <strcmp+0x3e>
800084ca:	78 1a       	ld.w	r10,r12[0x4]
800084cc:	76 19       	ld.w	r9,r11[0x4]
800084ce:	5c ea       	tnbz	r10
800084d0:	c1 10       	breq	800084f2 <strcmp+0x3e>
800084d2:	12 3a       	cp.w	r10,r9
800084d4:	c0 f1       	brne	800084f2 <strcmp+0x3e>
800084d6:	78 2a       	ld.w	r10,r12[0x8]
800084d8:	76 29       	ld.w	r9,r11[0x8]
800084da:	5c ea       	tnbz	r10
800084dc:	c0 b0       	breq	800084f2 <strcmp+0x3e>
800084de:	12 3a       	cp.w	r10,r9
800084e0:	c0 91       	brne	800084f2 <strcmp+0x3e>
800084e2:	78 3a       	ld.w	r10,r12[0xc]
800084e4:	76 39       	ld.w	r9,r11[0xc]
800084e6:	5c ea       	tnbz	r10
800084e8:	c0 50       	breq	800084f2 <strcmp+0x3e>
800084ea:	2f 0c       	sub	r12,-16
800084ec:	2f 0b       	sub	r11,-16
800084ee:	12 3a       	cp.w	r10,r9
800084f0:	ce 70       	breq	800084be <strcmp+0xa>
800084f2:	f9 da c3 08 	bfextu	r12,r10,0x18,0x8
800084f6:	f7 d9 c3 08 	bfextu	r11,r9,0x18,0x8
800084fa:	5e 0c       	reteq	r12
800084fc:	16 1c       	sub	r12,r11
800084fe:	5e 1c       	retne	r12
80008500:	f9 da c2 08 	bfextu	r12,r10,0x10,0x8
80008504:	f7 d9 c2 08 	bfextu	r11,r9,0x10,0x8
80008508:	5e 0c       	reteq	r12
8000850a:	16 1c       	sub	r12,r11
8000850c:	5e 1c       	retne	r12
8000850e:	f9 da c1 08 	bfextu	r12,r10,0x8,0x8
80008512:	f7 d9 c1 08 	bfextu	r11,r9,0x8,0x8
80008516:	5e 0c       	reteq	r12
80008518:	16 1c       	sub	r12,r11
8000851a:	5e 1c       	retne	r12
8000851c:	5c 5a       	castu.b	r10
8000851e:	5c 59       	castu.b	r9
80008520:	12 1a       	sub	r10,r9
80008522:	5e fa       	retal	r10
80008524:	17 8a       	ld.ub	r10,r11[0x0]
80008526:	19 89       	ld.ub	r9,r12[0x0]
80008528:	58 0a       	cp.w	r10,0
8000852a:	5e 09       	reteq	r9
8000852c:	14 19       	sub	r9,r10
8000852e:	5e 19       	retne	r9
80008530:	17 9a       	ld.ub	r10,r11[0x1]
80008532:	19 99       	ld.ub	r9,r12[0x1]
80008534:	58 0a       	cp.w	r10,0
80008536:	5e 09       	reteq	r9
80008538:	14 19       	sub	r9,r10
8000853a:	5e 19       	retne	r9
8000853c:	17 aa       	ld.ub	r10,r11[0x2]
8000853e:	19 a9       	ld.ub	r9,r12[0x2]
80008540:	58 0a       	cp.w	r10,0
80008542:	5e 09       	reteq	r9
80008544:	14 19       	sub	r9,r10
80008546:	5e 19       	retne	r9
80008548:	17 ba       	ld.ub	r10,r11[0x3]
8000854a:	19 b9       	ld.ub	r9,r12[0x3]
8000854c:	58 0a       	cp.w	r10,0
8000854e:	5e 09       	reteq	r9
80008550:	14 19       	sub	r9,r10
80008552:	5e 19       	retne	r9
80008554:	2f cb       	sub	r11,-4
80008556:	2f cc       	sub	r12,-4
80008558:	ce 6b       	rjmp	80008524 <strcmp+0x70>
	...

8000855c <strcpy>:
8000855c:	30 08       	mov	r8,0
8000855e:	f6 08 07 09 	ld.ub	r9,r11[r8]
80008562:	f8 08 0b 09 	st.b	r12[r8],r9
80008566:	2f f8       	sub	r8,-1
80008568:	58 09       	cp.w	r9,0
8000856a:	cf a1       	brne	8000855e <strcpy+0x2>
8000856c:	5e fc       	retal	r12

8000856e <strlen>:
8000856e:	30 09       	mov	r9,0
80008570:	18 98       	mov	r8,r12
80008572:	c0 28       	rjmp	80008576 <strlen+0x8>
80008574:	2f f8       	sub	r8,-1
80008576:	11 8a       	ld.ub	r10,r8[0x0]
80008578:	f2 0a 18 00 	cp.b	r10,r9
8000857c:	cf c1       	brne	80008574 <strlen+0x6>
8000857e:	f0 0c 01 0c 	sub	r12,r8,r12
80008582:	5e fc       	retal	r12

80008584 <strncmp>:
80008584:	58 0a       	cp.w	r10,0
80008586:	c0 81       	brne	80008596 <strncmp+0x12>
80008588:	5e fa       	retal	r10
8000858a:	58 0a       	cp.w	r10,0
8000858c:	c0 b0       	breq	800085a2 <strncmp+0x1e>
8000858e:	58 08       	cp.w	r8,0
80008590:	c0 90       	breq	800085a2 <strncmp+0x1e>
80008592:	2f fc       	sub	r12,-1
80008594:	2f fb       	sub	r11,-1
80008596:	20 1a       	sub	r10,1
80008598:	19 88       	ld.ub	r8,r12[0x0]
8000859a:	17 89       	ld.ub	r9,r11[0x0]
8000859c:	f0 09 18 00 	cp.b	r9,r8
800085a0:	cf 50       	breq	8000858a <strncmp+0x6>
800085a2:	19 8c       	ld.ub	r12,r12[0x0]
800085a4:	17 88       	ld.ub	r8,r11[0x0]
800085a6:	10 1c       	sub	r12,r8
800085a8:	5e fc       	retal	r12

800085aa <_exit>:
800085aa:	30 d8       	mov	r8,13
800085ac:	d6 73       	breakpoint
800085ae:	3f fc       	mov	r12,-1
800085b0:	35 8b       	mov	r11,88
800085b2:	c0 08       	rjmp	800085b2 <_exit+0x8>

800085b4 <_close>:
800085b4:	30 28       	mov	r8,2
800085b6:	d6 73       	breakpoint
800085b8:	3f fc       	mov	r12,-1
800085ba:	35 8b       	mov	r11,88
800085bc:	58 0c       	cp.w	r12,0
800085be:	5e 4c       	retge	r12
800085c0:	48 2a       	lddpc	r10,800085c8 <_close+0x14>
800085c2:	95 0b       	st.w	r10[0x0],r11
800085c4:	5e fc       	retal	r12
800085c6:	00 00       	add	r0,r0
800085c8:	00 00       	add	r0,r0
800085ca:	0f 84       	ld.ub	r4,r7[0x0]

800085cc <_lseek>:
800085cc:	30 58       	mov	r8,5
800085ce:	d6 73       	breakpoint
800085d0:	3f fc       	mov	r12,-1
800085d2:	35 8b       	mov	r11,88
800085d4:	58 0c       	cp.w	r12,0
800085d6:	5e 4c       	retge	r12
800085d8:	48 2a       	lddpc	r10,800085e0 <_lseek+0x14>
800085da:	95 0b       	st.w	r10[0x0],r11
800085dc:	5e fc       	retal	r12
800085de:	00 00       	add	r0,r0
800085e0:	00 00       	add	r0,r0
800085e2:	0f 84       	ld.ub	r4,r7[0x0]

800085e4 <_read>:
800085e4:	30 38       	mov	r8,3
800085e6:	d6 73       	breakpoint
800085e8:	3f fc       	mov	r12,-1
800085ea:	35 8b       	mov	r11,88
800085ec:	58 0c       	cp.w	r12,0
800085ee:	5e 4c       	retge	r12
800085f0:	48 2a       	lddpc	r10,800085f8 <_read+0x14>
800085f2:	95 0b       	st.w	r10[0x0],r11
800085f4:	5e fc       	retal	r12
800085f6:	00 00       	add	r0,r0
800085f8:	00 00       	add	r0,r0
800085fa:	0f 84       	ld.ub	r4,r7[0x0]

800085fc <_write>:
800085fc:	30 48       	mov	r8,4
800085fe:	d6 73       	breakpoint
80008600:	3f fc       	mov	r12,-1
80008602:	35 8b       	mov	r11,88
80008604:	58 0c       	cp.w	r12,0
80008606:	5e 4c       	retge	r12
80008608:	48 2a       	lddpc	r10,80008610 <_write+0x14>
8000860a:	95 0b       	st.w	r10[0x0],r11
8000860c:	5e fc       	retal	r12
8000860e:	00 00       	add	r0,r0
80008610:	00 00       	add	r0,r0
80008612:	0f 84       	ld.ub	r4,r7[0x0]

80008614 <isatty>:
80008614:	30 b8       	mov	r8,11
80008616:	d6 73       	breakpoint
80008618:	3f fc       	mov	r12,-1
8000861a:	35 8b       	mov	r11,88
8000861c:	58 0c       	cp.w	r12,0
8000861e:	5e 4c       	retge	r12
80008620:	48 2a       	lddpc	r10,80008628 <isatty+0x14>
80008622:	95 0b       	st.w	r10[0x0],r11
80008624:	5e fc       	retal	r12
80008626:	00 00       	add	r0,r0
80008628:	00 00       	add	r0,r0
8000862a:	0f 84       	ld.ub	r4,r7[0x0]

8000862c <_fstat_host>:
8000862c:	30 98       	mov	r8,9
8000862e:	d6 73       	breakpoint
80008630:	3f fc       	mov	r12,-1
80008632:	35 8b       	mov	r11,88
80008634:	58 0c       	cp.w	r12,0
80008636:	5e 4c       	retge	r12
80008638:	48 2a       	lddpc	r10,80008640 <_fstat_host+0x14>
8000863a:	95 0b       	st.w	r10[0x0],r11
8000863c:	5e fc       	retal	r12
8000863e:	00 00       	add	r0,r0
80008640:	00 00       	add	r0,r0
80008642:	0f 84       	ld.ub	r4,r7[0x0]

80008644 <_fstat>:
80008644:	d4 21       	pushm	r4-r7,lr
80008646:	21 0d       	sub	sp,64
80008648:	16 97       	mov	r7,r11
8000864a:	1a 9b       	mov	r11,sp
8000864c:	f0 1f 00 11 	mcall	80008690 <_fstat+0x4c>
80008650:	c0 34       	brge	80008656 <_fstat+0x12>
80008652:	3f fc       	mov	r12,-1
80008654:	c1 c8       	rjmp	8000868c <_fstat+0x48>
80008656:	40 08       	lddsp	r8,sp[0x0]
80008658:	ae 08       	st.h	r7[0x0],r8
8000865a:	40 18       	lddsp	r8,sp[0x4]
8000865c:	ae 18       	st.h	r7[0x2],r8
8000865e:	40 28       	lddsp	r8,sp[0x8]
80008660:	8f 18       	st.w	r7[0x4],r8
80008662:	40 38       	lddsp	r8,sp[0xc]
80008664:	ae 48       	st.h	r7[0x8],r8
80008666:	40 48       	lddsp	r8,sp[0x10]
80008668:	ae 58       	st.h	r7[0xa],r8
8000866a:	40 58       	lddsp	r8,sp[0x14]
8000866c:	ae 68       	st.h	r7[0xc],r8
8000866e:	40 68       	lddsp	r8,sp[0x18]
80008670:	ae 78       	st.h	r7[0xe],r8
80008672:	40 88       	lddsp	r8,sp[0x20]
80008674:	8f 48       	st.w	r7[0x10],r8
80008676:	40 a8       	lddsp	r8,sp[0x28]
80008678:	8f b8       	st.w	r7[0x2c],r8
8000867a:	40 c8       	lddsp	r8,sp[0x30]
8000867c:	8f c8       	st.w	r7[0x30],r8
8000867e:	40 d8       	lddsp	r8,sp[0x34]
80008680:	8f 58       	st.w	r7[0x14],r8
80008682:	40 e8       	lddsp	r8,sp[0x38]
80008684:	30 0c       	mov	r12,0
80008686:	8f 78       	st.w	r7[0x1c],r8
80008688:	40 f8       	lddsp	r8,sp[0x3c]
8000868a:	8f 98       	st.w	r7[0x24],r8
8000868c:	2f 0d       	sub	sp,-64
8000868e:	d8 22       	popm	r4-r7,pc
80008690:	80 00       	ld.sh	r0,r0[0x0]
80008692:	86 2c       	ld.sh	r12,r3[0x4]

80008694 <_kill>:
80008694:	5e fe       	retal	-1

80008696 <_getpid>:
80008696:	5e fe       	retal	-1

80008698 <_sbrk>:
80008698:	d4 01       	pushm	lr
8000869a:	48 c8       	lddpc	r8,800086c8 <_sbrk+0x30>
8000869c:	70 09       	ld.w	r9,r8[0x0]
8000869e:	58 09       	cp.w	r9,0
800086a0:	c0 31       	brne	800086a6 <_sbrk+0xe>
800086a2:	48 b9       	lddpc	r9,800086cc <_sbrk+0x34>
800086a4:	91 09       	st.w	r8[0x0],r9
800086a6:	48 99       	lddpc	r9,800086c8 <_sbrk+0x30>
800086a8:	48 aa       	lddpc	r10,800086d0 <_sbrk+0x38>
800086aa:	72 08       	ld.w	r8,r9[0x0]
800086ac:	f0 0c 00 0c 	add	r12,r8,r12
800086b0:	14 3c       	cp.w	r12,r10
800086b2:	e0 8b 00 04 	brhi	800086ba <_sbrk+0x22>
800086b6:	93 0c       	st.w	r9[0x0],r12
800086b8:	c0 68       	rjmp	800086c4 <_sbrk+0x2c>
800086ba:	f0 1f 00 07 	mcall	800086d4 <_sbrk+0x3c>
800086be:	30 c8       	mov	r8,12
800086c0:	99 08       	st.w	r12[0x0],r8
800086c2:	3f f8       	mov	r8,-1
800086c4:	10 9c       	mov	r12,r8
800086c6:	d8 02       	popm	pc
800086c8:	00 00       	add	r0,r0
800086ca:	0f 80       	ld.ub	r0,r7[0x0]
800086cc:	00 00       	add	r0,r0
800086ce:	0f 88       	ld.ub	r8,r7[0x0]
800086d0:	00 00       	add	r0,r0
800086d2:	70 00       	ld.w	r0,r8[0x0]
800086d4:	80 00       	ld.sh	r0,r0[0x0]
800086d6:	b9 34       	mul	r4,r12

800086d8 <get_arg>:
800086d8:	d4 31       	pushm	r0-r7,lr
800086da:	20 8d       	sub	sp,32
800086dc:	fa c4 ff bc 	sub	r4,sp,-68
800086e0:	50 4b       	stdsp	sp[0x10],r11
800086e2:	68 2c       	ld.w	r12,r4[0x8]
800086e4:	50 58       	stdsp	sp[0x14],r8
800086e6:	12 96       	mov	r6,r9
800086e8:	78 0b       	ld.w	r11,r12[0x0]
800086ea:	70 05       	ld.w	r5,r8[0x0]
800086ec:	50 6c       	stdsp	sp[0x18],r12
800086ee:	58 0b       	cp.w	r11,0
800086f0:	f4 0b 17 00 	moveq	r11,r10
800086f4:	68 03       	ld.w	r3,r4[0x0]
800086f6:	68 11       	ld.w	r1,r4[0x4]
800086f8:	40 49       	lddsp	r9,sp[0x10]
800086fa:	30 08       	mov	r8,0
800086fc:	c2 e9       	rjmp	80008958 <get_arg+0x280>
800086fe:	2f fb       	sub	r11,-1
80008700:	17 8a       	ld.ub	r10,r11[0x0]
80008702:	32 52       	mov	r2,37
80008704:	f0 0a 18 00 	cp.b	r10,r8
80008708:	5f 1c       	srne	r12
8000870a:	e4 0a 18 00 	cp.b	r10,r2
8000870e:	5f 1e       	srne	lr
80008710:	fd ec 00 0c 	and	r12,lr,r12
80008714:	f0 0c 18 00 	cp.b	r12,r8
80008718:	cf 31       	brne	800086fe <get_arg+0x26>
8000871a:	58 0a       	cp.w	r10,0
8000871c:	e0 80 01 2b 	breq	80008972 <get_arg+0x29a>
80008720:	30 0c       	mov	r12,0
80008722:	3f fa       	mov	r10,-1
80008724:	18 90       	mov	r0,r12
80008726:	50 3a       	stdsp	sp[0xc],r10
80008728:	18 94       	mov	r4,r12
8000872a:	18 92       	mov	r2,r12
8000872c:	f8 0c 00 3c 	add	r12,r12,r12<<0x3
80008730:	16 97       	mov	r7,r11
80008732:	50 7c       	stdsp	sp[0x1c],r12
80008734:	4c ec       	lddpc	r12,8000886c <get_arg+0x194>
80008736:	0f 3e       	ld.ub	lr,r7++
80008738:	f8 0e 07 0a 	ld.ub	r10,r12[lr]
8000873c:	40 7c       	lddsp	r12,sp[0x1c]
8000873e:	14 0c       	add	r12,r10
80008740:	4c ca       	lddpc	r10,80008870 <get_arg+0x198>
80008742:	f4 0c 07 0a 	ld.ub	r10,r10[r12]
80008746:	20 1a       	sub	r10,1
80008748:	50 0a       	stdsp	sp[0x0],r10
8000874a:	4c ba       	lddpc	r10,80008874 <get_arg+0x19c>
8000874c:	f4 0c 07 0c 	ld.ub	r12,r10[r12]
80008750:	50 7c       	stdsp	sp[0x1c],r12
80008752:	40 0c       	lddsp	r12,sp[0x0]
80008754:	58 7c       	cp.w	r12,7
80008756:	e0 8b 00 fa 	brhi	8000894a <get_arg+0x272>
8000875a:	4c 8a       	lddpc	r10,80008878 <get_arg+0x1a0>
8000875c:	f4 0c 03 2f 	ld.w	pc,r10[r12<<0x2]
80008760:	36 8a       	mov	r10,104
80008762:	f4 0e 18 00 	cp.b	lr,r10
80008766:	e0 80 00 f2 	breq	8000894a <get_arg+0x272>
8000876a:	37 1a       	mov	r10,113
8000876c:	f4 0e 18 00 	cp.b	lr,r10
80008770:	c0 70       	breq	8000877e <get_arg+0xa6>
80008772:	34 ca       	mov	r10,76
80008774:	f4 0e 18 00 	cp.b	lr,r10
80008778:	c0 51       	brne	80008782 <get_arg+0xaa>
8000877a:	a3 b4       	sbr	r4,0x3
8000877c:	ce 78       	rjmp	8000894a <get_arg+0x272>
8000877e:	a5 b4       	sbr	r4,0x5
80008780:	ce 58       	rjmp	8000894a <get_arg+0x272>
80008782:	08 9c       	mov	r12,r4
80008784:	0e 9a       	mov	r10,r7
80008786:	a5 ac       	sbr	r12,0x4
80008788:	a5 b4       	sbr	r4,0x5
8000878a:	0f 3b       	ld.ub	r11,r7++
8000878c:	36 ce       	mov	lr,108
8000878e:	fc 0b 18 00 	cp.b	r11,lr
80008792:	e0 80 00 dc 	breq	8000894a <get_arg+0x272>
80008796:	18 94       	mov	r4,r12
80008798:	14 9b       	mov	r11,r10
8000879a:	cd 98       	rjmp	8000894c <get_arg+0x274>
8000879c:	eb d5 c0 05 	bfextu	r5,r5,0x0,0x5
800087a0:	36 7c       	mov	r12,103
800087a2:	f8 0e 18 00 	cp.b	lr,r12
800087a6:	e0 8b 00 27 	brhi	800087f4 <get_arg+0x11c>
800087aa:	36 5a       	mov	r10,101
800087ac:	f4 0e 18 00 	cp.b	lr,r10
800087b0:	c4 82       	brcc	80008840 <get_arg+0x168>
800087b2:	34 fa       	mov	r10,79
800087b4:	f4 0e 18 00 	cp.b	lr,r10
800087b8:	c4 80       	breq	80008848 <get_arg+0x170>
800087ba:	e0 8b 00 0c 	brhi	800087d2 <get_arg+0xfa>
800087be:	34 5a       	mov	r10,69
800087c0:	f4 0e 18 00 	cp.b	lr,r10
800087c4:	c3 e0       	breq	80008840 <get_arg+0x168>
800087c6:	34 7a       	mov	r10,71
800087c8:	f4 0e 18 00 	cp.b	lr,r10
800087cc:	c3 a0       	breq	80008840 <get_arg+0x168>
800087ce:	34 4a       	mov	r10,68
800087d0:	c0 88       	rjmp	800087e0 <get_arg+0x108>
800087d2:	35 8a       	mov	r10,88
800087d4:	f4 0e 18 00 	cp.b	lr,r10
800087d8:	c2 c0       	breq	80008830 <get_arg+0x158>
800087da:	e0 8b 00 07 	brhi	800087e8 <get_arg+0x110>
800087de:	35 5a       	mov	r10,85
800087e0:	f4 0e 18 00 	cp.b	lr,r10
800087e4:	c3 51       	brne	8000884e <get_arg+0x176>
800087e6:	c3 18       	rjmp	80008848 <get_arg+0x170>
800087e8:	36 3a       	mov	r10,99
800087ea:	f4 0e 18 00 	cp.b	lr,r10
800087ee:	c2 f0       	breq	8000884c <get_arg+0x174>
800087f0:	36 4a       	mov	r10,100
800087f2:	c0 e8       	rjmp	8000880e <get_arg+0x136>
800087f4:	37 0a       	mov	r10,112
800087f6:	f4 0e 18 00 	cp.b	lr,r10
800087fa:	c2 50       	breq	80008844 <get_arg+0x16c>
800087fc:	e0 8b 00 0d 	brhi	80008816 <get_arg+0x13e>
80008800:	36 ea       	mov	r10,110
80008802:	f4 0e 18 00 	cp.b	lr,r10
80008806:	c1 f0       	breq	80008844 <get_arg+0x16c>
80008808:	e0 8b 00 14 	brhi	80008830 <get_arg+0x158>
8000880c:	36 9a       	mov	r10,105
8000880e:	f4 0e 18 00 	cp.b	lr,r10
80008812:	c1 e1       	brne	8000884e <get_arg+0x176>
80008814:	c0 e8       	rjmp	80008830 <get_arg+0x158>
80008816:	37 5a       	mov	r10,117
80008818:	f4 0e 18 00 	cp.b	lr,r10
8000881c:	c0 a0       	breq	80008830 <get_arg+0x158>
8000881e:	37 8a       	mov	r10,120
80008820:	f4 0e 18 00 	cp.b	lr,r10
80008824:	c0 60       	breq	80008830 <get_arg+0x158>
80008826:	37 3a       	mov	r10,115
80008828:	f4 0e 18 00 	cp.b	lr,r10
8000882c:	c1 11       	brne	8000884e <get_arg+0x176>
8000882e:	c0 b8       	rjmp	80008844 <get_arg+0x16c>
80008830:	ed b4 00 04 	bld	r4,0x4
80008834:	c0 a0       	breq	80008848 <get_arg+0x170>
80008836:	ed b4 00 05 	bld	r4,0x5
8000883a:	c0 91       	brne	8000884c <get_arg+0x174>
8000883c:	30 20       	mov	r0,2
8000883e:	c0 88       	rjmp	8000884e <get_arg+0x176>
80008840:	30 40       	mov	r0,4
80008842:	c0 68       	rjmp	8000884e <get_arg+0x176>
80008844:	30 30       	mov	r0,3
80008846:	c0 48       	rjmp	8000884e <get_arg+0x176>
80008848:	30 10       	mov	r0,1
8000884a:	c0 28       	rjmp	8000884e <get_arg+0x176>
8000884c:	30 00       	mov	r0,0
8000884e:	40 3b       	lddsp	r11,sp[0xc]
80008850:	5b fb       	cp.w	r11,-1
80008852:	c0 40       	breq	8000885a <get_arg+0x182>
80008854:	e2 0b 09 20 	st.w	r1[r11<<0x2],r0
80008858:	c7 98       	rjmp	8000894a <get_arg+0x272>
8000885a:	58 60       	cp.w	r0,6
8000885c:	e0 8b 00 77 	brhi	8000894a <get_arg+0x272>
80008860:	6c 0a       	ld.w	r10,r6[0x0]
80008862:	ea cc ff ff 	sub	r12,r5,-1
80008866:	48 6b       	lddpc	r11,8000887c <get_arg+0x1a4>
80008868:	f6 00 03 2f 	ld.w	pc,r11[r0<<0x2]
8000886c:	80 00       	ld.sh	r0,r0[0x0]
8000886e:	de 54       	*unknown*
80008870:	80 00       	ld.sh	r0,r0[0x0]
80008872:	dd 8c       	*unknown*
80008874:	80 00       	ld.sh	r0,r0[0x0]
80008876:	dd 20       	acall	0xd2
80008878:	80 00       	ld.sh	r0,r0[0x0]
8000887a:	db 80       	acall	0xb8
8000887c:	80 00       	ld.sh	r0,r0[0x0]
8000887e:	db a0       	acall	0xba
80008880:	f4 cb ff f8 	sub	r11,r10,-8
80008884:	8d 0b       	st.w	r6[0x0],r11
80008886:	f4 ea 00 00 	ld.d	r10,r10[0]
8000888a:	e6 05 08 3a 	st.d	r3[r5<<0x3],r10
8000888e:	c0 f8       	rjmp	800088ac <get_arg+0x1d4>
80008890:	f4 cb ff fc 	sub	r11,r10,-4
80008894:	8d 0b       	st.w	r6[0x0],r11
80008896:	74 0a       	ld.w	r10,r10[0x0]
80008898:	e6 05 09 3a 	st.w	r3[r5<<0x3],r10
8000889c:	c0 88       	rjmp	800088ac <get_arg+0x1d4>
8000889e:	f4 cb ff f8 	sub	r11,r10,-8
800088a2:	8d 0b       	st.w	r6[0x0],r11
800088a4:	f4 ea 00 00 	ld.d	r10,r10[0]
800088a8:	e6 05 08 3a 	st.d	r3[r5<<0x3],r10
800088ac:	0e 9b       	mov	r11,r7
800088ae:	18 95       	mov	r5,r12
800088b0:	c4 e8       	rjmp	8000894c <get_arg+0x274>
800088b2:	62 0a       	ld.w	r10,r1[0x0]
800088b4:	5b fa       	cp.w	r10,-1
800088b6:	c0 b1       	brne	800088cc <get_arg+0x1f4>
800088b8:	50 19       	stdsp	sp[0x4],r9
800088ba:	50 28       	stdsp	sp[0x8],r8
800088bc:	e0 6a 00 80 	mov	r10,128
800088c0:	30 0b       	mov	r11,0
800088c2:	02 9c       	mov	r12,r1
800088c4:	f0 1f 00 4d 	mcall	800089f8 <get_arg+0x320>
800088c8:	40 28       	lddsp	r8,sp[0x8]
800088ca:	40 19       	lddsp	r9,sp[0x4]
800088cc:	e4 ca 00 01 	sub	r10,r2,1
800088d0:	0e 9b       	mov	r11,r7
800088d2:	50 3a       	stdsp	sp[0xc],r10
800088d4:	f2 0a 0c 49 	max	r9,r9,r10
800088d8:	c3 a8       	rjmp	8000894c <get_arg+0x274>
800088da:	62 0a       	ld.w	r10,r1[0x0]
800088dc:	5b fa       	cp.w	r10,-1
800088de:	c0 b1       	brne	800088f4 <get_arg+0x21c>
800088e0:	50 19       	stdsp	sp[0x4],r9
800088e2:	50 28       	stdsp	sp[0x8],r8
800088e4:	e0 6a 00 80 	mov	r10,128
800088e8:	30 0b       	mov	r11,0
800088ea:	02 9c       	mov	r12,r1
800088ec:	f0 1f 00 43 	mcall	800089f8 <get_arg+0x320>
800088f0:	40 28       	lddsp	r8,sp[0x8]
800088f2:	40 19       	lddsp	r9,sp[0x4]
800088f4:	20 12       	sub	r2,1
800088f6:	30 0c       	mov	r12,0
800088f8:	0e 9b       	mov	r11,r7
800088fa:	e2 02 09 2c 	st.w	r1[r2<<0x2],r12
800088fe:	f2 02 0c 49 	max	r9,r9,r2
80008902:	c2 58       	rjmp	8000894c <get_arg+0x274>
80008904:	16 97       	mov	r7,r11
80008906:	6c 0a       	ld.w	r10,r6[0x0]
80008908:	f4 cb ff fc 	sub	r11,r10,-4
8000890c:	8d 0b       	st.w	r6[0x0],r11
8000890e:	74 0a       	ld.w	r10,r10[0x0]
80008910:	0e 9b       	mov	r11,r7
80008912:	e6 05 09 3a 	st.w	r3[r5<<0x3],r10
80008916:	2f f5       	sub	r5,-1
80008918:	c1 a8       	rjmp	8000894c <get_arg+0x274>
8000891a:	fc c2 00 30 	sub	r2,lr,48
8000891e:	c0 68       	rjmp	8000892a <get_arg+0x252>
80008920:	e4 02 00 22 	add	r2,r2,r2<<0x2
80008924:	2f f7       	sub	r7,-1
80008926:	f4 02 00 12 	add	r2,r10,r2<<0x1
8000892a:	0f 8a       	ld.ub	r10,r7[0x0]
8000892c:	58 0a       	cp.w	r10,0
8000892e:	c0 e0       	breq	8000894a <get_arg+0x272>
80008930:	23 0a       	sub	r10,48
80008932:	58 9a       	cp.w	r10,9
80008934:	fe 98 ff f6 	brls	80008920 <get_arg+0x248>
80008938:	c0 98       	rjmp	8000894a <get_arg+0x272>
8000893a:	2f f7       	sub	r7,-1
8000893c:	0f 8a       	ld.ub	r10,r7[0x0]
8000893e:	58 0a       	cp.w	r10,0
80008940:	c0 50       	breq	8000894a <get_arg+0x272>
80008942:	23 0a       	sub	r10,48
80008944:	58 9a       	cp.w	r10,9
80008946:	fe 98 ff fa 	brls	8000893a <get_arg+0x262>
8000894a:	0e 9b       	mov	r11,r7
8000894c:	40 7c       	lddsp	r12,sp[0x1c]
8000894e:	30 ba       	mov	r10,11
80008950:	f4 0c 18 00 	cp.b	r12,r10
80008954:	fe 91 fe ec 	brne	8000872c <get_arg+0x54>
80008958:	40 4a       	lddsp	r10,sp[0x10]
8000895a:	17 8c       	ld.ub	r12,r11[0x0]
8000895c:	0a 3a       	cp.w	r10,r5
8000895e:	5f 4a       	srge	r10
80008960:	f0 0c 18 00 	cp.b	r12,r8
80008964:	5f 1c       	srne	r12
80008966:	f9 ea 00 0a 	and	r10,r12,r10
8000896a:	f0 0a 18 00 	cp.b	r10,r8
8000896e:	fe 91 fe c9 	brne	80008700 <get_arg+0x28>
80008972:	30 08       	mov	r8,0
80008974:	17 8a       	ld.ub	r10,r11[0x0]
80008976:	40 42       	lddsp	r2,sp[0x10]
80008978:	e2 05 00 21 	add	r1,r1,r5<<0x2
8000897c:	f0 0a 18 00 	cp.b	r10,r8
80008980:	e4 09 17 10 	movne	r9,r2
80008984:	06 9e       	mov	lr,r3
80008986:	e6 05 00 38 	add	r8,r3,r5<<0x3
8000898a:	c2 a8       	rjmp	800089de <get_arg+0x306>
8000898c:	62 0a       	ld.w	r10,r1[0x0]
8000898e:	58 3a       	cp.w	r10,3
80008990:	c1 e0       	breq	800089cc <get_arg+0x2f4>
80008992:	e0 89 00 07 	brgt	800089a0 <get_arg+0x2c8>
80008996:	58 1a       	cp.w	r10,1
80008998:	c1 a0       	breq	800089cc <get_arg+0x2f4>
8000899a:	58 2a       	cp.w	r10,2
8000899c:	c1 81       	brne	800089cc <get_arg+0x2f4>
8000899e:	c0 58       	rjmp	800089a8 <get_arg+0x2d0>
800089a0:	58 5a       	cp.w	r10,5
800089a2:	c0 c0       	breq	800089ba <get_arg+0x2e2>
800089a4:	c0 b5       	brlt	800089ba <get_arg+0x2e2>
800089a6:	c1 38       	rjmp	800089cc <get_arg+0x2f4>
800089a8:	6c 0a       	ld.w	r10,r6[0x0]
800089aa:	f4 cc ff f8 	sub	r12,r10,-8
800089ae:	8d 0c       	st.w	r6[0x0],r12
800089b0:	f4 e2 00 00 	ld.d	r2,r10[0]
800089b4:	f0 e3 00 00 	st.d	r8[0],r2
800089b8:	c1 08       	rjmp	800089d8 <get_arg+0x300>
800089ba:	6c 0a       	ld.w	r10,r6[0x0]
800089bc:	f4 cc ff f8 	sub	r12,r10,-8
800089c0:	8d 0c       	st.w	r6[0x0],r12
800089c2:	f4 e2 00 00 	ld.d	r2,r10[0]
800089c6:	f0 e3 00 00 	st.d	r8[0],r2
800089ca:	c0 78       	rjmp	800089d8 <get_arg+0x300>
800089cc:	6c 0a       	ld.w	r10,r6[0x0]
800089ce:	f4 cc ff fc 	sub	r12,r10,-4
800089d2:	8d 0c       	st.w	r6[0x0],r12
800089d4:	74 0a       	ld.w	r10,r10[0x0]
800089d6:	91 0a       	st.w	r8[0x0],r10
800089d8:	2f f5       	sub	r5,-1
800089da:	2f 88       	sub	r8,-8
800089dc:	2f c1       	sub	r1,-4
800089de:	12 35       	cp.w	r5,r9
800089e0:	fe 9a ff d6 	brle	8000898c <get_arg+0x2b4>
800089e4:	40 6c       	lddsp	r12,sp[0x18]
800089e6:	40 52       	lddsp	r2,sp[0x14]
800089e8:	99 0b       	st.w	r12[0x0],r11
800089ea:	1c 93       	mov	r3,lr
800089ec:	40 4b       	lddsp	r11,sp[0x10]
800089ee:	85 05       	st.w	r2[0x0],r5
800089f0:	fc 0b 00 3c 	add	r12,lr,r11<<0x3
800089f4:	2f 8d       	sub	sp,-32
800089f6:	d8 32       	popm	r0-r7,pc
800089f8:	80 00       	ld.sh	r0,r0[0x0]
800089fa:	80 0e       	ld.sh	lr,r0[0x0]

800089fc <__sprint_r>:
800089fc:	d4 21       	pushm	r4-r7,lr
800089fe:	14 97       	mov	r7,r10
80008a00:	74 28       	ld.w	r8,r10[0x8]
80008a02:	58 08       	cp.w	r8,0
80008a04:	c0 41       	brne	80008a0c <__sprint_r+0x10>
80008a06:	95 18       	st.w	r10[0x4],r8
80008a08:	10 9c       	mov	r12,r8
80008a0a:	d8 22       	popm	r4-r7,pc
80008a0c:	f0 1f 00 03 	mcall	80008a18 <__sprint_r+0x1c>
80008a10:	30 08       	mov	r8,0
80008a12:	8f 18       	st.w	r7[0x4],r8
80008a14:	8f 28       	st.w	r7[0x8],r8
80008a16:	d8 22       	popm	r4-r7,pc
80008a18:	80 00       	ld.sh	r0,r0[0x0]
80008a1a:	76 80       	ld.w	r0,r11[0x20]

80008a1c <_vfprintf_r>:
80008a1c:	d4 31       	pushm	r0-r7,lr
80008a1e:	fa cd 06 bc 	sub	sp,sp,1724
80008a22:	51 09       	stdsp	sp[0x40],r9
80008a24:	16 91       	mov	r1,r11
80008a26:	14 97       	mov	r7,r10
80008a28:	18 95       	mov	r5,r12
80008a2a:	f0 1f 00 56 	mcall	80008b80 <_vfprintf_r+0x164>
80008a2e:	78 0c       	ld.w	r12,r12[0x0]
80008a30:	50 cc       	stdsp	sp[0x30],r12
80008a32:	58 05       	cp.w	r5,0
80008a34:	c0 70       	breq	80008a42 <_vfprintf_r+0x26>
80008a36:	6a 68       	ld.w	r8,r5[0x18]
80008a38:	58 08       	cp.w	r8,0
80008a3a:	c0 41       	brne	80008a42 <_vfprintf_r+0x26>
80008a3c:	0a 9c       	mov	r12,r5
80008a3e:	f0 1f 00 52 	mcall	80008b84 <_vfprintf_r+0x168>
80008a42:	4d 28       	lddpc	r8,80008b88 <_vfprintf_r+0x16c>
80008a44:	10 31       	cp.w	r1,r8
80008a46:	c0 31       	brne	80008a4c <_vfprintf_r+0x30>
80008a48:	6a 01       	ld.w	r1,r5[0x0]
80008a4a:	c0 a8       	rjmp	80008a5e <_vfprintf_r+0x42>
80008a4c:	4d 08       	lddpc	r8,80008b8c <_vfprintf_r+0x170>
80008a4e:	10 31       	cp.w	r1,r8
80008a50:	c0 31       	brne	80008a56 <_vfprintf_r+0x3a>
80008a52:	6a 11       	ld.w	r1,r5[0x4]
80008a54:	c0 58       	rjmp	80008a5e <_vfprintf_r+0x42>
80008a56:	4c f8       	lddpc	r8,80008b90 <_vfprintf_r+0x174>
80008a58:	10 31       	cp.w	r1,r8
80008a5a:	c0 21       	brne	80008a5e <_vfprintf_r+0x42>
80008a5c:	6a 21       	ld.w	r1,r5[0x8]
80008a5e:	82 68       	ld.sh	r8,r1[0xc]
80008a60:	ed b8 00 03 	bld	r8,0x3
80008a64:	c0 41       	brne	80008a6c <_vfprintf_r+0x50>
80008a66:	62 48       	ld.w	r8,r1[0x10]
80008a68:	58 08       	cp.w	r8,0
80008a6a:	c0 71       	brne	80008a78 <_vfprintf_r+0x5c>
80008a6c:	02 9b       	mov	r11,r1
80008a6e:	0a 9c       	mov	r12,r5
80008a70:	f0 1f 00 49 	mcall	80008b94 <_vfprintf_r+0x178>
80008a74:	e0 81 0f 9d 	brne	8000a9ae <_vfprintf_r+0x1f92>
80008a78:	82 68       	ld.sh	r8,r1[0xc]
80008a7a:	10 99       	mov	r9,r8
80008a7c:	e2 19 00 1a 	andl	r9,0x1a,COH
80008a80:	58 a9       	cp.w	r9,10
80008a82:	c3 d1       	brne	80008afc <_vfprintf_r+0xe0>
80008a84:	82 79       	ld.sh	r9,r1[0xe]
80008a86:	30 0a       	mov	r10,0
80008a88:	f4 09 19 00 	cp.h	r9,r10
80008a8c:	c3 85       	brlt	80008afc <_vfprintf_r+0xe0>
80008a8e:	a1 d8       	cbr	r8,0x1
80008a90:	fb 58 05 d0 	st.h	sp[1488],r8
80008a94:	62 88       	ld.w	r8,r1[0x20]
80008a96:	fb 48 05 e4 	st.w	sp[1508],r8
80008a9a:	62 a8       	ld.w	r8,r1[0x28]
80008a9c:	fb 48 05 ec 	st.w	sp[1516],r8
80008aa0:	fa c8 ff bc 	sub	r8,sp,-68
80008aa4:	fb 48 05 d4 	st.w	sp[1492],r8
80008aa8:	fb 48 05 c4 	st.w	sp[1476],r8
80008aac:	e0 68 04 00 	mov	r8,1024
80008ab0:	fb 48 05 d8 	st.w	sp[1496],r8
80008ab4:	fb 48 05 cc 	st.w	sp[1484],r8
80008ab8:	30 08       	mov	r8,0
80008aba:	fb 59 05 d2 	st.h	sp[1490],r9
80008abe:	0e 9a       	mov	r10,r7
80008ac0:	41 09       	lddsp	r9,sp[0x40]
80008ac2:	fa c7 fa 3c 	sub	r7,sp,-1476
80008ac6:	fb 48 05 dc 	st.w	sp[1500],r8
80008aca:	0a 9c       	mov	r12,r5
80008acc:	0e 9b       	mov	r11,r7
80008ace:	f0 1f 00 33 	mcall	80008b98 <_vfprintf_r+0x17c>
80008ad2:	50 bc       	stdsp	sp[0x2c],r12
80008ad4:	c0 95       	brlt	80008ae6 <_vfprintf_r+0xca>
80008ad6:	0e 9b       	mov	r11,r7
80008ad8:	0a 9c       	mov	r12,r5
80008ada:	f0 1f 00 31 	mcall	80008b9c <_vfprintf_r+0x180>
80008ade:	40 be       	lddsp	lr,sp[0x2c]
80008ae0:	f9 be 01 ff 	movne	lr,-1
80008ae4:	50 be       	stdsp	sp[0x2c],lr
80008ae6:	fb 08 05 d0 	ld.sh	r8,sp[1488]
80008aea:	ed b8 00 06 	bld	r8,0x6
80008aee:	e0 81 0f 62 	brne	8000a9b2 <_vfprintf_r+0x1f96>
80008af2:	82 68       	ld.sh	r8,r1[0xc]
80008af4:	a7 a8       	sbr	r8,0x6
80008af6:	a2 68       	st.h	r1[0xc],r8
80008af8:	e0 8f 0f 5d 	bral	8000a9b2 <_vfprintf_r+0x1f96>
80008afc:	30 08       	mov	r8,0
80008afe:	fb 48 06 b4 	st.w	sp[1716],r8
80008b02:	fb 48 06 90 	st.w	sp[1680],r8
80008b06:	fb 48 06 8c 	st.w	sp[1676],r8
80008b0a:	fb 48 06 b0 	st.w	sp[1712],r8
80008b0e:	30 08       	mov	r8,0
80008b10:	30 09       	mov	r9,0
80008b12:	50 a7       	stdsp	sp[0x28],r7
80008b14:	50 78       	stdsp	sp[0x1c],r8
80008b16:	fa c3 f9 e0 	sub	r3,sp,-1568
80008b1a:	3f f8       	mov	r8,-1
80008b1c:	50 59       	stdsp	sp[0x14],r9
80008b1e:	fb 43 06 88 	st.w	sp[1672],r3
80008b22:	fb 48 05 44 	st.w	sp[1348],r8
80008b26:	50 69       	stdsp	sp[0x18],r9
80008b28:	50 d9       	stdsp	sp[0x34],r9
80008b2a:	50 e9       	stdsp	sp[0x38],r9
80008b2c:	50 b9       	stdsp	sp[0x2c],r9
80008b2e:	12 97       	mov	r7,r9
80008b30:	0a 94       	mov	r4,r5
80008b32:	40 a2       	lddsp	r2,sp[0x28]
80008b34:	32 5a       	mov	r10,37
80008b36:	30 08       	mov	r8,0
80008b38:	c0 28       	rjmp	80008b3c <_vfprintf_r+0x120>
80008b3a:	2f f2       	sub	r2,-1
80008b3c:	05 89       	ld.ub	r9,r2[0x0]
80008b3e:	f0 09 18 00 	cp.b	r9,r8
80008b42:	5f 1b       	srne	r11
80008b44:	f4 09 18 00 	cp.b	r9,r10
80008b48:	5f 19       	srne	r9
80008b4a:	f3 eb 00 0b 	and	r11,r9,r11
80008b4e:	f0 0b 18 00 	cp.b	r11,r8
80008b52:	cf 41       	brne	80008b3a <_vfprintf_r+0x11e>
80008b54:	40 ab       	lddsp	r11,sp[0x28]
80008b56:	e4 0b 01 06 	sub	r6,r2,r11
80008b5a:	c3 00       	breq	80008bba <_vfprintf_r+0x19e>
80008b5c:	fa f8 06 90 	ld.w	r8,sp[1680]
80008b60:	0c 08       	add	r8,r6
80008b62:	87 0b       	st.w	r3[0x0],r11
80008b64:	fb 48 06 90 	st.w	sp[1680],r8
80008b68:	87 16       	st.w	r3[0x4],r6
80008b6a:	fa f8 06 8c 	ld.w	r8,sp[1676]
80008b6e:	2f f8       	sub	r8,-1
80008b70:	fb 48 06 8c 	st.w	sp[1676],r8
80008b74:	58 78       	cp.w	r8,7
80008b76:	e0 89 00 15 	brgt	80008ba0 <_vfprintf_r+0x184>
80008b7a:	2f 83       	sub	r3,-8
80008b7c:	c1 c8       	rjmp	80008bb4 <_vfprintf_r+0x198>
80008b7e:	00 00       	add	r0,r0
80008b80:	80 00       	ld.sh	r0,r0[0x0]
80008b82:	be 60       	st.h	pc[0xc],r0
80008b84:	80 00       	ld.sh	r0,r0[0x0]
80008b86:	bb 18       	ld.d	r8,--sp
80008b88:	80 00       	ld.sh	r0,r0[0x0]
80008b8a:	df 64       	*unknown*
80008b8c:	80 00       	ld.sh	r0,r0[0x0]
80008b8e:	df 84       	*unknown*
80008b90:	80 00       	ld.sh	r0,r0[0x0]
80008b92:	df a4       	*unknown*
80008b94:	80 00       	ld.sh	r0,r0[0x0]
80008b96:	aa 7c       	st.h	r5[0xe],r12
80008b98:	80 00       	ld.sh	r0,r0[0x0]
80008b9a:	8a 1c       	ld.sh	r12,r5[0x2]
80008b9c:	80 00       	ld.sh	r0,r0[0x0]
80008b9e:	b9 40       	asr	r0,0x18
80008ba0:	fa ca f9 78 	sub	r10,sp,-1672
80008ba4:	02 9b       	mov	r11,r1
80008ba6:	08 9c       	mov	r12,r4
80008ba8:	f0 1f 00 71 	mcall	80008d6c <_vfprintf_r+0x350>
80008bac:	e0 81 0e fd 	brne	8000a9a6 <_vfprintf_r+0x1f8a>
80008bb0:	fa c3 f9 e0 	sub	r3,sp,-1568
80008bb4:	40 ba       	lddsp	r10,sp[0x2c]
80008bb6:	0c 0a       	add	r10,r6
80008bb8:	50 ba       	stdsp	sp[0x2c],r10
80008bba:	05 89       	ld.ub	r9,r2[0x0]
80008bbc:	30 08       	mov	r8,0
80008bbe:	f0 09 18 00 	cp.b	r9,r8
80008bc2:	e0 80 0e e1 	breq	8000a984 <_vfprintf_r+0x1f68>
80008bc6:	e4 c6 ff ff 	sub	r6,r2,-1
80008bca:	30 09       	mov	r9,0
80008bcc:	50 a6       	stdsp	sp[0x28],r6
80008bce:	fb 68 06 bb 	st.b	sp[1723],r8
80008bd2:	0e 96       	mov	r6,r7
80008bd4:	3f f8       	mov	r8,-1
80008bd6:	50 93       	stdsp	sp[0x24],r3
80008bd8:	50 41       	stdsp	sp[0x10],r1
80008bda:	0e 93       	mov	r3,r7
80008bdc:	04 91       	mov	r1,r2
80008bde:	50 89       	stdsp	sp[0x20],r9
80008be0:	50 28       	stdsp	sp[0x8],r8
80008be2:	50 39       	stdsp	sp[0xc],r9
80008be4:	12 95       	mov	r5,r9
80008be6:	12 90       	mov	r0,r9
80008be8:	40 a7       	lddsp	r7,sp[0x28]
80008bea:	08 92       	mov	r2,r4
80008bec:	c0 78       	rjmp	80008bfa <_vfprintf_r+0x1de>
80008bee:	3f fe       	mov	lr,-1
80008bf0:	08 97       	mov	r7,r4
80008bf2:	50 2e       	stdsp	sp[0x8],lr
80008bf4:	c0 38       	rjmp	80008bfa <_vfprintf_r+0x1de>
80008bf6:	30 0c       	mov	r12,0
80008bf8:	50 3c       	stdsp	sp[0xc],r12
80008bfa:	0f 38       	ld.ub	r8,r7++
80008bfc:	c0 28       	rjmp	80008c00 <_vfprintf_r+0x1e4>
80008bfe:	12 90       	mov	r0,r9
80008c00:	f0 c9 00 20 	sub	r9,r8,32
80008c04:	e0 49 00 58 	cp.w	r9,88
80008c08:	e0 8b 0a 58 	brhi	8000a0b8 <_vfprintf_r+0x169c>
80008c0c:	4d 9b       	lddpc	r11,80008d70 <_vfprintf_r+0x354>
80008c0e:	f6 09 03 2f 	ld.w	pc,r11[r9<<0x2]
80008c12:	50 a7       	stdsp	sp[0x28],r7
80008c14:	50 80       	stdsp	sp[0x20],r0
80008c16:	0c 97       	mov	r7,r6
80008c18:	04 94       	mov	r4,r2
80008c1a:	06 96       	mov	r6,r3
80008c1c:	02 92       	mov	r2,r1
80008c1e:	4d 6a       	lddpc	r10,80008d74 <_vfprintf_r+0x358>
80008c20:	40 93       	lddsp	r3,sp[0x24]
80008c22:	10 90       	mov	r0,r8
80008c24:	40 41       	lddsp	r1,sp[0x10]
80008c26:	50 da       	stdsp	sp[0x34],r10
80008c28:	e0 8f 08 b8 	bral	80009d98 <_vfprintf_r+0x137c>
80008c2c:	30 08       	mov	r8,0
80008c2e:	fb 39 06 bb 	ld.ub	r9,sp[1723]
80008c32:	f0 09 18 00 	cp.b	r9,r8
80008c36:	ce 21       	brne	80008bfa <_vfprintf_r+0x1de>
80008c38:	32 08       	mov	r8,32
80008c3a:	c6 e8       	rjmp	80008d16 <_vfprintf_r+0x2fa>
80008c3c:	a1 a5       	sbr	r5,0x0
80008c3e:	cd eb       	rjmp	80008bfa <_vfprintf_r+0x1de>
80008c40:	0f 89       	ld.ub	r9,r7[0x0]
80008c42:	f2 c8 00 30 	sub	r8,r9,48
80008c46:	58 98       	cp.w	r8,9
80008c48:	e0 8b 00 1d 	brhi	80008c82 <_vfprintf_r+0x266>
80008c4c:	ee c8 ff ff 	sub	r8,r7,-1
80008c50:	30 0b       	mov	r11,0
80008c52:	23 09       	sub	r9,48
80008c54:	f6 0b 00 2b 	add	r11,r11,r11<<0x2
80008c58:	f2 0b 00 1b 	add	r11,r9,r11<<0x1
80008c5c:	11 39       	ld.ub	r9,r8++
80008c5e:	f2 ca 00 30 	sub	r10,r9,48
80008c62:	58 9a       	cp.w	r10,9
80008c64:	fe 98 ff f7 	brls	80008c52 <_vfprintf_r+0x236>
80008c68:	e0 49 00 24 	cp.w	r9,36
80008c6c:	cc 51       	brne	80008bf6 <_vfprintf_r+0x1da>
80008c6e:	e0 4b 00 20 	cp.w	r11,32
80008c72:	e0 89 0e 99 	brgt	8000a9a4 <_vfprintf_r+0x1f88>
80008c76:	20 1b       	sub	r11,1
80008c78:	fa f9 06 b4 	ld.w	r9,sp[1716]
80008c7c:	12 3b       	cp.w	r11,r9
80008c7e:	c0 95       	brlt	80008c90 <_vfprintf_r+0x274>
80008c80:	c1 08       	rjmp	80008ca0 <_vfprintf_r+0x284>
80008c82:	fa f9 06 b4 	ld.w	r9,sp[1716]
80008c86:	ec ca ff ff 	sub	r10,r6,-1
80008c8a:	12 36       	cp.w	r6,r9
80008c8c:	c1 f5       	brlt	80008cca <_vfprintf_r+0x2ae>
80008c8e:	c2 68       	rjmp	80008cda <_vfprintf_r+0x2be>
80008c90:	fa c9 f9 44 	sub	r9,sp,-1724
80008c94:	10 97       	mov	r7,r8
80008c96:	f2 0b 00 3b 	add	r11,r9,r11<<0x3
80008c9a:	f6 f0 fd 88 	ld.w	r0,r11[-632]
80008c9e:	c3 58       	rjmp	80008d08 <_vfprintf_r+0x2ec>
80008ca0:	10 97       	mov	r7,r8
80008ca2:	fa c8 f9 50 	sub	r8,sp,-1712
80008ca6:	1a d8       	st.w	--sp,r8
80008ca8:	fa c8 fa b8 	sub	r8,sp,-1352
80008cac:	1a d8       	st.w	--sp,r8
80008cae:	fa c8 fb b4 	sub	r8,sp,-1100
80008cb2:	02 9a       	mov	r10,r1
80008cb4:	1a d8       	st.w	--sp,r8
80008cb6:	04 9c       	mov	r12,r2
80008cb8:	fa c8 f9 40 	sub	r8,sp,-1728
80008cbc:	fa c9 ff b4 	sub	r9,sp,-76
80008cc0:	f0 1f 00 2e 	mcall	80008d78 <_vfprintf_r+0x35c>
80008cc4:	2f dd       	sub	sp,-12
80008cc6:	78 00       	ld.w	r0,r12[0x0]
80008cc8:	c2 08       	rjmp	80008d08 <_vfprintf_r+0x2ec>
80008cca:	fa ce f9 44 	sub	lr,sp,-1724
80008cce:	14 96       	mov	r6,r10
80008cd0:	fc 03 00 38 	add	r8,lr,r3<<0x3
80008cd4:	f0 f0 fd 88 	ld.w	r0,r8[-632]
80008cd8:	c1 88       	rjmp	80008d08 <_vfprintf_r+0x2ec>
80008cda:	41 08       	lddsp	r8,sp[0x40]
80008cdc:	59 f9       	cp.w	r9,31
80008cde:	e0 89 00 11 	brgt	80008d00 <_vfprintf_r+0x2e4>
80008ce2:	f0 cb ff fc 	sub	r11,r8,-4
80008ce6:	51 0b       	stdsp	sp[0x40],r11
80008ce8:	70 00       	ld.w	r0,r8[0x0]
80008cea:	fa cc f9 44 	sub	r12,sp,-1724
80008cee:	f8 09 00 38 	add	r8,r12,r9<<0x3
80008cf2:	f1 40 fd 88 	st.w	r8[-632],r0
80008cf6:	2f f9       	sub	r9,-1
80008cf8:	14 96       	mov	r6,r10
80008cfa:	fb 49 06 b4 	st.w	sp[1716],r9
80008cfe:	c0 58       	rjmp	80008d08 <_vfprintf_r+0x2ec>
80008d00:	70 00       	ld.w	r0,r8[0x0]
80008d02:	14 96       	mov	r6,r10
80008d04:	2f c8       	sub	r8,-4
80008d06:	51 08       	stdsp	sp[0x40],r8
80008d08:	58 00       	cp.w	r0,0
80008d0a:	fe 94 ff 78 	brge	80008bfa <_vfprintf_r+0x1de>
80008d0e:	5c 30       	neg	r0
80008d10:	a3 a5       	sbr	r5,0x2
80008d12:	c7 4b       	rjmp	80008bfa <_vfprintf_r+0x1de>
80008d14:	32 b8       	mov	r8,43
80008d16:	fb 68 06 bb 	st.b	sp[1723],r8
80008d1a:	c7 0b       	rjmp	80008bfa <_vfprintf_r+0x1de>
80008d1c:	0f 38       	ld.ub	r8,r7++
80008d1e:	e0 48 00 2a 	cp.w	r8,42
80008d22:	c0 30       	breq	80008d28 <_vfprintf_r+0x30c>
80008d24:	30 09       	mov	r9,0
80008d26:	c8 08       	rjmp	80008e26 <_vfprintf_r+0x40a>
80008d28:	0f 88       	ld.ub	r8,r7[0x0]
80008d2a:	f0 c9 00 30 	sub	r9,r8,48
80008d2e:	58 99       	cp.w	r9,9
80008d30:	e0 8b 00 26 	brhi	80008d7c <_vfprintf_r+0x360>
80008d34:	ee c4 ff ff 	sub	r4,r7,-1
80008d38:	30 0b       	mov	r11,0
80008d3a:	23 08       	sub	r8,48
80008d3c:	f6 0b 00 2b 	add	r11,r11,r11<<0x2
80008d40:	f0 0b 00 1b 	add	r11,r8,r11<<0x1
80008d44:	09 38       	ld.ub	r8,r4++
80008d46:	f0 c9 00 30 	sub	r9,r8,48
80008d4a:	58 99       	cp.w	r9,9
80008d4c:	fe 98 ff f7 	brls	80008d3a <_vfprintf_r+0x31e>
80008d50:	e0 48 00 24 	cp.w	r8,36
80008d54:	fe 91 ff 51 	brne	80008bf6 <_vfprintf_r+0x1da>
80008d58:	e0 4b 00 20 	cp.w	r11,32
80008d5c:	e0 89 0e 24 	brgt	8000a9a4 <_vfprintf_r+0x1f88>
80008d60:	20 1b       	sub	r11,1
80008d62:	fa f8 06 b4 	ld.w	r8,sp[1716]
80008d66:	10 3b       	cp.w	r11,r8
80008d68:	c1 15       	brlt	80008d8a <_vfprintf_r+0x36e>
80008d6a:	c1 88       	rjmp	80008d9a <_vfprintf_r+0x37e>
80008d6c:	80 00       	ld.sh	r0,r0[0x0]
80008d6e:	89 fc       	st.w	r4[0x3c],r12
80008d70:	80 00       	ld.sh	r0,r0[0x0]
80008d72:	db bc       	*unknown*
80008d74:	80 00       	ld.sh	r0,r0[0x0]
80008d76:	dd f8       	*unknown*
80008d78:	80 00       	ld.sh	r0,r0[0x0]
80008d7a:	86 d8       	ld.uh	r8,r3[0xa]
80008d7c:	fa fa 06 b4 	ld.w	r10,sp[1716]
80008d80:	ec c9 ff ff 	sub	r9,r6,-1
80008d84:	14 36       	cp.w	r6,r10
80008d86:	c1 f5       	brlt	80008dc4 <_vfprintf_r+0x3a8>
80008d88:	c2 88       	rjmp	80008dd8 <_vfprintf_r+0x3bc>
80008d8a:	fa ca f9 44 	sub	r10,sp,-1724
80008d8e:	f4 0b 00 3b 	add	r11,r10,r11<<0x3
80008d92:	f6 fb fd 88 	ld.w	r11,r11[-632]
80008d96:	50 2b       	stdsp	sp[0x8],r11
80008d98:	c3 c8       	rjmp	80008e10 <_vfprintf_r+0x3f4>
80008d9a:	fa c8 f9 50 	sub	r8,sp,-1712
80008d9e:	1a d8       	st.w	--sp,r8
80008da0:	fa c8 fa b8 	sub	r8,sp,-1352
80008da4:	1a d8       	st.w	--sp,r8
80008da6:	fa c8 fb b4 	sub	r8,sp,-1100
80008daa:	02 9a       	mov	r10,r1
80008dac:	1a d8       	st.w	--sp,r8
80008dae:	04 9c       	mov	r12,r2
80008db0:	fa c8 f9 40 	sub	r8,sp,-1728
80008db4:	fa c9 ff b4 	sub	r9,sp,-76
80008db8:	f0 1f 01 7f 	mcall	800093b4 <_vfprintf_r+0x998>
80008dbc:	2f dd       	sub	sp,-12
80008dbe:	78 0c       	ld.w	r12,r12[0x0]
80008dc0:	50 2c       	stdsp	sp[0x8],r12
80008dc2:	c2 78       	rjmp	80008e10 <_vfprintf_r+0x3f4>
80008dc4:	12 96       	mov	r6,r9
80008dc6:	0e 94       	mov	r4,r7
80008dc8:	fa c9 f9 44 	sub	r9,sp,-1724
80008dcc:	f2 03 00 38 	add	r8,r9,r3<<0x3
80008dd0:	f0 f8 fd 88 	ld.w	r8,r8[-632]
80008dd4:	50 28       	stdsp	sp[0x8],r8
80008dd6:	c1 d8       	rjmp	80008e10 <_vfprintf_r+0x3f4>
80008dd8:	41 08       	lddsp	r8,sp[0x40]
80008dda:	59 fa       	cp.w	r10,31
80008ddc:	e0 89 00 14 	brgt	80008e04 <_vfprintf_r+0x3e8>
80008de0:	f0 cb ff fc 	sub	r11,r8,-4
80008de4:	70 08       	ld.w	r8,r8[0x0]
80008de6:	51 0b       	stdsp	sp[0x40],r11
80008de8:	50 28       	stdsp	sp[0x8],r8
80008dea:	fa c6 f9 44 	sub	r6,sp,-1724
80008dee:	40 2e       	lddsp	lr,sp[0x8]
80008df0:	ec 0a 00 38 	add	r8,r6,r10<<0x3
80008df4:	f1 4e fd 88 	st.w	r8[-632],lr
80008df8:	2f fa       	sub	r10,-1
80008dfa:	0e 94       	mov	r4,r7
80008dfc:	fb 4a 06 b4 	st.w	sp[1716],r10
80008e00:	12 96       	mov	r6,r9
80008e02:	c0 78       	rjmp	80008e10 <_vfprintf_r+0x3f4>
80008e04:	70 0c       	ld.w	r12,r8[0x0]
80008e06:	0e 94       	mov	r4,r7
80008e08:	2f c8       	sub	r8,-4
80008e0a:	50 2c       	stdsp	sp[0x8],r12
80008e0c:	12 96       	mov	r6,r9
80008e0e:	51 08       	stdsp	sp[0x40],r8
80008e10:	40 2b       	lddsp	r11,sp[0x8]
80008e12:	58 0b       	cp.w	r11,0
80008e14:	fe 95 fe ed 	brlt	80008bee <_vfprintf_r+0x1d2>
80008e18:	08 97       	mov	r7,r4
80008e1a:	cf 0a       	rjmp	80008bfa <_vfprintf_r+0x1de>
80008e1c:	f2 09 00 29 	add	r9,r9,r9<<0x2
80008e20:	0f 38       	ld.ub	r8,r7++
80008e22:	f4 09 00 19 	add	r9,r10,r9<<0x1
80008e26:	f0 ca 00 30 	sub	r10,r8,48
80008e2a:	58 9a       	cp.w	r10,9
80008e2c:	fe 98 ff f8 	brls	80008e1c <_vfprintf_r+0x400>
80008e30:	3f fa       	mov	r10,-1
80008e32:	f2 0a 0c 49 	max	r9,r9,r10
80008e36:	50 29       	stdsp	sp[0x8],r9
80008e38:	ce 4a       	rjmp	80008c00 <_vfprintf_r+0x1e4>
80008e3a:	a7 b5       	sbr	r5,0x7
80008e3c:	cd fa       	rjmp	80008bfa <_vfprintf_r+0x1de>
80008e3e:	30 09       	mov	r9,0
80008e40:	23 08       	sub	r8,48
80008e42:	f2 09 00 29 	add	r9,r9,r9<<0x2
80008e46:	f0 09 00 19 	add	r9,r8,r9<<0x1
80008e4a:	0f 38       	ld.ub	r8,r7++
80008e4c:	f0 ca 00 30 	sub	r10,r8,48
80008e50:	58 9a       	cp.w	r10,9
80008e52:	fe 98 ff f7 	brls	80008e40 <_vfprintf_r+0x424>
80008e56:	e0 48 00 24 	cp.w	r8,36
80008e5a:	fe 91 fe d2 	brne	80008bfe <_vfprintf_r+0x1e2>
80008e5e:	e0 49 00 20 	cp.w	r9,32
80008e62:	e0 89 0d a1 	brgt	8000a9a4 <_vfprintf_r+0x1f88>
80008e66:	f2 c3 00 01 	sub	r3,r9,1
80008e6a:	30 19       	mov	r9,1
80008e6c:	50 39       	stdsp	sp[0xc],r9
80008e6e:	cc 6a       	rjmp	80008bfa <_vfprintf_r+0x1de>
80008e70:	a3 b5       	sbr	r5,0x3
80008e72:	cc 4a       	rjmp	80008bfa <_vfprintf_r+0x1de>
80008e74:	a7 a5       	sbr	r5,0x6
80008e76:	cc 2a       	rjmp	80008bfa <_vfprintf_r+0x1de>
80008e78:	0a 99       	mov	r9,r5
80008e7a:	0e 98       	mov	r8,r7
80008e7c:	a5 a9       	sbr	r9,0x4
80008e7e:	a5 b5       	sbr	r5,0x5
80008e80:	11 3a       	ld.ub	r10,r8++
80008e82:	36 ce       	mov	lr,108
80008e84:	fc 0a 18 00 	cp.b	r10,lr
80008e88:	c0 31       	brne	80008e8e <_vfprintf_r+0x472>
80008e8a:	10 97       	mov	r7,r8
80008e8c:	cb 7a       	rjmp	80008bfa <_vfprintf_r+0x1de>
80008e8e:	12 95       	mov	r5,r9
80008e90:	cb 5a       	rjmp	80008bfa <_vfprintf_r+0x1de>
80008e92:	a5 b5       	sbr	r5,0x5
80008e94:	cb 3a       	rjmp	80008bfa <_vfprintf_r+0x1de>
80008e96:	50 a7       	stdsp	sp[0x28],r7
80008e98:	50 80       	stdsp	sp[0x20],r0
80008e9a:	0c 97       	mov	r7,r6
80008e9c:	10 90       	mov	r0,r8
80008e9e:	06 96       	mov	r6,r3
80008ea0:	04 94       	mov	r4,r2
80008ea2:	40 93       	lddsp	r3,sp[0x24]
80008ea4:	02 92       	mov	r2,r1
80008ea6:	0e 99       	mov	r9,r7
80008ea8:	40 41       	lddsp	r1,sp[0x10]
80008eaa:	fa f8 06 b4 	ld.w	r8,sp[1716]
80008eae:	40 3c       	lddsp	r12,sp[0xc]
80008eb0:	58 0c       	cp.w	r12,0
80008eb2:	c1 d0       	breq	80008eec <_vfprintf_r+0x4d0>
80008eb4:	10 36       	cp.w	r6,r8
80008eb6:	c0 64       	brge	80008ec2 <_vfprintf_r+0x4a6>
80008eb8:	fa cb f9 44 	sub	r11,sp,-1724
80008ebc:	f6 06 00 36 	add	r6,r11,r6<<0x3
80008ec0:	c1 d8       	rjmp	80008efa <_vfprintf_r+0x4de>
80008ec2:	fa c8 f9 50 	sub	r8,sp,-1712
80008ec6:	1a d8       	st.w	--sp,r8
80008ec8:	fa c8 fa b8 	sub	r8,sp,-1352
80008ecc:	1a d8       	st.w	--sp,r8
80008ece:	fa c8 fb b4 	sub	r8,sp,-1100
80008ed2:	1a d8       	st.w	--sp,r8
80008ed4:	fa c8 f9 40 	sub	r8,sp,-1728
80008ed8:	fa c9 ff b4 	sub	r9,sp,-76
80008edc:	04 9a       	mov	r10,r2
80008ede:	0c 9b       	mov	r11,r6
80008ee0:	08 9c       	mov	r12,r4
80008ee2:	f0 1f 01 35 	mcall	800093b4 <_vfprintf_r+0x998>
80008ee6:	2f dd       	sub	sp,-12
80008ee8:	19 b8       	ld.ub	r8,r12[0x3]
80008eea:	c2 28       	rjmp	80008f2e <_vfprintf_r+0x512>
80008eec:	2f f7       	sub	r7,-1
80008eee:	10 39       	cp.w	r9,r8
80008ef0:	c0 84       	brge	80008f00 <_vfprintf_r+0x4e4>
80008ef2:	fa ca f9 44 	sub	r10,sp,-1724
80008ef6:	f4 06 00 36 	add	r6,r10,r6<<0x3
80008efa:	ed 38 fd 8b 	ld.ub	r8,r6[-629]
80008efe:	c1 88       	rjmp	80008f2e <_vfprintf_r+0x512>
80008f00:	41 09       	lddsp	r9,sp[0x40]
80008f02:	59 f8       	cp.w	r8,31
80008f04:	e0 89 00 12 	brgt	80008f28 <_vfprintf_r+0x50c>
80008f08:	f2 ca ff fc 	sub	r10,r9,-4
80008f0c:	51 0a       	stdsp	sp[0x40],r10
80008f0e:	72 09       	ld.w	r9,r9[0x0]
80008f10:	fa c6 f9 44 	sub	r6,sp,-1724
80008f14:	ec 08 00 3a 	add	r10,r6,r8<<0x3
80008f18:	2f f8       	sub	r8,-1
80008f1a:	f5 49 fd 88 	st.w	r10[-632],r9
80008f1e:	fb 48 06 b4 	st.w	sp[1716],r8
80008f22:	f1 d9 c0 08 	bfextu	r8,r9,0x0,0x8
80008f26:	c0 48       	rjmp	80008f2e <_vfprintf_r+0x512>
80008f28:	13 b8       	ld.ub	r8,r9[0x3]
80008f2a:	2f c9       	sub	r9,-4
80008f2c:	51 09       	stdsp	sp[0x40],r9
80008f2e:	fb 68 06 60 	st.b	sp[1632],r8
80008f32:	30 0e       	mov	lr,0
80008f34:	30 08       	mov	r8,0
80008f36:	30 12       	mov	r2,1
80008f38:	fb 68 06 bb 	st.b	sp[1723],r8
80008f3c:	50 2e       	stdsp	sp[0x8],lr
80008f3e:	e0 8f 08 cf 	bral	8000a0dc <_vfprintf_r+0x16c0>
80008f42:	50 a7       	stdsp	sp[0x28],r7
80008f44:	50 80       	stdsp	sp[0x20],r0
80008f46:	0c 97       	mov	r7,r6
80008f48:	04 94       	mov	r4,r2
80008f4a:	06 96       	mov	r6,r3
80008f4c:	02 92       	mov	r2,r1
80008f4e:	40 93       	lddsp	r3,sp[0x24]
80008f50:	10 90       	mov	r0,r8
80008f52:	40 41       	lddsp	r1,sp[0x10]
80008f54:	a5 a5       	sbr	r5,0x4
80008f56:	c0 a8       	rjmp	80008f6a <_vfprintf_r+0x54e>
80008f58:	50 a7       	stdsp	sp[0x28],r7
80008f5a:	50 80       	stdsp	sp[0x20],r0
80008f5c:	0c 97       	mov	r7,r6
80008f5e:	04 94       	mov	r4,r2
80008f60:	06 96       	mov	r6,r3
80008f62:	02 92       	mov	r2,r1
80008f64:	40 93       	lddsp	r3,sp[0x24]
80008f66:	10 90       	mov	r0,r8
80008f68:	40 41       	lddsp	r1,sp[0x10]
80008f6a:	ed b5 00 05 	bld	r5,0x5
80008f6e:	c5 11       	brne	80009010 <_vfprintf_r+0x5f4>
80008f70:	fa f8 06 b4 	ld.w	r8,sp[1716]
80008f74:	40 3c       	lddsp	r12,sp[0xc]
80008f76:	58 0c       	cp.w	r12,0
80008f78:	c1 e0       	breq	80008fb4 <_vfprintf_r+0x598>
80008f7a:	10 36       	cp.w	r6,r8
80008f7c:	c0 64       	brge	80008f88 <_vfprintf_r+0x56c>
80008f7e:	fa cb f9 44 	sub	r11,sp,-1724
80008f82:	f6 06 00 36 	add	r6,r11,r6<<0x3
80008f86:	c2 08       	rjmp	80008fc6 <_vfprintf_r+0x5aa>
80008f88:	fa c8 f9 50 	sub	r8,sp,-1712
80008f8c:	1a d8       	st.w	--sp,r8
80008f8e:	fa c8 fa b8 	sub	r8,sp,-1352
80008f92:	0c 9b       	mov	r11,r6
80008f94:	1a d8       	st.w	--sp,r8
80008f96:	fa c8 fb b4 	sub	r8,sp,-1100
80008f9a:	1a d8       	st.w	--sp,r8
80008f9c:	fa c9 ff b4 	sub	r9,sp,-76
80008fa0:	fa c8 f9 40 	sub	r8,sp,-1728
80008fa4:	04 9a       	mov	r10,r2
80008fa6:	08 9c       	mov	r12,r4
80008fa8:	f0 1f 01 03 	mcall	800093b4 <_vfprintf_r+0x998>
80008fac:	2f dd       	sub	sp,-12
80008fae:	78 1b       	ld.w	r11,r12[0x4]
80008fb0:	78 09       	ld.w	r9,r12[0x0]
80008fb2:	c2 b8       	rjmp	80009008 <_vfprintf_r+0x5ec>
80008fb4:	ee ca ff ff 	sub	r10,r7,-1
80008fb8:	10 37       	cp.w	r7,r8
80008fba:	c0 b4       	brge	80008fd0 <_vfprintf_r+0x5b4>
80008fbc:	fa c9 f9 44 	sub	r9,sp,-1724
80008fc0:	14 97       	mov	r7,r10
80008fc2:	f2 06 00 36 	add	r6,r9,r6<<0x3
80008fc6:	ec fb fd 8c 	ld.w	r11,r6[-628]
80008fca:	ec f9 fd 88 	ld.w	r9,r6[-632]
80008fce:	c1 d8       	rjmp	80009008 <_vfprintf_r+0x5ec>
80008fd0:	41 09       	lddsp	r9,sp[0x40]
80008fd2:	59 f8       	cp.w	r8,31
80008fd4:	e0 89 00 14 	brgt	80008ffc <_vfprintf_r+0x5e0>
80008fd8:	f2 cb ff f8 	sub	r11,r9,-8
80008fdc:	51 0b       	stdsp	sp[0x40],r11
80008fde:	fa c6 f9 44 	sub	r6,sp,-1724
80008fe2:	72 1b       	ld.w	r11,r9[0x4]
80008fe4:	ec 08 00 3c 	add	r12,r6,r8<<0x3
80008fe8:	72 09       	ld.w	r9,r9[0x0]
80008fea:	f9 4b fd 8c 	st.w	r12[-628],r11
80008fee:	f9 49 fd 88 	st.w	r12[-632],r9
80008ff2:	2f f8       	sub	r8,-1
80008ff4:	14 97       	mov	r7,r10
80008ff6:	fb 48 06 b4 	st.w	sp[1716],r8
80008ffa:	c0 78       	rjmp	80009008 <_vfprintf_r+0x5ec>
80008ffc:	f2 c8 ff f8 	sub	r8,r9,-8
80009000:	72 1b       	ld.w	r11,r9[0x4]
80009002:	14 97       	mov	r7,r10
80009004:	51 08       	stdsp	sp[0x40],r8
80009006:	72 09       	ld.w	r9,r9[0x0]
80009008:	16 98       	mov	r8,r11
8000900a:	fa e9 00 00 	st.d	sp[0],r8
8000900e:	ca e8       	rjmp	8000916a <_vfprintf_r+0x74e>
80009010:	ed b5 00 04 	bld	r5,0x4
80009014:	c1 71       	brne	80009042 <_vfprintf_r+0x626>
80009016:	fa f8 06 b4 	ld.w	r8,sp[1716]
8000901a:	40 3e       	lddsp	lr,sp[0xc]
8000901c:	58 0e       	cp.w	lr,0
8000901e:	c0 80       	breq	8000902e <_vfprintf_r+0x612>
80009020:	10 36       	cp.w	r6,r8
80009022:	c6 94       	brge	800090f4 <_vfprintf_r+0x6d8>
80009024:	fa cc f9 44 	sub	r12,sp,-1724
80009028:	f8 06 00 36 	add	r6,r12,r6<<0x3
8000902c:	c8 28       	rjmp	80009130 <_vfprintf_r+0x714>
8000902e:	ee ca ff ff 	sub	r10,r7,-1
80009032:	10 37       	cp.w	r7,r8
80009034:	e0 84 00 81 	brge	80009136 <_vfprintf_r+0x71a>
80009038:	fa cb f9 44 	sub	r11,sp,-1724
8000903c:	f6 06 00 36 	add	r6,r11,r6<<0x3
80009040:	c7 78       	rjmp	8000912e <_vfprintf_r+0x712>
80009042:	ed b5 00 06 	bld	r5,0x6
80009046:	c4 b1       	brne	800090dc <_vfprintf_r+0x6c0>
80009048:	fa f8 06 b4 	ld.w	r8,sp[1716]
8000904c:	40 3c       	lddsp	r12,sp[0xc]
8000904e:	58 0c       	cp.w	r12,0
80009050:	c1 d0       	breq	8000908a <_vfprintf_r+0x66e>
80009052:	10 36       	cp.w	r6,r8
80009054:	c0 64       	brge	80009060 <_vfprintf_r+0x644>
80009056:	fa cb f9 44 	sub	r11,sp,-1724
8000905a:	f6 06 00 36 	add	r6,r11,r6<<0x3
8000905e:	c1 f8       	rjmp	8000909c <_vfprintf_r+0x680>
80009060:	fa c8 f9 50 	sub	r8,sp,-1712
80009064:	1a d8       	st.w	--sp,r8
80009066:	fa c8 fa b8 	sub	r8,sp,-1352
8000906a:	1a d8       	st.w	--sp,r8
8000906c:	fa c8 fb b4 	sub	r8,sp,-1100
80009070:	1a d8       	st.w	--sp,r8
80009072:	fa c8 f9 40 	sub	r8,sp,-1728
80009076:	fa c9 ff b4 	sub	r9,sp,-76
8000907a:	04 9a       	mov	r10,r2
8000907c:	0c 9b       	mov	r11,r6
8000907e:	08 9c       	mov	r12,r4
80009080:	f0 1f 00 cd 	mcall	800093b4 <_vfprintf_r+0x998>
80009084:	2f dd       	sub	sp,-12
80009086:	98 18       	ld.sh	r8,r12[0x2]
80009088:	c2 68       	rjmp	800090d4 <_vfprintf_r+0x6b8>
8000908a:	ee ca ff ff 	sub	r10,r7,-1
8000908e:	10 37       	cp.w	r7,r8
80009090:	c0 94       	brge	800090a2 <_vfprintf_r+0x686>
80009092:	fa c9 f9 44 	sub	r9,sp,-1724
80009096:	14 97       	mov	r7,r10
80009098:	f2 06 00 36 	add	r6,r9,r6<<0x3
8000909c:	ed 08 fd 8a 	ld.sh	r8,r6[-630]
800090a0:	c1 a8       	rjmp	800090d4 <_vfprintf_r+0x6b8>
800090a2:	41 09       	lddsp	r9,sp[0x40]
800090a4:	59 f8       	cp.w	r8,31
800090a6:	e0 89 00 13 	brgt	800090cc <_vfprintf_r+0x6b0>
800090aa:	f2 cb ff fc 	sub	r11,r9,-4
800090ae:	51 0b       	stdsp	sp[0x40],r11
800090b0:	72 09       	ld.w	r9,r9[0x0]
800090b2:	fa c6 f9 44 	sub	r6,sp,-1724
800090b6:	ec 08 00 3b 	add	r11,r6,r8<<0x3
800090ba:	2f f8       	sub	r8,-1
800090bc:	f7 49 fd 88 	st.w	r11[-632],r9
800090c0:	fb 48 06 b4 	st.w	sp[1716],r8
800090c4:	14 97       	mov	r7,r10
800090c6:	f1 d9 b0 10 	bfexts	r8,r9,0x0,0x10
800090ca:	c0 58       	rjmp	800090d4 <_vfprintf_r+0x6b8>
800090cc:	92 18       	ld.sh	r8,r9[0x2]
800090ce:	14 97       	mov	r7,r10
800090d0:	2f c9       	sub	r9,-4
800090d2:	51 09       	stdsp	sp[0x40],r9
800090d4:	50 18       	stdsp	sp[0x4],r8
800090d6:	bf 58       	asr	r8,0x1f
800090d8:	50 08       	stdsp	sp[0x0],r8
800090da:	c4 88       	rjmp	8000916a <_vfprintf_r+0x74e>
800090dc:	fa f8 06 b4 	ld.w	r8,sp[1716]
800090e0:	40 3c       	lddsp	r12,sp[0xc]
800090e2:	58 0c       	cp.w	r12,0
800090e4:	c1 d0       	breq	8000911e <_vfprintf_r+0x702>
800090e6:	10 36       	cp.w	r6,r8
800090e8:	c0 64       	brge	800090f4 <_vfprintf_r+0x6d8>
800090ea:	fa cb f9 44 	sub	r11,sp,-1724
800090ee:	f6 06 00 36 	add	r6,r11,r6<<0x3
800090f2:	c1 f8       	rjmp	80009130 <_vfprintf_r+0x714>
800090f4:	fa c8 f9 50 	sub	r8,sp,-1712
800090f8:	1a d8       	st.w	--sp,r8
800090fa:	fa c8 fa b8 	sub	r8,sp,-1352
800090fe:	0c 9b       	mov	r11,r6
80009100:	1a d8       	st.w	--sp,r8
80009102:	fa c8 fb b4 	sub	r8,sp,-1100
80009106:	04 9a       	mov	r10,r2
80009108:	1a d8       	st.w	--sp,r8
8000910a:	08 9c       	mov	r12,r4
8000910c:	fa c8 f9 40 	sub	r8,sp,-1728
80009110:	fa c9 ff b4 	sub	r9,sp,-76
80009114:	f0 1f 00 a8 	mcall	800093b4 <_vfprintf_r+0x998>
80009118:	2f dd       	sub	sp,-12
8000911a:	78 0b       	ld.w	r11,r12[0x0]
8000911c:	c2 48       	rjmp	80009164 <_vfprintf_r+0x748>
8000911e:	ee ca ff ff 	sub	r10,r7,-1
80009122:	10 37       	cp.w	r7,r8
80009124:	c0 94       	brge	80009136 <_vfprintf_r+0x71a>
80009126:	fa c9 f9 44 	sub	r9,sp,-1724
8000912a:	f2 06 00 36 	add	r6,r9,r6<<0x3
8000912e:	14 97       	mov	r7,r10
80009130:	ec fb fd 88 	ld.w	r11,r6[-632]
80009134:	c1 88       	rjmp	80009164 <_vfprintf_r+0x748>
80009136:	41 09       	lddsp	r9,sp[0x40]
80009138:	59 f8       	cp.w	r8,31
8000913a:	e0 89 00 11 	brgt	8000915c <_vfprintf_r+0x740>
8000913e:	f2 cb ff fc 	sub	r11,r9,-4
80009142:	51 0b       	stdsp	sp[0x40],r11
80009144:	fa c6 f9 44 	sub	r6,sp,-1724
80009148:	72 0b       	ld.w	r11,r9[0x0]
8000914a:	ec 08 00 39 	add	r9,r6,r8<<0x3
8000914e:	f3 4b fd 88 	st.w	r9[-632],r11
80009152:	2f f8       	sub	r8,-1
80009154:	14 97       	mov	r7,r10
80009156:	fb 48 06 b4 	st.w	sp[1716],r8
8000915a:	c0 58       	rjmp	80009164 <_vfprintf_r+0x748>
8000915c:	72 0b       	ld.w	r11,r9[0x0]
8000915e:	14 97       	mov	r7,r10
80009160:	2f c9       	sub	r9,-4
80009162:	51 09       	stdsp	sp[0x40],r9
80009164:	50 1b       	stdsp	sp[0x4],r11
80009166:	bf 5b       	asr	r11,0x1f
80009168:	50 0b       	stdsp	sp[0x0],r11
8000916a:	fa ea 00 00 	ld.d	r10,sp[0]
8000916e:	58 0a       	cp.w	r10,0
80009170:	5c 2b       	cpc	r11
80009172:	c0 e4       	brge	8000918e <_vfprintf_r+0x772>
80009174:	30 08       	mov	r8,0
80009176:	fa ea 00 00 	ld.d	r10,sp[0]
8000917a:	30 09       	mov	r9,0
8000917c:	f0 0a 01 0a 	sub	r10,r8,r10
80009180:	f2 0b 01 4b 	sbc	r11,r9,r11
80009184:	32 d8       	mov	r8,45
80009186:	fa eb 00 00 	st.d	sp[0],r10
8000918a:	fb 68 06 bb 	st.b	sp[1723],r8
8000918e:	30 18       	mov	r8,1
80009190:	e0 8f 07 1c 	bral	80009fc8 <_vfprintf_r+0x15ac>
80009194:	50 a7       	stdsp	sp[0x28],r7
80009196:	50 80       	stdsp	sp[0x20],r0
80009198:	0c 97       	mov	r7,r6
8000919a:	04 94       	mov	r4,r2
8000919c:	06 96       	mov	r6,r3
8000919e:	02 92       	mov	r2,r1
800091a0:	40 93       	lddsp	r3,sp[0x24]
800091a2:	10 90       	mov	r0,r8
800091a4:	40 41       	lddsp	r1,sp[0x10]
800091a6:	0e 99       	mov	r9,r7
800091a8:	ed b5 00 03 	bld	r5,0x3
800091ac:	c4 11       	brne	8000922e <_vfprintf_r+0x812>
800091ae:	fa f8 06 b4 	ld.w	r8,sp[1716]
800091b2:	40 3a       	lddsp	r10,sp[0xc]
800091b4:	58 0a       	cp.w	r10,0
800091b6:	c1 90       	breq	800091e8 <_vfprintf_r+0x7cc>
800091b8:	10 36       	cp.w	r6,r8
800091ba:	c6 45       	brlt	80009282 <_vfprintf_r+0x866>
800091bc:	fa c8 f9 50 	sub	r8,sp,-1712
800091c0:	1a d8       	st.w	--sp,r8
800091c2:	fa c8 fa b8 	sub	r8,sp,-1352
800091c6:	1a d8       	st.w	--sp,r8
800091c8:	fa c8 fb b4 	sub	r8,sp,-1100
800091cc:	0c 9b       	mov	r11,r6
800091ce:	1a d8       	st.w	--sp,r8
800091d0:	04 9a       	mov	r10,r2
800091d2:	fa c8 f9 40 	sub	r8,sp,-1728
800091d6:	fa c9 ff b4 	sub	r9,sp,-76
800091da:	08 9c       	mov	r12,r4
800091dc:	f0 1f 00 76 	mcall	800093b4 <_vfprintf_r+0x998>
800091e0:	2f dd       	sub	sp,-12
800091e2:	78 16       	ld.w	r6,r12[0x4]
800091e4:	50 76       	stdsp	sp[0x1c],r6
800091e6:	c4 88       	rjmp	80009276 <_vfprintf_r+0x85a>
800091e8:	2f f7       	sub	r7,-1
800091ea:	10 39       	cp.w	r9,r8
800091ec:	c0 c4       	brge	80009204 <_vfprintf_r+0x7e8>
800091ee:	fa ce f9 44 	sub	lr,sp,-1724
800091f2:	fc 06 00 36 	add	r6,lr,r6<<0x3
800091f6:	ec fc fd 8c 	ld.w	r12,r6[-628]
800091fa:	50 7c       	stdsp	sp[0x1c],r12
800091fc:	ec f6 fd 88 	ld.w	r6,r6[-632]
80009200:	50 56       	stdsp	sp[0x14],r6
80009202:	c6 68       	rjmp	800092ce <_vfprintf_r+0x8b2>
80009204:	41 09       	lddsp	r9,sp[0x40]
80009206:	59 f8       	cp.w	r8,31
80009208:	e0 89 00 10 	brgt	80009228 <_vfprintf_r+0x80c>
8000920c:	f2 ca ff f8 	sub	r10,r9,-8
80009210:	72 1b       	ld.w	r11,r9[0x4]
80009212:	51 0a       	stdsp	sp[0x40],r10
80009214:	72 09       	ld.w	r9,r9[0x0]
80009216:	fa ca f9 44 	sub	r10,sp,-1724
8000921a:	50 7b       	stdsp	sp[0x1c],r11
8000921c:	50 59       	stdsp	sp[0x14],r9
8000921e:	f4 08 00 39 	add	r9,r10,r8<<0x3
80009222:	40 5b       	lddsp	r11,sp[0x14]
80009224:	40 7a       	lddsp	r10,sp[0x1c]
80009226:	c4 78       	rjmp	800092b4 <_vfprintf_r+0x898>
80009228:	72 18       	ld.w	r8,r9[0x4]
8000922a:	50 78       	stdsp	sp[0x1c],r8
8000922c:	c4 c8       	rjmp	800092c4 <_vfprintf_r+0x8a8>
8000922e:	fa f8 06 b4 	ld.w	r8,sp[1716]
80009232:	40 3e       	lddsp	lr,sp[0xc]
80009234:	58 0e       	cp.w	lr,0
80009236:	c2 30       	breq	8000927c <_vfprintf_r+0x860>
80009238:	10 36       	cp.w	r6,r8
8000923a:	c0 94       	brge	8000924c <_vfprintf_r+0x830>
8000923c:	fa cc f9 44 	sub	r12,sp,-1724
80009240:	f8 06 00 36 	add	r6,r12,r6<<0x3
80009244:	ec fb fd 8c 	ld.w	r11,r6[-628]
80009248:	50 7b       	stdsp	sp[0x1c],r11
8000924a:	cd 9b       	rjmp	800091fc <_vfprintf_r+0x7e0>
8000924c:	fa c8 f9 50 	sub	r8,sp,-1712
80009250:	1a d8       	st.w	--sp,r8
80009252:	fa c8 fa b8 	sub	r8,sp,-1352
80009256:	04 9a       	mov	r10,r2
80009258:	1a d8       	st.w	--sp,r8
8000925a:	fa c8 fb b4 	sub	r8,sp,-1100
8000925e:	0c 9b       	mov	r11,r6
80009260:	1a d8       	st.w	--sp,r8
80009262:	08 9c       	mov	r12,r4
80009264:	fa c8 f9 40 	sub	r8,sp,-1728
80009268:	fa c9 ff b4 	sub	r9,sp,-76
8000926c:	f0 1f 00 52 	mcall	800093b4 <_vfprintf_r+0x998>
80009270:	2f dd       	sub	sp,-12
80009272:	78 1a       	ld.w	r10,r12[0x4]
80009274:	50 7a       	stdsp	sp[0x1c],r10
80009276:	78 0c       	ld.w	r12,r12[0x0]
80009278:	50 5c       	stdsp	sp[0x14],r12
8000927a:	c2 a8       	rjmp	800092ce <_vfprintf_r+0x8b2>
8000927c:	2f f7       	sub	r7,-1
8000927e:	10 39       	cp.w	r9,r8
80009280:	c0 94       	brge	80009292 <_vfprintf_r+0x876>
80009282:	fa c9 f9 44 	sub	r9,sp,-1724
80009286:	f2 06 00 36 	add	r6,r9,r6<<0x3
8000928a:	ec f8 fd 8c 	ld.w	r8,r6[-628]
8000928e:	50 78       	stdsp	sp[0x1c],r8
80009290:	cb 6b       	rjmp	800091fc <_vfprintf_r+0x7e0>
80009292:	41 09       	lddsp	r9,sp[0x40]
80009294:	59 f8       	cp.w	r8,31
80009296:	e0 89 00 15 	brgt	800092c0 <_vfprintf_r+0x8a4>
8000929a:	f2 ca ff f8 	sub	r10,r9,-8
8000929e:	72 16       	ld.w	r6,r9[0x4]
800092a0:	72 09       	ld.w	r9,r9[0x0]
800092a2:	51 0a       	stdsp	sp[0x40],r10
800092a4:	50 59       	stdsp	sp[0x14],r9
800092a6:	fa ce f9 44 	sub	lr,sp,-1724
800092aa:	50 76       	stdsp	sp[0x1c],r6
800092ac:	fc 08 00 39 	add	r9,lr,r8<<0x3
800092b0:	40 5b       	lddsp	r11,sp[0x14]
800092b2:	0c 9a       	mov	r10,r6
800092b4:	f2 eb fd 88 	st.d	r9[-632],r10
800092b8:	2f f8       	sub	r8,-1
800092ba:	fb 48 06 b4 	st.w	sp[1716],r8
800092be:	c0 88       	rjmp	800092ce <_vfprintf_r+0x8b2>
800092c0:	72 1c       	ld.w	r12,r9[0x4]
800092c2:	50 7c       	stdsp	sp[0x1c],r12
800092c4:	f2 c8 ff f8 	sub	r8,r9,-8
800092c8:	51 08       	stdsp	sp[0x40],r8
800092ca:	72 09       	ld.w	r9,r9[0x0]
800092cc:	50 59       	stdsp	sp[0x14],r9
800092ce:	40 5b       	lddsp	r11,sp[0x14]
800092d0:	40 7a       	lddsp	r10,sp[0x1c]
800092d2:	f0 1f 00 3a 	mcall	800093b8 <_vfprintf_r+0x99c>
800092d6:	18 96       	mov	r6,r12
800092d8:	c1 50       	breq	80009302 <_vfprintf_r+0x8e6>
800092da:	30 08       	mov	r8,0
800092dc:	30 09       	mov	r9,0
800092de:	40 5b       	lddsp	r11,sp[0x14]
800092e0:	40 7a       	lddsp	r10,sp[0x1c]
800092e2:	f0 1f 00 37 	mcall	800093bc <_vfprintf_r+0x9a0>
800092e6:	c0 40       	breq	800092ee <_vfprintf_r+0x8d2>
800092e8:	32 d8       	mov	r8,45
800092ea:	fb 68 06 bb 	st.b	sp[1723],r8
800092ee:	4b 58       	lddpc	r8,800093c0 <_vfprintf_r+0x9a4>
800092f0:	4b 56       	lddpc	r6,800093c4 <_vfprintf_r+0x9a8>
800092f2:	a7 d5       	cbr	r5,0x7
800092f4:	e0 40 00 47 	cp.w	r0,71
800092f8:	f0 06 17 a0 	movle	r6,r8
800092fc:	30 32       	mov	r2,3
800092fe:	e0 8f 06 f2 	bral	8000a0e2 <_vfprintf_r+0x16c6>
80009302:	40 5b       	lddsp	r11,sp[0x14]
80009304:	40 7a       	lddsp	r10,sp[0x1c]
80009306:	f0 1f 00 31 	mcall	800093c8 <_vfprintf_r+0x9ac>
8000930a:	c0 c0       	breq	80009322 <_vfprintf_r+0x906>
8000930c:	50 26       	stdsp	sp[0x8],r6
8000930e:	4b 08       	lddpc	r8,800093cc <_vfprintf_r+0x9b0>
80009310:	4b 06       	lddpc	r6,800093d0 <_vfprintf_r+0x9b4>
80009312:	a7 d5       	cbr	r5,0x7
80009314:	e0 40 00 47 	cp.w	r0,71
80009318:	f0 06 17 a0 	movle	r6,r8
8000931c:	30 32       	mov	r2,3
8000931e:	e0 8f 06 e8 	bral	8000a0ee <_vfprintf_r+0x16d2>
80009322:	40 2a       	lddsp	r10,sp[0x8]
80009324:	5b fa       	cp.w	r10,-1
80009326:	c0 41       	brne	8000932e <_vfprintf_r+0x912>
80009328:	30 69       	mov	r9,6
8000932a:	50 29       	stdsp	sp[0x8],r9
8000932c:	c1 18       	rjmp	8000934e <_vfprintf_r+0x932>
8000932e:	e0 40 00 47 	cp.w	r0,71
80009332:	5f 09       	sreq	r9
80009334:	e0 40 00 67 	cp.w	r0,103
80009338:	5f 08       	sreq	r8
8000933a:	f3 e8 10 08 	or	r8,r9,r8
8000933e:	f8 08 18 00 	cp.b	r8,r12
80009342:	c0 60       	breq	8000934e <_vfprintf_r+0x932>
80009344:	40 28       	lddsp	r8,sp[0x8]
80009346:	58 08       	cp.w	r8,0
80009348:	f9 b8 00 01 	moveq	r8,1
8000934c:	50 28       	stdsp	sp[0x8],r8
8000934e:	40 78       	lddsp	r8,sp[0x1c]
80009350:	40 59       	lddsp	r9,sp[0x14]
80009352:	fa e9 06 94 	st.d	sp[1684],r8
80009356:	a9 a5       	sbr	r5,0x8
80009358:	fa f8 06 94 	ld.w	r8,sp[1684]
8000935c:	58 08       	cp.w	r8,0
8000935e:	c0 65       	brlt	8000936a <_vfprintf_r+0x94e>
80009360:	40 5e       	lddsp	lr,sp[0x14]
80009362:	30 0c       	mov	r12,0
80009364:	50 6e       	stdsp	sp[0x18],lr
80009366:	50 9c       	stdsp	sp[0x24],r12
80009368:	c0 78       	rjmp	80009376 <_vfprintf_r+0x95a>
8000936a:	40 5b       	lddsp	r11,sp[0x14]
8000936c:	32 da       	mov	r10,45
8000936e:	ee 1b 80 00 	eorh	r11,0x8000
80009372:	50 9a       	stdsp	sp[0x24],r10
80009374:	50 6b       	stdsp	sp[0x18],r11
80009376:	e0 40 00 46 	cp.w	r0,70
8000937a:	5f 09       	sreq	r9
8000937c:	e0 40 00 66 	cp.w	r0,102
80009380:	5f 08       	sreq	r8
80009382:	f3 e8 10 08 	or	r8,r9,r8
80009386:	50 48       	stdsp	sp[0x10],r8
80009388:	c0 40       	breq	80009390 <_vfprintf_r+0x974>
8000938a:	40 22       	lddsp	r2,sp[0x8]
8000938c:	30 39       	mov	r9,3
8000938e:	c2 58       	rjmp	800093d8 <_vfprintf_r+0x9bc>
80009390:	e0 40 00 45 	cp.w	r0,69
80009394:	5f 09       	sreq	r9
80009396:	e0 40 00 65 	cp.w	r0,101
8000939a:	5f 08       	sreq	r8
8000939c:	40 2b       	lddsp	r11,sp[0x8]
8000939e:	10 49       	or	r9,r8
800093a0:	2f fb       	sub	r11,-1
800093a2:	40 22       	lddsp	r2,sp[0x8]
800093a4:	30 2a       	mov	r10,2
800093a6:	40 46       	lddsp	r6,sp[0x10]
800093a8:	ec 09 18 00 	cp.b	r9,r6
800093ac:	c1 41       	brne	800093d4 <_vfprintf_r+0x9b8>
800093ae:	14 99       	mov	r9,r10
800093b0:	c1 48       	rjmp	800093d8 <_vfprintf_r+0x9bc>
800093b2:	00 00       	add	r0,r0
800093b4:	80 00       	ld.sh	r0,r0[0x0]
800093b6:	86 d8       	ld.uh	r8,r3[0xa]
800093b8:	80 00       	ld.sh	r0,r0[0x0]
800093ba:	c5 8c       	rcall	8000946a <_vfprintf_r+0xa4e>
800093bc:	80 00       	ld.sh	r0,r0[0x0]
800093be:	ca 04       	brge	800092fe <_vfprintf_r+0x8e2>
800093c0:	80 00       	ld.sh	r0,r0[0x0]
800093c2:	de 0c       	*unknown*
800093c4:	80 00       	ld.sh	r0,r0[0x0]
800093c6:	de 10       	acall	0xe1
800093c8:	80 00       	ld.sh	r0,r0[0x0]
800093ca:	c5 b8       	rjmp	80009480 <_vfprintf_r+0xa64>
800093cc:	80 00       	ld.sh	r0,r0[0x0]
800093ce:	de 14       	*unknown*
800093d0:	80 00       	ld.sh	r0,r0[0x0]
800093d2:	de 18       	*unknown*
800093d4:	16 92       	mov	r2,r11
800093d6:	14 99       	mov	r9,r10
800093d8:	fa c8 f9 5c 	sub	r8,sp,-1700
800093dc:	1a d8       	st.w	--sp,r8
800093de:	fa c8 f9 54 	sub	r8,sp,-1708
800093e2:	1a d8       	st.w	--sp,r8
800093e4:	fa c8 f9 4c 	sub	r8,sp,-1716
800093e8:	08 9c       	mov	r12,r4
800093ea:	1a d8       	st.w	--sp,r8
800093ec:	04 98       	mov	r8,r2
800093ee:	40 9b       	lddsp	r11,sp[0x24]
800093f0:	40 aa       	lddsp	r10,sp[0x28]
800093f2:	f0 1f 01 e4 	mcall	80009b80 <_vfprintf_r+0x1164>
800093f6:	e0 40 00 47 	cp.w	r0,71
800093fa:	5f 19       	srne	r9
800093fc:	e0 40 00 67 	cp.w	r0,103
80009400:	5f 18       	srne	r8
80009402:	18 96       	mov	r6,r12
80009404:	2f dd       	sub	sp,-12
80009406:	f3 e8 00 08 	and	r8,r9,r8
8000940a:	c0 41       	brne	80009412 <_vfprintf_r+0x9f6>
8000940c:	ed b5 00 00 	bld	r5,0x0
80009410:	c3 11       	brne	80009472 <_vfprintf_r+0xa56>
80009412:	ec 02 00 0e 	add	lr,r6,r2
80009416:	50 3e       	stdsp	sp[0xc],lr
80009418:	40 4c       	lddsp	r12,sp[0x10]
8000941a:	58 0c       	cp.w	r12,0
8000941c:	c1 60       	breq	80009448 <_vfprintf_r+0xa2c>
8000941e:	0d 89       	ld.ub	r9,r6[0x0]
80009420:	33 08       	mov	r8,48
80009422:	f0 09 18 00 	cp.b	r9,r8
80009426:	c0 c1       	brne	8000943e <_vfprintf_r+0xa22>
80009428:	30 08       	mov	r8,0
8000942a:	30 09       	mov	r9,0
8000942c:	40 6b       	lddsp	r11,sp[0x18]
8000942e:	40 7a       	lddsp	r10,sp[0x1c]
80009430:	f0 1f 01 d5 	mcall	80009b84 <_vfprintf_r+0x1168>
80009434:	c0 51       	brne	8000943e <_vfprintf_r+0xa22>
80009436:	e4 02 11 01 	rsub	r2,r2,1
8000943a:	fb 42 06 ac 	st.w	sp[1708],r2
8000943e:	40 3b       	lddsp	r11,sp[0xc]
80009440:	fa f8 06 ac 	ld.w	r8,sp[1708]
80009444:	10 0b       	add	r11,r8
80009446:	50 3b       	stdsp	sp[0xc],r11
80009448:	40 6b       	lddsp	r11,sp[0x18]
8000944a:	30 08       	mov	r8,0
8000944c:	30 09       	mov	r9,0
8000944e:	40 7a       	lddsp	r10,sp[0x1c]
80009450:	f0 1f 01 cd 	mcall	80009b84 <_vfprintf_r+0x1168>
80009454:	c0 90       	breq	80009466 <_vfprintf_r+0xa4a>
80009456:	40 3a       	lddsp	r10,sp[0xc]
80009458:	fb 4a 06 a4 	st.w	sp[1700],r10
8000945c:	c0 58       	rjmp	80009466 <_vfprintf_r+0xa4a>
8000945e:	10 c9       	st.b	r8++,r9
80009460:	fb 48 06 a4 	st.w	sp[1700],r8
80009464:	c0 28       	rjmp	80009468 <_vfprintf_r+0xa4c>
80009466:	33 09       	mov	r9,48
80009468:	fa f8 06 a4 	ld.w	r8,sp[1700]
8000946c:	40 3e       	lddsp	lr,sp[0xc]
8000946e:	1c 38       	cp.w	r8,lr
80009470:	cf 73       	brcs	8000945e <_vfprintf_r+0xa42>
80009472:	e0 40 00 47 	cp.w	r0,71
80009476:	5f 09       	sreq	r9
80009478:	e0 40 00 67 	cp.w	r0,103
8000947c:	5f 08       	sreq	r8
8000947e:	f3 e8 10 08 	or	r8,r9,r8
80009482:	fa f9 06 a4 	ld.w	r9,sp[1700]
80009486:	0c 19       	sub	r9,r6
80009488:	50 69       	stdsp	sp[0x18],r9
8000948a:	58 08       	cp.w	r8,0
8000948c:	c0 b0       	breq	800094a2 <_vfprintf_r+0xa86>
8000948e:	fa f8 06 ac 	ld.w	r8,sp[1708]
80009492:	5b d8       	cp.w	r8,-3
80009494:	c0 55       	brlt	8000949e <_vfprintf_r+0xa82>
80009496:	40 2c       	lddsp	r12,sp[0x8]
80009498:	18 38       	cp.w	r8,r12
8000949a:	e0 8a 00 6a 	brle	8000956e <_vfprintf_r+0xb52>
8000949e:	20 20       	sub	r0,2
800094a0:	c0 58       	rjmp	800094aa <_vfprintf_r+0xa8e>
800094a2:	e0 40 00 65 	cp.w	r0,101
800094a6:	e0 89 00 46 	brgt	80009532 <_vfprintf_r+0xb16>
800094aa:	fa fb 06 ac 	ld.w	r11,sp[1708]
800094ae:	fb 60 06 9c 	st.b	sp[1692],r0
800094b2:	20 1b       	sub	r11,1
800094b4:	fb 4b 06 ac 	st.w	sp[1708],r11
800094b8:	c0 47       	brpl	800094c0 <_vfprintf_r+0xaa4>
800094ba:	5c 3b       	neg	r11
800094bc:	32 d8       	mov	r8,45
800094be:	c0 28       	rjmp	800094c2 <_vfprintf_r+0xaa6>
800094c0:	32 b8       	mov	r8,43
800094c2:	fb 68 06 9d 	st.b	sp[1693],r8
800094c6:	58 9b       	cp.w	r11,9
800094c8:	e0 8a 00 1d 	brle	80009502 <_vfprintf_r+0xae6>
800094cc:	fa c9 fa 35 	sub	r9,sp,-1483
800094d0:	30 aa       	mov	r10,10
800094d2:	12 98       	mov	r8,r9
800094d4:	0e 9c       	mov	r12,r7
800094d6:	0c 92       	mov	r2,r6
800094d8:	f6 0a 0c 06 	divs	r6,r11,r10
800094dc:	0e 9b       	mov	r11,r7
800094de:	2d 0b       	sub	r11,-48
800094e0:	10 fb       	st.b	--r8,r11
800094e2:	0c 9b       	mov	r11,r6
800094e4:	58 96       	cp.w	r6,9
800094e6:	fe 99 ff f9 	brgt	800094d8 <_vfprintf_r+0xabc>
800094ea:	2d 0b       	sub	r11,-48
800094ec:	18 97       	mov	r7,r12
800094ee:	04 96       	mov	r6,r2
800094f0:	10 fb       	st.b	--r8,r11
800094f2:	fa ca f9 62 	sub	r10,sp,-1694
800094f6:	c0 38       	rjmp	800094fc <_vfprintf_r+0xae0>
800094f8:	11 3b       	ld.ub	r11,r8++
800094fa:	14 cb       	st.b	r10++,r11
800094fc:	12 38       	cp.w	r8,r9
800094fe:	cf d3       	brcs	800094f8 <_vfprintf_r+0xadc>
80009500:	c0 98       	rjmp	80009512 <_vfprintf_r+0xaf6>
80009502:	2d 0b       	sub	r11,-48
80009504:	33 08       	mov	r8,48
80009506:	fb 6b 06 9f 	st.b	sp[1695],r11
8000950a:	fb 68 06 9e 	st.b	sp[1694],r8
8000950e:	fa ca f9 60 	sub	r10,sp,-1696
80009512:	fa c8 f9 64 	sub	r8,sp,-1692
80009516:	f4 08 01 08 	sub	r8,r10,r8
8000951a:	50 e8       	stdsp	sp[0x38],r8
8000951c:	10 92       	mov	r2,r8
8000951e:	40 6b       	lddsp	r11,sp[0x18]
80009520:	16 02       	add	r2,r11
80009522:	58 1b       	cp.w	r11,1
80009524:	e0 89 00 05 	brgt	8000952e <_vfprintf_r+0xb12>
80009528:	ed b5 00 00 	bld	r5,0x0
8000952c:	c3 c1       	brne	800095a4 <_vfprintf_r+0xb88>
8000952e:	2f f2       	sub	r2,-1
80009530:	c3 a8       	rjmp	800095a4 <_vfprintf_r+0xb88>
80009532:	e0 40 00 66 	cp.w	r0,102
80009536:	c1 c1       	brne	8000956e <_vfprintf_r+0xb52>
80009538:	fa f2 06 ac 	ld.w	r2,sp[1708]
8000953c:	58 02       	cp.w	r2,0
8000953e:	e0 8a 00 0c 	brle	80009556 <_vfprintf_r+0xb3a>
80009542:	40 2a       	lddsp	r10,sp[0x8]
80009544:	58 0a       	cp.w	r10,0
80009546:	c0 41       	brne	8000954e <_vfprintf_r+0xb32>
80009548:	ed b5 00 00 	bld	r5,0x0
8000954c:	c2 c1       	brne	800095a4 <_vfprintf_r+0xb88>
8000954e:	2f f2       	sub	r2,-1
80009550:	40 29       	lddsp	r9,sp[0x8]
80009552:	12 02       	add	r2,r9
80009554:	c0 b8       	rjmp	8000956a <_vfprintf_r+0xb4e>
80009556:	40 28       	lddsp	r8,sp[0x8]
80009558:	58 08       	cp.w	r8,0
8000955a:	c0 61       	brne	80009566 <_vfprintf_r+0xb4a>
8000955c:	ed b5 00 00 	bld	r5,0x0
80009560:	c0 30       	breq	80009566 <_vfprintf_r+0xb4a>
80009562:	30 12       	mov	r2,1
80009564:	c2 08       	rjmp	800095a4 <_vfprintf_r+0xb88>
80009566:	40 22       	lddsp	r2,sp[0x8]
80009568:	2f e2       	sub	r2,-2
8000956a:	36 60       	mov	r0,102
8000956c:	c1 c8       	rjmp	800095a4 <_vfprintf_r+0xb88>
8000956e:	fa f2 06 ac 	ld.w	r2,sp[1708]
80009572:	40 6e       	lddsp	lr,sp[0x18]
80009574:	1c 32       	cp.w	r2,lr
80009576:	c0 d5       	brlt	80009590 <_vfprintf_r+0xb74>
80009578:	e1 d5 c0 01 	bfextu	r0,r5,0x0,0x1
8000957c:	e4 c8 ff ff 	sub	r8,r2,-1
80009580:	58 00       	cp.w	r0,0
80009582:	f0 02 17 10 	movne	r2,r8
80009586:	f9 b0 01 67 	movne	r0,103
8000958a:	f9 b0 00 67 	moveq	r0,103
8000958e:	c0 b8       	rjmp	800095a4 <_vfprintf_r+0xb88>
80009590:	e4 08 11 02 	rsub	r8,r2,2
80009594:	40 6c       	lddsp	r12,sp[0x18]
80009596:	58 02       	cp.w	r2,0
80009598:	f0 02 17 a0 	movle	r2,r8
8000959c:	f9 b2 09 01 	movgt	r2,1
800095a0:	36 70       	mov	r0,103
800095a2:	18 02       	add	r2,r12
800095a4:	40 9b       	lddsp	r11,sp[0x24]
800095a6:	58 0b       	cp.w	r11,0
800095a8:	e0 80 05 9d 	breq	8000a0e2 <_vfprintf_r+0x16c6>
800095ac:	32 d8       	mov	r8,45
800095ae:	fb 68 06 bb 	st.b	sp[1723],r8
800095b2:	e0 8f 05 9c 	bral	8000a0ea <_vfprintf_r+0x16ce>
800095b6:	50 a7       	stdsp	sp[0x28],r7
800095b8:	04 94       	mov	r4,r2
800095ba:	0c 97       	mov	r7,r6
800095bc:	02 92       	mov	r2,r1
800095be:	06 96       	mov	r6,r3
800095c0:	40 41       	lddsp	r1,sp[0x10]
800095c2:	40 93       	lddsp	r3,sp[0x24]
800095c4:	0e 99       	mov	r9,r7
800095c6:	ed b5 00 05 	bld	r5,0x5
800095ca:	c4 81       	brne	8000965a <_vfprintf_r+0xc3e>
800095cc:	fa f8 06 b4 	ld.w	r8,sp[1716]
800095d0:	40 3e       	lddsp	lr,sp[0xc]
800095d2:	58 0e       	cp.w	lr,0
800095d4:	c1 d0       	breq	8000960e <_vfprintf_r+0xbf2>
800095d6:	10 36       	cp.w	r6,r8
800095d8:	c0 64       	brge	800095e4 <_vfprintf_r+0xbc8>
800095da:	fa cc f9 44 	sub	r12,sp,-1724
800095de:	f8 06 00 36 	add	r6,r12,r6<<0x3
800095e2:	c1 d8       	rjmp	8000961c <_vfprintf_r+0xc00>
800095e4:	fa c8 f9 50 	sub	r8,sp,-1712
800095e8:	1a d8       	st.w	--sp,r8
800095ea:	fa c8 fa b8 	sub	r8,sp,-1352
800095ee:	04 9a       	mov	r10,r2
800095f0:	1a d8       	st.w	--sp,r8
800095f2:	fa c8 fb b4 	sub	r8,sp,-1100
800095f6:	0c 9b       	mov	r11,r6
800095f8:	1a d8       	st.w	--sp,r8
800095fa:	08 9c       	mov	r12,r4
800095fc:	fa c8 f9 40 	sub	r8,sp,-1728
80009600:	fa c9 ff b4 	sub	r9,sp,-76
80009604:	f0 1f 01 61 	mcall	80009b88 <_vfprintf_r+0x116c>
80009608:	2f dd       	sub	sp,-12
8000960a:	78 0a       	ld.w	r10,r12[0x0]
8000960c:	c2 08       	rjmp	8000964c <_vfprintf_r+0xc30>
8000960e:	2f f7       	sub	r7,-1
80009610:	10 39       	cp.w	r9,r8
80009612:	c0 84       	brge	80009622 <_vfprintf_r+0xc06>
80009614:	fa cb f9 44 	sub	r11,sp,-1724
80009618:	f6 06 00 36 	add	r6,r11,r6<<0x3
8000961c:	ec fa fd 88 	ld.w	r10,r6[-632]
80009620:	c1 68       	rjmp	8000964c <_vfprintf_r+0xc30>
80009622:	41 09       	lddsp	r9,sp[0x40]
80009624:	59 f8       	cp.w	r8,31
80009626:	e0 89 00 10 	brgt	80009646 <_vfprintf_r+0xc2a>
8000962a:	f2 ca ff fc 	sub	r10,r9,-4
8000962e:	51 0a       	stdsp	sp[0x40],r10
80009630:	fa c6 f9 44 	sub	r6,sp,-1724
80009634:	72 0a       	ld.w	r10,r9[0x0]
80009636:	ec 08 00 39 	add	r9,r6,r8<<0x3
8000963a:	f3 4a fd 88 	st.w	r9[-632],r10
8000963e:	2f f8       	sub	r8,-1
80009640:	fb 48 06 b4 	st.w	sp[1716],r8
80009644:	c0 48       	rjmp	8000964c <_vfprintf_r+0xc30>
80009646:	72 0a       	ld.w	r10,r9[0x0]
80009648:	2f c9       	sub	r9,-4
8000964a:	51 09       	stdsp	sp[0x40],r9
8000964c:	40 be       	lddsp	lr,sp[0x2c]
8000964e:	1c 98       	mov	r8,lr
80009650:	95 1e       	st.w	r10[0x4],lr
80009652:	bf 58       	asr	r8,0x1f
80009654:	95 08       	st.w	r10[0x0],r8
80009656:	fe 9f fa 6e 	bral	80008b32 <_vfprintf_r+0x116>
8000965a:	ed b5 00 04 	bld	r5,0x4
8000965e:	c4 80       	breq	800096ee <_vfprintf_r+0xcd2>
80009660:	e2 15 00 40 	andl	r5,0x40,COH
80009664:	c4 50       	breq	800096ee <_vfprintf_r+0xcd2>
80009666:	fa f8 06 b4 	ld.w	r8,sp[1716]
8000966a:	40 3c       	lddsp	r12,sp[0xc]
8000966c:	58 0c       	cp.w	r12,0
8000966e:	c1 d0       	breq	800096a8 <_vfprintf_r+0xc8c>
80009670:	10 36       	cp.w	r6,r8
80009672:	c0 64       	brge	8000967e <_vfprintf_r+0xc62>
80009674:	fa cb f9 44 	sub	r11,sp,-1724
80009678:	f6 06 00 36 	add	r6,r11,r6<<0x3
8000967c:	c1 d8       	rjmp	800096b6 <_vfprintf_r+0xc9a>
8000967e:	fa c8 f9 50 	sub	r8,sp,-1712
80009682:	1a d8       	st.w	--sp,r8
80009684:	fa c8 fa b8 	sub	r8,sp,-1352
80009688:	04 9a       	mov	r10,r2
8000968a:	1a d8       	st.w	--sp,r8
8000968c:	fa c8 fb b4 	sub	r8,sp,-1100
80009690:	0c 9b       	mov	r11,r6
80009692:	1a d8       	st.w	--sp,r8
80009694:	08 9c       	mov	r12,r4
80009696:	fa c8 f9 40 	sub	r8,sp,-1728
8000969a:	fa c9 ff b4 	sub	r9,sp,-76
8000969e:	f0 1f 01 3b 	mcall	80009b88 <_vfprintf_r+0x116c>
800096a2:	2f dd       	sub	sp,-12
800096a4:	78 0a       	ld.w	r10,r12[0x0]
800096a6:	c2 08       	rjmp	800096e6 <_vfprintf_r+0xcca>
800096a8:	2f f7       	sub	r7,-1
800096aa:	10 39       	cp.w	r9,r8
800096ac:	c0 84       	brge	800096bc <_vfprintf_r+0xca0>
800096ae:	fa ca f9 44 	sub	r10,sp,-1724
800096b2:	f4 06 00 36 	add	r6,r10,r6<<0x3
800096b6:	ec fa fd 88 	ld.w	r10,r6[-632]
800096ba:	c1 68       	rjmp	800096e6 <_vfprintf_r+0xcca>
800096bc:	41 09       	lddsp	r9,sp[0x40]
800096be:	59 f8       	cp.w	r8,31
800096c0:	e0 89 00 10 	brgt	800096e0 <_vfprintf_r+0xcc4>
800096c4:	f2 ca ff fc 	sub	r10,r9,-4
800096c8:	51 0a       	stdsp	sp[0x40],r10
800096ca:	fa c6 f9 44 	sub	r6,sp,-1724
800096ce:	72 0a       	ld.w	r10,r9[0x0]
800096d0:	ec 08 00 39 	add	r9,r6,r8<<0x3
800096d4:	f3 4a fd 88 	st.w	r9[-632],r10
800096d8:	2f f8       	sub	r8,-1
800096da:	fb 48 06 b4 	st.w	sp[1716],r8
800096de:	c0 48       	rjmp	800096e6 <_vfprintf_r+0xcca>
800096e0:	72 0a       	ld.w	r10,r9[0x0]
800096e2:	2f c9       	sub	r9,-4
800096e4:	51 09       	stdsp	sp[0x40],r9
800096e6:	40 be       	lddsp	lr,sp[0x2c]
800096e8:	b4 0e       	st.h	r10[0x0],lr
800096ea:	fe 9f fa 24 	bral	80008b32 <_vfprintf_r+0x116>
800096ee:	fa f8 06 b4 	ld.w	r8,sp[1716]
800096f2:	40 3c       	lddsp	r12,sp[0xc]
800096f4:	58 0c       	cp.w	r12,0
800096f6:	c1 d0       	breq	80009730 <_vfprintf_r+0xd14>
800096f8:	10 36       	cp.w	r6,r8
800096fa:	c0 64       	brge	80009706 <_vfprintf_r+0xcea>
800096fc:	fa cb f9 44 	sub	r11,sp,-1724
80009700:	f6 06 00 36 	add	r6,r11,r6<<0x3
80009704:	c1 d8       	rjmp	8000973e <_vfprintf_r+0xd22>
80009706:	fa c8 f9 50 	sub	r8,sp,-1712
8000970a:	1a d8       	st.w	--sp,r8
8000970c:	fa c8 fa b8 	sub	r8,sp,-1352
80009710:	04 9a       	mov	r10,r2
80009712:	1a d8       	st.w	--sp,r8
80009714:	fa c8 fb b4 	sub	r8,sp,-1100
80009718:	0c 9b       	mov	r11,r6
8000971a:	1a d8       	st.w	--sp,r8
8000971c:	08 9c       	mov	r12,r4
8000971e:	fa c8 f9 40 	sub	r8,sp,-1728
80009722:	fa c9 ff b4 	sub	r9,sp,-76
80009726:	f0 1f 01 19 	mcall	80009b88 <_vfprintf_r+0x116c>
8000972a:	2f dd       	sub	sp,-12
8000972c:	78 0a       	ld.w	r10,r12[0x0]
8000972e:	c2 08       	rjmp	8000976e <_vfprintf_r+0xd52>
80009730:	2f f7       	sub	r7,-1
80009732:	10 39       	cp.w	r9,r8
80009734:	c0 84       	brge	80009744 <_vfprintf_r+0xd28>
80009736:	fa ca f9 44 	sub	r10,sp,-1724
8000973a:	f4 06 00 36 	add	r6,r10,r6<<0x3
8000973e:	ec fa fd 88 	ld.w	r10,r6[-632]
80009742:	c1 68       	rjmp	8000976e <_vfprintf_r+0xd52>
80009744:	41 09       	lddsp	r9,sp[0x40]
80009746:	59 f8       	cp.w	r8,31
80009748:	e0 89 00 10 	brgt	80009768 <_vfprintf_r+0xd4c>
8000974c:	f2 ca ff fc 	sub	r10,r9,-4
80009750:	51 0a       	stdsp	sp[0x40],r10
80009752:	fa c6 f9 44 	sub	r6,sp,-1724
80009756:	72 0a       	ld.w	r10,r9[0x0]
80009758:	ec 08 00 39 	add	r9,r6,r8<<0x3
8000975c:	f3 4a fd 88 	st.w	r9[-632],r10
80009760:	2f f8       	sub	r8,-1
80009762:	fb 48 06 b4 	st.w	sp[1716],r8
80009766:	c0 48       	rjmp	8000976e <_vfprintf_r+0xd52>
80009768:	72 0a       	ld.w	r10,r9[0x0]
8000976a:	2f c9       	sub	r9,-4
8000976c:	51 09       	stdsp	sp[0x40],r9
8000976e:	40 be       	lddsp	lr,sp[0x2c]
80009770:	95 0e       	st.w	r10[0x0],lr
80009772:	fe 9f f9 e0 	bral	80008b32 <_vfprintf_r+0x116>
80009776:	50 a7       	stdsp	sp[0x28],r7
80009778:	50 80       	stdsp	sp[0x20],r0
8000977a:	0c 97       	mov	r7,r6
8000977c:	04 94       	mov	r4,r2
8000977e:	06 96       	mov	r6,r3
80009780:	02 92       	mov	r2,r1
80009782:	40 93       	lddsp	r3,sp[0x24]
80009784:	10 90       	mov	r0,r8
80009786:	40 41       	lddsp	r1,sp[0x10]
80009788:	a5 a5       	sbr	r5,0x4
8000978a:	c0 a8       	rjmp	8000979e <_vfprintf_r+0xd82>
8000978c:	50 a7       	stdsp	sp[0x28],r7
8000978e:	50 80       	stdsp	sp[0x20],r0
80009790:	0c 97       	mov	r7,r6
80009792:	04 94       	mov	r4,r2
80009794:	06 96       	mov	r6,r3
80009796:	02 92       	mov	r2,r1
80009798:	40 93       	lddsp	r3,sp[0x24]
8000979a:	10 90       	mov	r0,r8
8000979c:	40 41       	lddsp	r1,sp[0x10]
8000979e:	ed b5 00 05 	bld	r5,0x5
800097a2:	c5 d1       	brne	8000985c <_vfprintf_r+0xe40>
800097a4:	fa f8 06 b4 	ld.w	r8,sp[1716]
800097a8:	40 3c       	lddsp	r12,sp[0xc]
800097aa:	58 0c       	cp.w	r12,0
800097ac:	c2 60       	breq	800097f8 <_vfprintf_r+0xddc>
800097ae:	10 36       	cp.w	r6,r8
800097b0:	c0 a4       	brge	800097c4 <_vfprintf_r+0xda8>
800097b2:	fa cb f9 44 	sub	r11,sp,-1724
800097b6:	f6 06 00 36 	add	r6,r11,r6<<0x3
800097ba:	ec e8 fd 88 	ld.d	r8,r6[-632]
800097be:	fa e9 00 00 	st.d	sp[0],r8
800097c2:	c1 88       	rjmp	800097f2 <_vfprintf_r+0xdd6>
800097c4:	fa c8 f9 50 	sub	r8,sp,-1712
800097c8:	1a d8       	st.w	--sp,r8
800097ca:	fa c8 fa b8 	sub	r8,sp,-1352
800097ce:	04 9a       	mov	r10,r2
800097d0:	1a d8       	st.w	--sp,r8
800097d2:	0c 9b       	mov	r11,r6
800097d4:	fa c8 fb b4 	sub	r8,sp,-1100
800097d8:	08 9c       	mov	r12,r4
800097da:	1a d8       	st.w	--sp,r8
800097dc:	fa c8 f9 40 	sub	r8,sp,-1728
800097e0:	fa c9 ff b4 	sub	r9,sp,-76
800097e4:	f0 1f 00 e9 	mcall	80009b88 <_vfprintf_r+0x116c>
800097e8:	2f dd       	sub	sp,-12
800097ea:	f8 ea 00 00 	ld.d	r10,r12[0]
800097ee:	fa eb 00 00 	st.d	sp[0],r10
800097f2:	30 08       	mov	r8,0
800097f4:	e0 8f 03 e7 	bral	80009fc2 <_vfprintf_r+0x15a6>
800097f8:	ee ca ff ff 	sub	r10,r7,-1
800097fc:	10 37       	cp.w	r7,r8
800097fe:	c0 b4       	brge	80009814 <_vfprintf_r+0xdf8>
80009800:	fa c9 f9 44 	sub	r9,sp,-1724
80009804:	14 97       	mov	r7,r10
80009806:	f2 06 00 36 	add	r6,r9,r6<<0x3
8000980a:	ec ea fd 88 	ld.d	r10,r6[-632]
8000980e:	fa eb 00 00 	st.d	sp[0],r10
80009812:	c1 88       	rjmp	80009842 <_vfprintf_r+0xe26>
80009814:	41 09       	lddsp	r9,sp[0x40]
80009816:	59 f8       	cp.w	r8,31
80009818:	e0 89 00 18 	brgt	80009848 <_vfprintf_r+0xe2c>
8000981c:	f2 e6 00 00 	ld.d	r6,r9[0]
80009820:	f2 cb ff f8 	sub	r11,r9,-8
80009824:	fa e7 00 00 	st.d	sp[0],r6
80009828:	51 0b       	stdsp	sp[0x40],r11
8000982a:	fa c6 f9 44 	sub	r6,sp,-1724
8000982e:	ec 08 00 39 	add	r9,r6,r8<<0x3
80009832:	fa e6 00 00 	ld.d	r6,sp[0]
80009836:	f2 e7 fd 88 	st.d	r9[-632],r6
8000983a:	2f f8       	sub	r8,-1
8000983c:	14 97       	mov	r7,r10
8000983e:	fb 48 06 b4 	st.w	sp[1716],r8
80009842:	40 38       	lddsp	r8,sp[0xc]
80009844:	e0 8f 03 bf 	bral	80009fc2 <_vfprintf_r+0x15a6>
80009848:	f2 e6 00 00 	ld.d	r6,r9[0]
8000984c:	40 38       	lddsp	r8,sp[0xc]
8000984e:	fa e7 00 00 	st.d	sp[0],r6
80009852:	2f 89       	sub	r9,-8
80009854:	14 97       	mov	r7,r10
80009856:	51 09       	stdsp	sp[0x40],r9
80009858:	e0 8f 03 b5 	bral	80009fc2 <_vfprintf_r+0x15a6>
8000985c:	ed b5 00 04 	bld	r5,0x4
80009860:	c1 61       	brne	8000988c <_vfprintf_r+0xe70>
80009862:	fa f8 06 b4 	ld.w	r8,sp[1716]
80009866:	40 3e       	lddsp	lr,sp[0xc]
80009868:	58 0e       	cp.w	lr,0
8000986a:	c0 80       	breq	8000987a <_vfprintf_r+0xe5e>
8000986c:	10 36       	cp.w	r6,r8
8000986e:	c6 74       	brge	8000993c <_vfprintf_r+0xf20>
80009870:	fa cc f9 44 	sub	r12,sp,-1724
80009874:	f8 06 00 36 	add	r6,r12,r6<<0x3
80009878:	c8 08       	rjmp	80009978 <_vfprintf_r+0xf5c>
8000987a:	ee ca ff ff 	sub	r10,r7,-1
8000987e:	10 37       	cp.w	r7,r8
80009880:	c7 f4       	brge	8000997e <_vfprintf_r+0xf62>
80009882:	fa cb f9 44 	sub	r11,sp,-1724
80009886:	f6 06 00 36 	add	r6,r11,r6<<0x3
8000988a:	c7 68       	rjmp	80009976 <_vfprintf_r+0xf5a>
8000988c:	ed b5 00 06 	bld	r5,0x6
80009890:	c4 a1       	brne	80009924 <_vfprintf_r+0xf08>
80009892:	fa f8 06 b4 	ld.w	r8,sp[1716]
80009896:	40 3c       	lddsp	r12,sp[0xc]
80009898:	58 0c       	cp.w	r12,0
8000989a:	c1 d0       	breq	800098d4 <_vfprintf_r+0xeb8>
8000989c:	10 36       	cp.w	r6,r8
8000989e:	c0 64       	brge	800098aa <_vfprintf_r+0xe8e>
800098a0:	fa cb f9 44 	sub	r11,sp,-1724
800098a4:	f6 06 00 36 	add	r6,r11,r6<<0x3
800098a8:	c1 f8       	rjmp	800098e6 <_vfprintf_r+0xeca>
800098aa:	fa c8 f9 50 	sub	r8,sp,-1712
800098ae:	1a d8       	st.w	--sp,r8
800098b0:	fa c8 fa b8 	sub	r8,sp,-1352
800098b4:	1a d8       	st.w	--sp,r8
800098b6:	fa c8 fb b4 	sub	r8,sp,-1100
800098ba:	1a d8       	st.w	--sp,r8
800098bc:	fa c8 f9 40 	sub	r8,sp,-1728
800098c0:	fa c9 ff b4 	sub	r9,sp,-76
800098c4:	04 9a       	mov	r10,r2
800098c6:	0c 9b       	mov	r11,r6
800098c8:	08 9c       	mov	r12,r4
800098ca:	f0 1f 00 b0 	mcall	80009b88 <_vfprintf_r+0x116c>
800098ce:	2f dd       	sub	sp,-12
800098d0:	98 18       	ld.sh	r8,r12[0x2]
800098d2:	c2 68       	rjmp	8000991e <_vfprintf_r+0xf02>
800098d4:	ee ca ff ff 	sub	r10,r7,-1
800098d8:	10 37       	cp.w	r7,r8
800098da:	c0 94       	brge	800098ec <_vfprintf_r+0xed0>
800098dc:	fa c9 f9 44 	sub	r9,sp,-1724
800098e0:	14 97       	mov	r7,r10
800098e2:	f2 06 00 36 	add	r6,r9,r6<<0x3
800098e6:	ed 08 fd 8a 	ld.sh	r8,r6[-630]
800098ea:	c1 a8       	rjmp	8000991e <_vfprintf_r+0xf02>
800098ec:	41 09       	lddsp	r9,sp[0x40]
800098ee:	59 f8       	cp.w	r8,31
800098f0:	e0 89 00 13 	brgt	80009916 <_vfprintf_r+0xefa>
800098f4:	f2 cb ff fc 	sub	r11,r9,-4
800098f8:	51 0b       	stdsp	sp[0x40],r11
800098fa:	72 09       	ld.w	r9,r9[0x0]
800098fc:	fa c6 f9 44 	sub	r6,sp,-1724
80009900:	ec 08 00 3b 	add	r11,r6,r8<<0x3
80009904:	2f f8       	sub	r8,-1
80009906:	f7 49 fd 88 	st.w	r11[-632],r9
8000990a:	fb 48 06 b4 	st.w	sp[1716],r8
8000990e:	14 97       	mov	r7,r10
80009910:	f1 d9 b0 10 	bfexts	r8,r9,0x0,0x10
80009914:	c0 58       	rjmp	8000991e <_vfprintf_r+0xf02>
80009916:	92 18       	ld.sh	r8,r9[0x2]
80009918:	14 97       	mov	r7,r10
8000991a:	2f c9       	sub	r9,-4
8000991c:	51 09       	stdsp	sp[0x40],r9
8000991e:	5c 78       	castu.h	r8
80009920:	50 18       	stdsp	sp[0x4],r8
80009922:	c4 68       	rjmp	800099ae <_vfprintf_r+0xf92>
80009924:	fa f8 06 b4 	ld.w	r8,sp[1716]
80009928:	40 3c       	lddsp	r12,sp[0xc]
8000992a:	58 0c       	cp.w	r12,0
8000992c:	c1 d0       	breq	80009966 <_vfprintf_r+0xf4a>
8000992e:	10 36       	cp.w	r6,r8
80009930:	c0 64       	brge	8000993c <_vfprintf_r+0xf20>
80009932:	fa cb f9 44 	sub	r11,sp,-1724
80009936:	f6 06 00 36 	add	r6,r11,r6<<0x3
8000993a:	c1 f8       	rjmp	80009978 <_vfprintf_r+0xf5c>
8000993c:	fa c8 f9 50 	sub	r8,sp,-1712
80009940:	1a d8       	st.w	--sp,r8
80009942:	fa c8 fa b8 	sub	r8,sp,-1352
80009946:	0c 9b       	mov	r11,r6
80009948:	1a d8       	st.w	--sp,r8
8000994a:	fa c8 fb b4 	sub	r8,sp,-1100
8000994e:	04 9a       	mov	r10,r2
80009950:	1a d8       	st.w	--sp,r8
80009952:	08 9c       	mov	r12,r4
80009954:	fa c8 f9 40 	sub	r8,sp,-1728
80009958:	fa c9 ff b4 	sub	r9,sp,-76
8000995c:	f0 1f 00 8b 	mcall	80009b88 <_vfprintf_r+0x116c>
80009960:	2f dd       	sub	sp,-12
80009962:	78 0b       	ld.w	r11,r12[0x0]
80009964:	c2 48       	rjmp	800099ac <_vfprintf_r+0xf90>
80009966:	ee ca ff ff 	sub	r10,r7,-1
8000996a:	10 37       	cp.w	r7,r8
8000996c:	c0 94       	brge	8000997e <_vfprintf_r+0xf62>
8000996e:	fa c9 f9 44 	sub	r9,sp,-1724
80009972:	f2 06 00 36 	add	r6,r9,r6<<0x3
80009976:	14 97       	mov	r7,r10
80009978:	ec fb fd 88 	ld.w	r11,r6[-632]
8000997c:	c1 88       	rjmp	800099ac <_vfprintf_r+0xf90>
8000997e:	41 09       	lddsp	r9,sp[0x40]
80009980:	59 f8       	cp.w	r8,31
80009982:	e0 89 00 11 	brgt	800099a4 <_vfprintf_r+0xf88>
80009986:	f2 cb ff fc 	sub	r11,r9,-4
8000998a:	51 0b       	stdsp	sp[0x40],r11
8000998c:	fa c6 f9 44 	sub	r6,sp,-1724
80009990:	72 0b       	ld.w	r11,r9[0x0]
80009992:	ec 08 00 39 	add	r9,r6,r8<<0x3
80009996:	f3 4b fd 88 	st.w	r9[-632],r11
8000999a:	2f f8       	sub	r8,-1
8000999c:	14 97       	mov	r7,r10
8000999e:	fb 48 06 b4 	st.w	sp[1716],r8
800099a2:	c0 58       	rjmp	800099ac <_vfprintf_r+0xf90>
800099a4:	72 0b       	ld.w	r11,r9[0x0]
800099a6:	14 97       	mov	r7,r10
800099a8:	2f c9       	sub	r9,-4
800099aa:	51 09       	stdsp	sp[0x40],r9
800099ac:	50 1b       	stdsp	sp[0x4],r11
800099ae:	30 0e       	mov	lr,0
800099b0:	50 0e       	stdsp	sp[0x0],lr
800099b2:	1c 98       	mov	r8,lr
800099b4:	e0 8f 03 07 	bral	80009fc2 <_vfprintf_r+0x15a6>
800099b8:	50 a7       	stdsp	sp[0x28],r7
800099ba:	50 80       	stdsp	sp[0x20],r0
800099bc:	0c 97       	mov	r7,r6
800099be:	04 94       	mov	r4,r2
800099c0:	06 96       	mov	r6,r3
800099c2:	02 92       	mov	r2,r1
800099c4:	40 93       	lddsp	r3,sp[0x24]
800099c6:	40 41       	lddsp	r1,sp[0x10]
800099c8:	0e 99       	mov	r9,r7
800099ca:	fa f8 06 b4 	ld.w	r8,sp[1716]
800099ce:	40 3c       	lddsp	r12,sp[0xc]
800099d0:	58 0c       	cp.w	r12,0
800099d2:	c1 d0       	breq	80009a0c <_vfprintf_r+0xff0>
800099d4:	10 36       	cp.w	r6,r8
800099d6:	c0 64       	brge	800099e2 <_vfprintf_r+0xfc6>
800099d8:	fa cb f9 44 	sub	r11,sp,-1724
800099dc:	f6 06 00 36 	add	r6,r11,r6<<0x3
800099e0:	c1 d8       	rjmp	80009a1a <_vfprintf_r+0xffe>
800099e2:	fa c8 f9 50 	sub	r8,sp,-1712
800099e6:	1a d8       	st.w	--sp,r8
800099e8:	fa c8 fa b8 	sub	r8,sp,-1352
800099ec:	1a d8       	st.w	--sp,r8
800099ee:	fa c8 fb b4 	sub	r8,sp,-1100
800099f2:	1a d8       	st.w	--sp,r8
800099f4:	fa c9 ff b4 	sub	r9,sp,-76
800099f8:	fa c8 f9 40 	sub	r8,sp,-1728
800099fc:	04 9a       	mov	r10,r2
800099fe:	0c 9b       	mov	r11,r6
80009a00:	08 9c       	mov	r12,r4
80009a02:	f0 1f 00 62 	mcall	80009b88 <_vfprintf_r+0x116c>
80009a06:	2f dd       	sub	sp,-12
80009a08:	78 09       	ld.w	r9,r12[0x0]
80009a0a:	c2 18       	rjmp	80009a4c <_vfprintf_r+0x1030>
80009a0c:	2f f7       	sub	r7,-1
80009a0e:	10 39       	cp.w	r9,r8
80009a10:	c0 84       	brge	80009a20 <_vfprintf_r+0x1004>
80009a12:	fa ca f9 44 	sub	r10,sp,-1724
80009a16:	f4 06 00 36 	add	r6,r10,r6<<0x3
80009a1a:	ec f9 fd 88 	ld.w	r9,r6[-632]
80009a1e:	c1 78       	rjmp	80009a4c <_vfprintf_r+0x1030>
80009a20:	41 09       	lddsp	r9,sp[0x40]
80009a22:	59 f8       	cp.w	r8,31
80009a24:	e0 89 00 10 	brgt	80009a44 <_vfprintf_r+0x1028>
80009a28:	f2 ca ff fc 	sub	r10,r9,-4
80009a2c:	51 0a       	stdsp	sp[0x40],r10
80009a2e:	fa c6 f9 44 	sub	r6,sp,-1724
80009a32:	72 09       	ld.w	r9,r9[0x0]
80009a34:	ec 08 00 3a 	add	r10,r6,r8<<0x3
80009a38:	f5 49 fd 88 	st.w	r10[-632],r9
80009a3c:	2f f8       	sub	r8,-1
80009a3e:	fb 48 06 b4 	st.w	sp[1716],r8
80009a42:	c0 58       	rjmp	80009a4c <_vfprintf_r+0x1030>
80009a44:	f2 c8 ff fc 	sub	r8,r9,-4
80009a48:	51 08       	stdsp	sp[0x40],r8
80009a4a:	72 09       	ld.w	r9,r9[0x0]
80009a4c:	33 08       	mov	r8,48
80009a4e:	fb 68 06 b8 	st.b	sp[1720],r8
80009a52:	37 88       	mov	r8,120
80009a54:	30 0e       	mov	lr,0
80009a56:	fb 68 06 b9 	st.b	sp[1721],r8
80009a5a:	4c dc       	lddpc	r12,80009b8c <_vfprintf_r+0x1170>
80009a5c:	50 19       	stdsp	sp[0x4],r9
80009a5e:	a1 b5       	sbr	r5,0x1
80009a60:	50 0e       	stdsp	sp[0x0],lr
80009a62:	50 dc       	stdsp	sp[0x34],r12
80009a64:	30 28       	mov	r8,2
80009a66:	37 80       	mov	r0,120
80009a68:	e0 8f 02 ad 	bral	80009fc2 <_vfprintf_r+0x15a6>
80009a6c:	50 a7       	stdsp	sp[0x28],r7
80009a6e:	50 80       	stdsp	sp[0x20],r0
80009a70:	10 90       	mov	r0,r8
80009a72:	30 08       	mov	r8,0
80009a74:	fb 68 06 bb 	st.b	sp[1723],r8
80009a78:	0c 97       	mov	r7,r6
80009a7a:	04 94       	mov	r4,r2
80009a7c:	06 96       	mov	r6,r3
80009a7e:	02 92       	mov	r2,r1
80009a80:	40 93       	lddsp	r3,sp[0x24]
80009a82:	40 41       	lddsp	r1,sp[0x10]
80009a84:	0e 99       	mov	r9,r7
80009a86:	fa f8 06 b4 	ld.w	r8,sp[1716]
80009a8a:	40 3b       	lddsp	r11,sp[0xc]
80009a8c:	58 0b       	cp.w	r11,0
80009a8e:	c1 d0       	breq	80009ac8 <_vfprintf_r+0x10ac>
80009a90:	10 36       	cp.w	r6,r8
80009a92:	c0 64       	brge	80009a9e <_vfprintf_r+0x1082>
80009a94:	fa ca f9 44 	sub	r10,sp,-1724
80009a98:	f4 06 00 36 	add	r6,r10,r6<<0x3
80009a9c:	c1 d8       	rjmp	80009ad6 <_vfprintf_r+0x10ba>
80009a9e:	fa c8 f9 50 	sub	r8,sp,-1712
80009aa2:	1a d8       	st.w	--sp,r8
80009aa4:	fa c8 fa b8 	sub	r8,sp,-1352
80009aa8:	1a d8       	st.w	--sp,r8
80009aaa:	fa c8 fb b4 	sub	r8,sp,-1100
80009aae:	0c 9b       	mov	r11,r6
80009ab0:	1a d8       	st.w	--sp,r8
80009ab2:	04 9a       	mov	r10,r2
80009ab4:	fa c8 f9 40 	sub	r8,sp,-1728
80009ab8:	fa c9 ff b4 	sub	r9,sp,-76
80009abc:	08 9c       	mov	r12,r4
80009abe:	f0 1f 00 33 	mcall	80009b88 <_vfprintf_r+0x116c>
80009ac2:	2f dd       	sub	sp,-12
80009ac4:	78 06       	ld.w	r6,r12[0x0]
80009ac6:	c2 08       	rjmp	80009b06 <_vfprintf_r+0x10ea>
80009ac8:	2f f7       	sub	r7,-1
80009aca:	10 39       	cp.w	r9,r8
80009acc:	c0 84       	brge	80009adc <_vfprintf_r+0x10c0>
80009ace:	fa c9 f9 44 	sub	r9,sp,-1724
80009ad2:	f2 06 00 36 	add	r6,r9,r6<<0x3
80009ad6:	ec f6 fd 88 	ld.w	r6,r6[-632]
80009ada:	c1 68       	rjmp	80009b06 <_vfprintf_r+0x10ea>
80009adc:	41 09       	lddsp	r9,sp[0x40]
80009ade:	59 f8       	cp.w	r8,31
80009ae0:	e0 89 00 10 	brgt	80009b00 <_vfprintf_r+0x10e4>
80009ae4:	f2 ca ff fc 	sub	r10,r9,-4
80009ae8:	51 0a       	stdsp	sp[0x40],r10
80009aea:	72 06       	ld.w	r6,r9[0x0]
80009aec:	fa ce f9 44 	sub	lr,sp,-1724
80009af0:	fc 08 00 39 	add	r9,lr,r8<<0x3
80009af4:	f3 46 fd 88 	st.w	r9[-632],r6
80009af8:	2f f8       	sub	r8,-1
80009afa:	fb 48 06 b4 	st.w	sp[1716],r8
80009afe:	c0 48       	rjmp	80009b06 <_vfprintf_r+0x10ea>
80009b00:	72 06       	ld.w	r6,r9[0x0]
80009b02:	2f c9       	sub	r9,-4
80009b04:	51 09       	stdsp	sp[0x40],r9
80009b06:	40 2c       	lddsp	r12,sp[0x8]
80009b08:	58 0c       	cp.w	r12,0
80009b0a:	c1 05       	brlt	80009b2a <_vfprintf_r+0x110e>
80009b0c:	18 9a       	mov	r10,r12
80009b0e:	30 0b       	mov	r11,0
80009b10:	0c 9c       	mov	r12,r6
80009b12:	f0 1f 00 20 	mcall	80009b90 <_vfprintf_r+0x1174>
80009b16:	e0 80 02 e9 	breq	8000a0e8 <_vfprintf_r+0x16cc>
80009b1a:	f8 06 01 02 	sub	r2,r12,r6
80009b1e:	40 2b       	lddsp	r11,sp[0x8]
80009b20:	16 32       	cp.w	r2,r11
80009b22:	e0 89 02 e3 	brgt	8000a0e8 <_vfprintf_r+0x16cc>
80009b26:	e0 8f 02 de 	bral	8000a0e2 <_vfprintf_r+0x16c6>
80009b2a:	30 0a       	mov	r10,0
80009b2c:	0c 9c       	mov	r12,r6
80009b2e:	50 2a       	stdsp	sp[0x8],r10
80009b30:	f0 1f 00 19 	mcall	80009b94 <_vfprintf_r+0x1178>
80009b34:	18 92       	mov	r2,r12
80009b36:	e0 8f 02 dc 	bral	8000a0ee <_vfprintf_r+0x16d2>
80009b3a:	50 a7       	stdsp	sp[0x28],r7
80009b3c:	50 80       	stdsp	sp[0x20],r0
80009b3e:	0c 97       	mov	r7,r6
80009b40:	04 94       	mov	r4,r2
80009b42:	06 96       	mov	r6,r3
80009b44:	02 92       	mov	r2,r1
80009b46:	40 93       	lddsp	r3,sp[0x24]
80009b48:	10 90       	mov	r0,r8
80009b4a:	40 41       	lddsp	r1,sp[0x10]
80009b4c:	a5 a5       	sbr	r5,0x4
80009b4e:	c0 a8       	rjmp	80009b62 <_vfprintf_r+0x1146>
80009b50:	50 a7       	stdsp	sp[0x28],r7
80009b52:	50 80       	stdsp	sp[0x20],r0
80009b54:	0c 97       	mov	r7,r6
80009b56:	04 94       	mov	r4,r2
80009b58:	06 96       	mov	r6,r3
80009b5a:	02 92       	mov	r2,r1
80009b5c:	40 93       	lddsp	r3,sp[0x24]
80009b5e:	10 90       	mov	r0,r8
80009b60:	40 41       	lddsp	r1,sp[0x10]
80009b62:	ed b5 00 05 	bld	r5,0x5
80009b66:	c6 11       	brne	80009c28 <_vfprintf_r+0x120c>
80009b68:	fa f8 06 b4 	ld.w	r8,sp[1716]
80009b6c:	40 39       	lddsp	r9,sp[0xc]
80009b6e:	58 09       	cp.w	r9,0
80009b70:	c2 c0       	breq	80009bc8 <_vfprintf_r+0x11ac>
80009b72:	10 36       	cp.w	r6,r8
80009b74:	c1 24       	brge	80009b98 <_vfprintf_r+0x117c>
80009b76:	fa c8 f9 44 	sub	r8,sp,-1724
80009b7a:	f0 06 00 36 	add	r6,r8,r6<<0x3
80009b7e:	c2 e8       	rjmp	80009bda <_vfprintf_r+0x11be>
80009b80:	80 00       	ld.sh	r0,r0[0x0]
80009b82:	ac 88       	st.b	r6[0x0],r8
80009b84:	80 00       	ld.sh	r0,r0[0x0]
80009b86:	c9 72       	brcc	80009ab4 <_vfprintf_r+0x1098>
80009b88:	80 00       	ld.sh	r0,r0[0x0]
80009b8a:	86 d8       	ld.uh	r8,r3[0xa]
80009b8c:	80 00       	ld.sh	r0,r0[0x0]
80009b8e:	de 1c       	*unknown*
80009b90:	80 00       	ld.sh	r0,r0[0x0]
80009b92:	7e 4c       	ld.w	r12,pc[0x10]
80009b94:	80 00       	ld.sh	r0,r0[0x0]
80009b96:	85 6e       	st.w	r2[0x18],lr
80009b98:	fa c8 f9 50 	sub	r8,sp,-1712
80009b9c:	1a d8       	st.w	--sp,r8
80009b9e:	fa c8 fa b8 	sub	r8,sp,-1352
80009ba2:	1a d8       	st.w	--sp,r8
80009ba4:	fa c8 fb b4 	sub	r8,sp,-1100
80009ba8:	1a d8       	st.w	--sp,r8
80009baa:	fa c8 f9 40 	sub	r8,sp,-1728
80009bae:	fa c9 ff b4 	sub	r9,sp,-76
80009bb2:	04 9a       	mov	r10,r2
80009bb4:	0c 9b       	mov	r11,r6
80009bb6:	08 9c       	mov	r12,r4
80009bb8:	f0 1f 00 c8 	mcall	80009ed8 <_vfprintf_r+0x14bc>
80009bbc:	2f dd       	sub	sp,-12
80009bbe:	f8 e8 00 00 	ld.d	r8,r12[0]
80009bc2:	fa e9 00 00 	st.d	sp[0],r8
80009bc6:	c2 e8       	rjmp	80009c22 <_vfprintf_r+0x1206>
80009bc8:	ee ca ff ff 	sub	r10,r7,-1
80009bcc:	10 37       	cp.w	r7,r8
80009bce:	c0 b4       	brge	80009be4 <_vfprintf_r+0x11c8>
80009bd0:	fa c8 f9 44 	sub	r8,sp,-1724
80009bd4:	14 97       	mov	r7,r10
80009bd6:	f0 06 00 36 	add	r6,r8,r6<<0x3
80009bda:	ec ea fd 88 	ld.d	r10,r6[-632]
80009bde:	fa eb 00 00 	st.d	sp[0],r10
80009be2:	c2 08       	rjmp	80009c22 <_vfprintf_r+0x1206>
80009be4:	41 09       	lddsp	r9,sp[0x40]
80009be6:	59 f8       	cp.w	r8,31
80009be8:	e0 89 00 16 	brgt	80009c14 <_vfprintf_r+0x11f8>
80009bec:	f2 e6 00 00 	ld.d	r6,r9[0]
80009bf0:	f2 cb ff f8 	sub	r11,r9,-8
80009bf4:	fa e7 00 00 	st.d	sp[0],r6
80009bf8:	51 0b       	stdsp	sp[0x40],r11
80009bfa:	fa c6 f9 44 	sub	r6,sp,-1724
80009bfe:	ec 08 00 39 	add	r9,r6,r8<<0x3
80009c02:	fa e6 00 00 	ld.d	r6,sp[0]
80009c06:	f2 e7 fd 88 	st.d	r9[-632],r6
80009c0a:	2f f8       	sub	r8,-1
80009c0c:	14 97       	mov	r7,r10
80009c0e:	fb 48 06 b4 	st.w	sp[1716],r8
80009c12:	c0 88       	rjmp	80009c22 <_vfprintf_r+0x1206>
80009c14:	f2 e6 00 00 	ld.d	r6,r9[0]
80009c18:	2f 89       	sub	r9,-8
80009c1a:	fa e7 00 00 	st.d	sp[0],r6
80009c1e:	51 09       	stdsp	sp[0x40],r9
80009c20:	14 97       	mov	r7,r10
80009c22:	30 18       	mov	r8,1
80009c24:	e0 8f 01 cf 	bral	80009fc2 <_vfprintf_r+0x15a6>
80009c28:	ed b5 00 04 	bld	r5,0x4
80009c2c:	c1 61       	brne	80009c58 <_vfprintf_r+0x123c>
80009c2e:	fa f8 06 b4 	ld.w	r8,sp[1716]
80009c32:	40 3e       	lddsp	lr,sp[0xc]
80009c34:	58 0e       	cp.w	lr,0
80009c36:	c0 80       	breq	80009c46 <_vfprintf_r+0x122a>
80009c38:	10 36       	cp.w	r6,r8
80009c3a:	c6 74       	brge	80009d08 <_vfprintf_r+0x12ec>
80009c3c:	fa cc f9 44 	sub	r12,sp,-1724
80009c40:	f8 06 00 36 	add	r6,r12,r6<<0x3
80009c44:	c8 08       	rjmp	80009d44 <_vfprintf_r+0x1328>
80009c46:	ee ca ff ff 	sub	r10,r7,-1
80009c4a:	10 37       	cp.w	r7,r8
80009c4c:	c7 f4       	brge	80009d4a <_vfprintf_r+0x132e>
80009c4e:	fa cb f9 44 	sub	r11,sp,-1724
80009c52:	f6 06 00 36 	add	r6,r11,r6<<0x3
80009c56:	c7 68       	rjmp	80009d42 <_vfprintf_r+0x1326>
80009c58:	ed b5 00 06 	bld	r5,0x6
80009c5c:	c4 a1       	brne	80009cf0 <_vfprintf_r+0x12d4>
80009c5e:	fa f8 06 b4 	ld.w	r8,sp[1716]
80009c62:	40 3c       	lddsp	r12,sp[0xc]
80009c64:	58 0c       	cp.w	r12,0
80009c66:	c1 d0       	breq	80009ca0 <_vfprintf_r+0x1284>
80009c68:	10 36       	cp.w	r6,r8
80009c6a:	c0 64       	brge	80009c76 <_vfprintf_r+0x125a>
80009c6c:	fa cb f9 44 	sub	r11,sp,-1724
80009c70:	f6 06 00 36 	add	r6,r11,r6<<0x3
80009c74:	c1 f8       	rjmp	80009cb2 <_vfprintf_r+0x1296>
80009c76:	fa c8 f9 50 	sub	r8,sp,-1712
80009c7a:	1a d8       	st.w	--sp,r8
80009c7c:	fa c8 fa b8 	sub	r8,sp,-1352
80009c80:	1a d8       	st.w	--sp,r8
80009c82:	fa c8 fb b4 	sub	r8,sp,-1100
80009c86:	1a d8       	st.w	--sp,r8
80009c88:	fa c8 f9 40 	sub	r8,sp,-1728
80009c8c:	fa c9 ff b4 	sub	r9,sp,-76
80009c90:	04 9a       	mov	r10,r2
80009c92:	0c 9b       	mov	r11,r6
80009c94:	08 9c       	mov	r12,r4
80009c96:	f0 1f 00 91 	mcall	80009ed8 <_vfprintf_r+0x14bc>
80009c9a:	2f dd       	sub	sp,-12
80009c9c:	98 18       	ld.sh	r8,r12[0x2]
80009c9e:	c2 68       	rjmp	80009cea <_vfprintf_r+0x12ce>
80009ca0:	ee ca ff ff 	sub	r10,r7,-1
80009ca4:	10 37       	cp.w	r7,r8
80009ca6:	c0 94       	brge	80009cb8 <_vfprintf_r+0x129c>
80009ca8:	fa c9 f9 44 	sub	r9,sp,-1724
80009cac:	14 97       	mov	r7,r10
80009cae:	f2 06 00 36 	add	r6,r9,r6<<0x3
80009cb2:	ed 08 fd 8a 	ld.sh	r8,r6[-630]
80009cb6:	c1 a8       	rjmp	80009cea <_vfprintf_r+0x12ce>
80009cb8:	41 09       	lddsp	r9,sp[0x40]
80009cba:	59 f8       	cp.w	r8,31
80009cbc:	e0 89 00 13 	brgt	80009ce2 <_vfprintf_r+0x12c6>
80009cc0:	f2 cb ff fc 	sub	r11,r9,-4
80009cc4:	51 0b       	stdsp	sp[0x40],r11
80009cc6:	72 09       	ld.w	r9,r9[0x0]
80009cc8:	fa c6 f9 44 	sub	r6,sp,-1724
80009ccc:	ec 08 00 3b 	add	r11,r6,r8<<0x3
80009cd0:	2f f8       	sub	r8,-1
80009cd2:	f7 49 fd 88 	st.w	r11[-632],r9
80009cd6:	fb 48 06 b4 	st.w	sp[1716],r8
80009cda:	14 97       	mov	r7,r10
80009cdc:	f1 d9 b0 10 	bfexts	r8,r9,0x0,0x10
80009ce0:	c0 58       	rjmp	80009cea <_vfprintf_r+0x12ce>
80009ce2:	92 18       	ld.sh	r8,r9[0x2]
80009ce4:	14 97       	mov	r7,r10
80009ce6:	2f c9       	sub	r9,-4
80009ce8:	51 09       	stdsp	sp[0x40],r9
80009cea:	5c 78       	castu.h	r8
80009cec:	50 18       	stdsp	sp[0x4],r8
80009cee:	c4 68       	rjmp	80009d7a <_vfprintf_r+0x135e>
80009cf0:	fa f8 06 b4 	ld.w	r8,sp[1716]
80009cf4:	40 3c       	lddsp	r12,sp[0xc]
80009cf6:	58 0c       	cp.w	r12,0
80009cf8:	c1 d0       	breq	80009d32 <_vfprintf_r+0x1316>
80009cfa:	10 36       	cp.w	r6,r8
80009cfc:	c0 64       	brge	80009d08 <_vfprintf_r+0x12ec>
80009cfe:	fa cb f9 44 	sub	r11,sp,-1724
80009d02:	f6 06 00 36 	add	r6,r11,r6<<0x3
80009d06:	c1 f8       	rjmp	80009d44 <_vfprintf_r+0x1328>
80009d08:	fa c8 f9 50 	sub	r8,sp,-1712
80009d0c:	1a d8       	st.w	--sp,r8
80009d0e:	fa c8 fa b8 	sub	r8,sp,-1352
80009d12:	0c 9b       	mov	r11,r6
80009d14:	1a d8       	st.w	--sp,r8
80009d16:	fa c8 fb b4 	sub	r8,sp,-1100
80009d1a:	04 9a       	mov	r10,r2
80009d1c:	1a d8       	st.w	--sp,r8
80009d1e:	08 9c       	mov	r12,r4
80009d20:	fa c8 f9 40 	sub	r8,sp,-1728
80009d24:	fa c9 ff b4 	sub	r9,sp,-76
80009d28:	f0 1f 00 6c 	mcall	80009ed8 <_vfprintf_r+0x14bc>
80009d2c:	2f dd       	sub	sp,-12
80009d2e:	78 0b       	ld.w	r11,r12[0x0]
80009d30:	c2 48       	rjmp	80009d78 <_vfprintf_r+0x135c>
80009d32:	ee ca ff ff 	sub	r10,r7,-1
80009d36:	10 37       	cp.w	r7,r8
80009d38:	c0 94       	brge	80009d4a <_vfprintf_r+0x132e>
80009d3a:	fa c9 f9 44 	sub	r9,sp,-1724
80009d3e:	f2 06 00 36 	add	r6,r9,r6<<0x3
80009d42:	14 97       	mov	r7,r10
80009d44:	ec fb fd 88 	ld.w	r11,r6[-632]
80009d48:	c1 88       	rjmp	80009d78 <_vfprintf_r+0x135c>
80009d4a:	41 09       	lddsp	r9,sp[0x40]
80009d4c:	59 f8       	cp.w	r8,31
80009d4e:	e0 89 00 11 	brgt	80009d70 <_vfprintf_r+0x1354>
80009d52:	f2 cb ff fc 	sub	r11,r9,-4
80009d56:	51 0b       	stdsp	sp[0x40],r11
80009d58:	fa c6 f9 44 	sub	r6,sp,-1724
80009d5c:	72 0b       	ld.w	r11,r9[0x0]
80009d5e:	ec 08 00 39 	add	r9,r6,r8<<0x3
80009d62:	f3 4b fd 88 	st.w	r9[-632],r11
80009d66:	2f f8       	sub	r8,-1
80009d68:	14 97       	mov	r7,r10
80009d6a:	fb 48 06 b4 	st.w	sp[1716],r8
80009d6e:	c0 58       	rjmp	80009d78 <_vfprintf_r+0x135c>
80009d70:	72 0b       	ld.w	r11,r9[0x0]
80009d72:	14 97       	mov	r7,r10
80009d74:	2f c9       	sub	r9,-4
80009d76:	51 09       	stdsp	sp[0x40],r9
80009d78:	50 1b       	stdsp	sp[0x4],r11
80009d7a:	30 0e       	mov	lr,0
80009d7c:	30 18       	mov	r8,1
80009d7e:	50 0e       	stdsp	sp[0x0],lr
80009d80:	c2 19       	rjmp	80009fc2 <_vfprintf_r+0x15a6>
80009d82:	50 a7       	stdsp	sp[0x28],r7
80009d84:	50 80       	stdsp	sp[0x20],r0
80009d86:	0c 97       	mov	r7,r6
80009d88:	04 94       	mov	r4,r2
80009d8a:	06 96       	mov	r6,r3
80009d8c:	02 92       	mov	r2,r1
80009d8e:	4d 4c       	lddpc	r12,80009edc <_vfprintf_r+0x14c0>
80009d90:	40 93       	lddsp	r3,sp[0x24]
80009d92:	10 90       	mov	r0,r8
80009d94:	40 41       	lddsp	r1,sp[0x10]
80009d96:	50 dc       	stdsp	sp[0x34],r12
80009d98:	ed b5 00 05 	bld	r5,0x5
80009d9c:	c5 51       	brne	80009e46 <_vfprintf_r+0x142a>
80009d9e:	fa f8 06 b4 	ld.w	r8,sp[1716]
80009da2:	40 3b       	lddsp	r11,sp[0xc]
80009da4:	58 0b       	cp.w	r11,0
80009da6:	c2 20       	breq	80009dea <_vfprintf_r+0x13ce>
80009da8:	10 36       	cp.w	r6,r8
80009daa:	c0 a4       	brge	80009dbe <_vfprintf_r+0x13a2>
80009dac:	fa ca f9 44 	sub	r10,sp,-1724
80009db0:	f4 06 00 36 	add	r6,r10,r6<<0x3
80009db4:	ec e8 fd 88 	ld.d	r8,r6[-632]
80009db8:	fa e9 00 00 	st.d	sp[0],r8
80009dbc:	cf 58       	rjmp	80009fa6 <_vfprintf_r+0x158a>
80009dbe:	fa c8 f9 50 	sub	r8,sp,-1712
80009dc2:	1a d8       	st.w	--sp,r8
80009dc4:	fa c8 fa b8 	sub	r8,sp,-1352
80009dc8:	04 9a       	mov	r10,r2
80009dca:	1a d8       	st.w	--sp,r8
80009dcc:	0c 9b       	mov	r11,r6
80009dce:	fa c8 fb b4 	sub	r8,sp,-1100
80009dd2:	08 9c       	mov	r12,r4
80009dd4:	1a d8       	st.w	--sp,r8
80009dd6:	fa c8 f9 40 	sub	r8,sp,-1728
80009dda:	fa c9 ff b4 	sub	r9,sp,-76
80009dde:	f0 1f 00 3f 	mcall	80009ed8 <_vfprintf_r+0x14bc>
80009de2:	2f dd       	sub	sp,-12
80009de4:	f8 ea 00 00 	ld.d	r10,r12[0]
80009de8:	c0 c8       	rjmp	80009e00 <_vfprintf_r+0x13e4>
80009dea:	ee ca ff ff 	sub	r10,r7,-1
80009dee:	10 37       	cp.w	r7,r8
80009df0:	c0 b4       	brge	80009e06 <_vfprintf_r+0x13ea>
80009df2:	fa c9 f9 44 	sub	r9,sp,-1724
80009df6:	14 97       	mov	r7,r10
80009df8:	f2 06 00 36 	add	r6,r9,r6<<0x3
80009dfc:	ec ea fd 88 	ld.d	r10,r6[-632]
80009e00:	fa eb 00 00 	st.d	sp[0],r10
80009e04:	cd 18       	rjmp	80009fa6 <_vfprintf_r+0x158a>
80009e06:	41 09       	lddsp	r9,sp[0x40]
80009e08:	59 f8       	cp.w	r8,31
80009e0a:	e0 89 00 16 	brgt	80009e36 <_vfprintf_r+0x141a>
80009e0e:	f2 e6 00 00 	ld.d	r6,r9[0]
80009e12:	f2 cb ff f8 	sub	r11,r9,-8
80009e16:	fa e7 00 00 	st.d	sp[0],r6
80009e1a:	51 0b       	stdsp	sp[0x40],r11
80009e1c:	fa c6 f9 44 	sub	r6,sp,-1724
80009e20:	ec 08 00 39 	add	r9,r6,r8<<0x3
80009e24:	fa e6 00 00 	ld.d	r6,sp[0]
80009e28:	f2 e7 fd 88 	st.d	r9[-632],r6
80009e2c:	2f f8       	sub	r8,-1
80009e2e:	14 97       	mov	r7,r10
80009e30:	fb 48 06 b4 	st.w	sp[1716],r8
80009e34:	cb 98       	rjmp	80009fa6 <_vfprintf_r+0x158a>
80009e36:	f2 e6 00 00 	ld.d	r6,r9[0]
80009e3a:	2f 89       	sub	r9,-8
80009e3c:	fa e7 00 00 	st.d	sp[0],r6
80009e40:	51 09       	stdsp	sp[0x40],r9
80009e42:	14 97       	mov	r7,r10
80009e44:	cb 18       	rjmp	80009fa6 <_vfprintf_r+0x158a>
80009e46:	ed b5 00 04 	bld	r5,0x4
80009e4a:	c1 71       	brne	80009e78 <_vfprintf_r+0x145c>
80009e4c:	fa f8 06 b4 	ld.w	r8,sp[1716]
80009e50:	40 3e       	lddsp	lr,sp[0xc]
80009e52:	58 0e       	cp.w	lr,0
80009e54:	c0 80       	breq	80009e64 <_vfprintf_r+0x1448>
80009e56:	10 36       	cp.w	r6,r8
80009e58:	c6 c4       	brge	80009f30 <_vfprintf_r+0x1514>
80009e5a:	fa cc f9 44 	sub	r12,sp,-1724
80009e5e:	f8 06 00 36 	add	r6,r12,r6<<0x3
80009e62:	c8 58       	rjmp	80009f6c <_vfprintf_r+0x1550>
80009e64:	ee ca ff ff 	sub	r10,r7,-1
80009e68:	10 37       	cp.w	r7,r8
80009e6a:	e0 84 00 84 	brge	80009f72 <_vfprintf_r+0x1556>
80009e6e:	fa cb f9 44 	sub	r11,sp,-1724
80009e72:	f6 06 00 36 	add	r6,r11,r6<<0x3
80009e76:	c7 a8       	rjmp	80009f6a <_vfprintf_r+0x154e>
80009e78:	ed b5 00 06 	bld	r5,0x6
80009e7c:	c4 e1       	brne	80009f18 <_vfprintf_r+0x14fc>
80009e7e:	fa f8 06 b4 	ld.w	r8,sp[1716]
80009e82:	40 3c       	lddsp	r12,sp[0xc]
80009e84:	58 0c       	cp.w	r12,0
80009e86:	c1 d0       	breq	80009ec0 <_vfprintf_r+0x14a4>
80009e88:	10 36       	cp.w	r6,r8
80009e8a:	c0 64       	brge	80009e96 <_vfprintf_r+0x147a>
80009e8c:	fa cb f9 44 	sub	r11,sp,-1724
80009e90:	f6 06 00 36 	add	r6,r11,r6<<0x3
80009e94:	c1 f8       	rjmp	80009ed2 <_vfprintf_r+0x14b6>
80009e96:	fa c8 f9 50 	sub	r8,sp,-1712
80009e9a:	1a d8       	st.w	--sp,r8
80009e9c:	fa c8 fa b8 	sub	r8,sp,-1352
80009ea0:	1a d8       	st.w	--sp,r8
80009ea2:	fa c8 fb b4 	sub	r8,sp,-1100
80009ea6:	1a d8       	st.w	--sp,r8
80009ea8:	fa c8 f9 40 	sub	r8,sp,-1728
80009eac:	fa c9 ff b4 	sub	r9,sp,-76
80009eb0:	04 9a       	mov	r10,r2
80009eb2:	0c 9b       	mov	r11,r6
80009eb4:	08 9c       	mov	r12,r4
80009eb6:	f0 1f 00 09 	mcall	80009ed8 <_vfprintf_r+0x14bc>
80009eba:	2f dd       	sub	sp,-12
80009ebc:	98 18       	ld.sh	r8,r12[0x2]
80009ebe:	c2 a8       	rjmp	80009f12 <_vfprintf_r+0x14f6>
80009ec0:	ee ca ff ff 	sub	r10,r7,-1
80009ec4:	10 37       	cp.w	r7,r8
80009ec6:	c0 d4       	brge	80009ee0 <_vfprintf_r+0x14c4>
80009ec8:	fa c9 f9 44 	sub	r9,sp,-1724
80009ecc:	14 97       	mov	r7,r10
80009ece:	f2 06 00 36 	add	r6,r9,r6<<0x3
80009ed2:	ed 08 fd 8a 	ld.sh	r8,r6[-630]
80009ed6:	c1 e8       	rjmp	80009f12 <_vfprintf_r+0x14f6>
80009ed8:	80 00       	ld.sh	r0,r0[0x0]
80009eda:	86 d8       	ld.uh	r8,r3[0xa]
80009edc:	80 00       	ld.sh	r0,r0[0x0]
80009ede:	de 1c       	*unknown*
80009ee0:	41 09       	lddsp	r9,sp[0x40]
80009ee2:	59 f8       	cp.w	r8,31
80009ee4:	e0 89 00 13 	brgt	80009f0a <_vfprintf_r+0x14ee>
80009ee8:	f2 cb ff fc 	sub	r11,r9,-4
80009eec:	51 0b       	stdsp	sp[0x40],r11
80009eee:	72 09       	ld.w	r9,r9[0x0]
80009ef0:	fa c6 f9 44 	sub	r6,sp,-1724
80009ef4:	ec 08 00 3b 	add	r11,r6,r8<<0x3
80009ef8:	2f f8       	sub	r8,-1
80009efa:	f7 49 fd 88 	st.w	r11[-632],r9
80009efe:	fb 48 06 b4 	st.w	sp[1716],r8
80009f02:	14 97       	mov	r7,r10
80009f04:	f1 d9 b0 10 	bfexts	r8,r9,0x0,0x10
80009f08:	c0 58       	rjmp	80009f12 <_vfprintf_r+0x14f6>
80009f0a:	92 18       	ld.sh	r8,r9[0x2]
80009f0c:	14 97       	mov	r7,r10
80009f0e:	2f c9       	sub	r9,-4
80009f10:	51 09       	stdsp	sp[0x40],r9
80009f12:	5c 78       	castu.h	r8
80009f14:	50 18       	stdsp	sp[0x4],r8
80009f16:	c4 68       	rjmp	80009fa2 <_vfprintf_r+0x1586>
80009f18:	fa f8 06 b4 	ld.w	r8,sp[1716]
80009f1c:	40 3c       	lddsp	r12,sp[0xc]
80009f1e:	58 0c       	cp.w	r12,0
80009f20:	c1 d0       	breq	80009f5a <_vfprintf_r+0x153e>
80009f22:	10 36       	cp.w	r6,r8
80009f24:	c0 64       	brge	80009f30 <_vfprintf_r+0x1514>
80009f26:	fa cb f9 44 	sub	r11,sp,-1724
80009f2a:	f6 06 00 36 	add	r6,r11,r6<<0x3
80009f2e:	c1 f8       	rjmp	80009f6c <_vfprintf_r+0x1550>
80009f30:	fa c8 f9 50 	sub	r8,sp,-1712
80009f34:	1a d8       	st.w	--sp,r8
80009f36:	fa c8 fa b8 	sub	r8,sp,-1352
80009f3a:	0c 9b       	mov	r11,r6
80009f3c:	1a d8       	st.w	--sp,r8
80009f3e:	fa c8 fb b4 	sub	r8,sp,-1100
80009f42:	04 9a       	mov	r10,r2
80009f44:	1a d8       	st.w	--sp,r8
80009f46:	08 9c       	mov	r12,r4
80009f48:	fa c8 f9 40 	sub	r8,sp,-1728
80009f4c:	fa c9 ff b4 	sub	r9,sp,-76
80009f50:	f0 1f 00 c6 	mcall	8000a268 <_vfprintf_r+0x184c>
80009f54:	2f dd       	sub	sp,-12
80009f56:	78 0b       	ld.w	r11,r12[0x0]
80009f58:	c2 48       	rjmp	80009fa0 <_vfprintf_r+0x1584>
80009f5a:	ee ca ff ff 	sub	r10,r7,-1
80009f5e:	10 37       	cp.w	r7,r8
80009f60:	c0 94       	brge	80009f72 <_vfprintf_r+0x1556>
80009f62:	fa c9 f9 44 	sub	r9,sp,-1724
80009f66:	f2 06 00 36 	add	r6,r9,r6<<0x3
80009f6a:	14 97       	mov	r7,r10
80009f6c:	ec fb fd 88 	ld.w	r11,r6[-632]
80009f70:	c1 88       	rjmp	80009fa0 <_vfprintf_r+0x1584>
80009f72:	41 09       	lddsp	r9,sp[0x40]
80009f74:	59 f8       	cp.w	r8,31
80009f76:	e0 89 00 11 	brgt	80009f98 <_vfprintf_r+0x157c>
80009f7a:	f2 cb ff fc 	sub	r11,r9,-4
80009f7e:	51 0b       	stdsp	sp[0x40],r11
80009f80:	fa c6 f9 44 	sub	r6,sp,-1724
80009f84:	72 0b       	ld.w	r11,r9[0x0]
80009f86:	ec 08 00 39 	add	r9,r6,r8<<0x3
80009f8a:	f3 4b fd 88 	st.w	r9[-632],r11
80009f8e:	2f f8       	sub	r8,-1
80009f90:	14 97       	mov	r7,r10
80009f92:	fb 48 06 b4 	st.w	sp[1716],r8
80009f96:	c0 58       	rjmp	80009fa0 <_vfprintf_r+0x1584>
80009f98:	72 0b       	ld.w	r11,r9[0x0]
80009f9a:	14 97       	mov	r7,r10
80009f9c:	2f c9       	sub	r9,-4
80009f9e:	51 09       	stdsp	sp[0x40],r9
80009fa0:	50 1b       	stdsp	sp[0x4],r11
80009fa2:	30 0e       	mov	lr,0
80009fa4:	50 0e       	stdsp	sp[0x0],lr
80009fa6:	40 08       	lddsp	r8,sp[0x0]
80009fa8:	40 1c       	lddsp	r12,sp[0x4]
80009faa:	18 48       	or	r8,r12
80009fac:	5f 18       	srne	r8
80009fae:	eb e8 00 08 	and	r8,r5,r8
80009fb2:	c0 70       	breq	80009fc0 <_vfprintf_r+0x15a4>
80009fb4:	33 08       	mov	r8,48
80009fb6:	fb 60 06 b9 	st.b	sp[1721],r0
80009fba:	a1 b5       	sbr	r5,0x1
80009fbc:	fb 68 06 b8 	st.b	sp[1720],r8
80009fc0:	30 28       	mov	r8,2
80009fc2:	30 09       	mov	r9,0
80009fc4:	fb 69 06 bb 	st.b	sp[1723],r9
80009fc8:	0a 99       	mov	r9,r5
80009fca:	a7 d9       	cbr	r9,0x7
80009fcc:	40 2b       	lddsp	r11,sp[0x8]
80009fce:	40 16       	lddsp	r6,sp[0x4]
80009fd0:	58 0b       	cp.w	r11,0
80009fd2:	5f 1a       	srne	r10
80009fd4:	f2 05 17 40 	movge	r5,r9
80009fd8:	fa c2 f9 78 	sub	r2,sp,-1672
80009fdc:	40 09       	lddsp	r9,sp[0x0]
80009fde:	0c 49       	or	r9,r6
80009fe0:	5f 19       	srne	r9
80009fe2:	f5 e9 10 09 	or	r9,r10,r9
80009fe6:	c5 c0       	breq	8000a09e <_vfprintf_r+0x1682>
80009fe8:	30 19       	mov	r9,1
80009fea:	f2 08 18 00 	cp.b	r8,r9
80009fee:	c0 60       	breq	80009ffa <_vfprintf_r+0x15de>
80009ff0:	30 29       	mov	r9,2
80009ff2:	f2 08 18 00 	cp.b	r8,r9
80009ff6:	c0 41       	brne	80009ffe <_vfprintf_r+0x15e2>
80009ff8:	c3 c8       	rjmp	8000a070 <_vfprintf_r+0x1654>
80009ffa:	04 96       	mov	r6,r2
80009ffc:	c3 08       	rjmp	8000a05c <_vfprintf_r+0x1640>
80009ffe:	04 96       	mov	r6,r2
8000a000:	fa e8 00 00 	ld.d	r8,sp[0]
8000a004:	f5 d8 c0 03 	bfextu	r10,r8,0x0,0x3
8000a008:	2d 0a       	sub	r10,-48
8000a00a:	0c fa       	st.b	--r6,r10
8000a00c:	f0 0b 16 03 	lsr	r11,r8,0x3
8000a010:	f2 0c 16 03 	lsr	r12,r9,0x3
8000a014:	f7 e9 11 db 	or	r11,r11,r9<<0x1d
8000a018:	18 99       	mov	r9,r12
8000a01a:	16 98       	mov	r8,r11
8000a01c:	58 08       	cp.w	r8,0
8000a01e:	5c 29       	cpc	r9
8000a020:	cf 21       	brne	8000a004 <_vfprintf_r+0x15e8>
8000a022:	fa e9 00 00 	st.d	sp[0],r8
8000a026:	ed b5 00 00 	bld	r5,0x0
8000a02a:	c4 51       	brne	8000a0b4 <_vfprintf_r+0x1698>
8000a02c:	33 09       	mov	r9,48
8000a02e:	f2 0a 18 00 	cp.b	r10,r9
8000a032:	c4 10       	breq	8000a0b4 <_vfprintf_r+0x1698>
8000a034:	0c f9       	st.b	--r6,r9
8000a036:	c3 f8       	rjmp	8000a0b4 <_vfprintf_r+0x1698>
8000a038:	fa ea 00 00 	ld.d	r10,sp[0]
8000a03c:	30 a8       	mov	r8,10
8000a03e:	30 09       	mov	r9,0
8000a040:	f0 1f 00 8b 	mcall	8000a26c <_vfprintf_r+0x1850>
8000a044:	30 a8       	mov	r8,10
8000a046:	2d 0a       	sub	r10,-48
8000a048:	30 09       	mov	r9,0
8000a04a:	ac 8a       	st.b	r6[0x0],r10
8000a04c:	fa ea 00 00 	ld.d	r10,sp[0]
8000a050:	f0 1f 00 88 	mcall	8000a270 <_vfprintf_r+0x1854>
8000a054:	16 99       	mov	r9,r11
8000a056:	14 98       	mov	r8,r10
8000a058:	fa e9 00 00 	st.d	sp[0],r8
8000a05c:	20 16       	sub	r6,1
8000a05e:	fa ea 00 00 	ld.d	r10,sp[0]
8000a062:	58 9a       	cp.w	r10,9
8000a064:	5c 2b       	cpc	r11
8000a066:	fe 9b ff e9 	brhi	8000a038 <_vfprintf_r+0x161c>
8000a06a:	1b f8       	ld.ub	r8,sp[0x7]
8000a06c:	2d 08       	sub	r8,-48
8000a06e:	c2 08       	rjmp	8000a0ae <_vfprintf_r+0x1692>
8000a070:	04 96       	mov	r6,r2
8000a072:	fa e8 00 00 	ld.d	r8,sp[0]
8000a076:	f5 d8 c0 04 	bfextu	r10,r8,0x0,0x4
8000a07a:	40 de       	lddsp	lr,sp[0x34]
8000a07c:	fc 0a 07 0a 	ld.ub	r10,lr[r10]
8000a080:	0c fa       	st.b	--r6,r10
8000a082:	f2 0b 16 04 	lsr	r11,r9,0x4
8000a086:	f0 0a 16 04 	lsr	r10,r8,0x4
8000a08a:	f5 e9 11 ca 	or	r10,r10,r9<<0x1c
8000a08e:	16 99       	mov	r9,r11
8000a090:	14 98       	mov	r8,r10
8000a092:	58 08       	cp.w	r8,0
8000a094:	5c 29       	cpc	r9
8000a096:	cf 01       	brne	8000a076 <_vfprintf_r+0x165a>
8000a098:	fa e9 00 00 	st.d	sp[0],r8
8000a09c:	c0 c8       	rjmp	8000a0b4 <_vfprintf_r+0x1698>
8000a09e:	58 08       	cp.w	r8,0
8000a0a0:	c0 91       	brne	8000a0b2 <_vfprintf_r+0x1696>
8000a0a2:	ed b5 00 00 	bld	r5,0x0
8000a0a6:	c0 61       	brne	8000a0b2 <_vfprintf_r+0x1696>
8000a0a8:	fa c6 f9 79 	sub	r6,sp,-1671
8000a0ac:	33 08       	mov	r8,48
8000a0ae:	ac 88       	st.b	r6[0x0],r8
8000a0b0:	c0 28       	rjmp	8000a0b4 <_vfprintf_r+0x1698>
8000a0b2:	04 96       	mov	r6,r2
8000a0b4:	0c 12       	sub	r2,r6
8000a0b6:	c1 c8       	rjmp	8000a0ee <_vfprintf_r+0x16d2>
8000a0b8:	50 a7       	stdsp	sp[0x28],r7
8000a0ba:	50 80       	stdsp	sp[0x20],r0
8000a0bc:	40 93       	lddsp	r3,sp[0x24]
8000a0be:	0c 97       	mov	r7,r6
8000a0c0:	10 90       	mov	r0,r8
8000a0c2:	04 94       	mov	r4,r2
8000a0c4:	40 41       	lddsp	r1,sp[0x10]
8000a0c6:	58 08       	cp.w	r8,0
8000a0c8:	e0 80 04 5e 	breq	8000a984 <_vfprintf_r+0x1f68>
8000a0cc:	fb 68 06 60 	st.b	sp[1632],r8
8000a0d0:	30 0c       	mov	r12,0
8000a0d2:	30 08       	mov	r8,0
8000a0d4:	30 12       	mov	r2,1
8000a0d6:	fb 68 06 bb 	st.b	sp[1723],r8
8000a0da:	50 2c       	stdsp	sp[0x8],r12
8000a0dc:	fa c6 f9 a0 	sub	r6,sp,-1632
8000a0e0:	c0 78       	rjmp	8000a0ee <_vfprintf_r+0x16d2>
8000a0e2:	30 0b       	mov	r11,0
8000a0e4:	50 2b       	stdsp	sp[0x8],r11
8000a0e6:	c0 48       	rjmp	8000a0ee <_vfprintf_r+0x16d2>
8000a0e8:	40 22       	lddsp	r2,sp[0x8]
8000a0ea:	30 0a       	mov	r10,0
8000a0ec:	50 2a       	stdsp	sp[0x8],r10
8000a0ee:	40 29       	lddsp	r9,sp[0x8]
8000a0f0:	e4 09 0c 49 	max	r9,r2,r9
8000a0f4:	50 39       	stdsp	sp[0xc],r9
8000a0f6:	12 9a       	mov	r10,r9
8000a0f8:	40 3e       	lddsp	lr,sp[0xc]
8000a0fa:	2f fa       	sub	r10,-1
8000a0fc:	30 08       	mov	r8,0
8000a0fe:	fb 39 06 bb 	ld.ub	r9,sp[1723]
8000a102:	0a 9c       	mov	r12,r5
8000a104:	f0 09 18 00 	cp.b	r9,r8
8000a108:	f4 0e 17 10 	movne	lr,r10
8000a10c:	e2 1c 00 02 	andl	r12,0x2,COH
8000a110:	0a 9b       	mov	r11,r5
8000a112:	18 0e       	add	lr,r12
8000a114:	e2 1b 00 84 	andl	r11,0x84,COH
8000a118:	50 fc       	stdsp	sp[0x3c],r12
8000a11a:	50 3e       	stdsp	sp[0xc],lr
8000a11c:	50 9b       	stdsp	sp[0x24],r11
8000a11e:	c4 41       	brne	8000a1a6 <_vfprintf_r+0x178a>
8000a120:	40 8a       	lddsp	r10,sp[0x20]
8000a122:	1c 1a       	sub	r10,lr
8000a124:	50 4a       	stdsp	sp[0x10],r10
8000a126:	58 0a       	cp.w	r10,0
8000a128:	e0 89 00 1f 	brgt	8000a166 <_vfprintf_r+0x174a>
8000a12c:	c3 d8       	rjmp	8000a1a6 <_vfprintf_r+0x178a>
8000a12e:	2f 09       	sub	r9,-16
8000a130:	2f f8       	sub	r8,-1
8000a132:	fb 49 06 90 	st.w	sp[1680],r9
8000a136:	31 0e       	mov	lr,16
8000a138:	4c f9       	lddpc	r9,8000a274 <_vfprintf_r+0x1858>
8000a13a:	87 1e       	st.w	r3[0x4],lr
8000a13c:	87 09       	st.w	r3[0x0],r9
8000a13e:	fb 48 06 8c 	st.w	sp[1676],r8
8000a142:	58 78       	cp.w	r8,7
8000a144:	e0 89 00 04 	brgt	8000a14c <_vfprintf_r+0x1730>
8000a148:	2f 83       	sub	r3,-8
8000a14a:	c0 b8       	rjmp	8000a160 <_vfprintf_r+0x1744>
8000a14c:	fa ca f9 78 	sub	r10,sp,-1672
8000a150:	02 9b       	mov	r11,r1
8000a152:	08 9c       	mov	r12,r4
8000a154:	f0 1f 00 49 	mcall	8000a278 <_vfprintf_r+0x185c>
8000a158:	e0 81 04 27 	brne	8000a9a6 <_vfprintf_r+0x1f8a>
8000a15c:	fa c3 f9 e0 	sub	r3,sp,-1568
8000a160:	40 4c       	lddsp	r12,sp[0x10]
8000a162:	21 0c       	sub	r12,16
8000a164:	50 4c       	stdsp	sp[0x10],r12
8000a166:	fa f9 06 90 	ld.w	r9,sp[1680]
8000a16a:	fa f8 06 8c 	ld.w	r8,sp[1676]
8000a16e:	4c 2a       	lddpc	r10,8000a274 <_vfprintf_r+0x1858>
8000a170:	40 4b       	lddsp	r11,sp[0x10]
8000a172:	59 0b       	cp.w	r11,16
8000a174:	fe 99 ff dd 	brgt	8000a12e <_vfprintf_r+0x1712>
8000a178:	16 09       	add	r9,r11
8000a17a:	2f f8       	sub	r8,-1
8000a17c:	87 0a       	st.w	r3[0x0],r10
8000a17e:	fb 49 06 90 	st.w	sp[1680],r9
8000a182:	87 1b       	st.w	r3[0x4],r11
8000a184:	fb 48 06 8c 	st.w	sp[1676],r8
8000a188:	58 78       	cp.w	r8,7
8000a18a:	e0 89 00 04 	brgt	8000a192 <_vfprintf_r+0x1776>
8000a18e:	2f 83       	sub	r3,-8
8000a190:	c0 b8       	rjmp	8000a1a6 <_vfprintf_r+0x178a>
8000a192:	fa ca f9 78 	sub	r10,sp,-1672
8000a196:	02 9b       	mov	r11,r1
8000a198:	08 9c       	mov	r12,r4
8000a19a:	f0 1f 00 38 	mcall	8000a278 <_vfprintf_r+0x185c>
8000a19e:	e0 81 04 04 	brne	8000a9a6 <_vfprintf_r+0x1f8a>
8000a1a2:	fa c3 f9 e0 	sub	r3,sp,-1568
8000a1a6:	30 08       	mov	r8,0
8000a1a8:	fb 39 06 bb 	ld.ub	r9,sp[1723]
8000a1ac:	f0 09 18 00 	cp.b	r9,r8
8000a1b0:	c1 f0       	breq	8000a1ee <_vfprintf_r+0x17d2>
8000a1b2:	fa f8 06 90 	ld.w	r8,sp[1680]
8000a1b6:	fa c9 f9 45 	sub	r9,sp,-1723
8000a1ba:	2f f8       	sub	r8,-1
8000a1bc:	87 09       	st.w	r3[0x0],r9
8000a1be:	fb 48 06 90 	st.w	sp[1680],r8
8000a1c2:	30 19       	mov	r9,1
8000a1c4:	fa f8 06 8c 	ld.w	r8,sp[1676]
8000a1c8:	87 19       	st.w	r3[0x4],r9
8000a1ca:	2f f8       	sub	r8,-1
8000a1cc:	fb 48 06 8c 	st.w	sp[1676],r8
8000a1d0:	58 78       	cp.w	r8,7
8000a1d2:	e0 89 00 04 	brgt	8000a1da <_vfprintf_r+0x17be>
8000a1d6:	2f 83       	sub	r3,-8
8000a1d8:	c0 b8       	rjmp	8000a1ee <_vfprintf_r+0x17d2>
8000a1da:	fa ca f9 78 	sub	r10,sp,-1672
8000a1de:	02 9b       	mov	r11,r1
8000a1e0:	08 9c       	mov	r12,r4
8000a1e2:	f0 1f 00 26 	mcall	8000a278 <_vfprintf_r+0x185c>
8000a1e6:	e0 81 03 e0 	brne	8000a9a6 <_vfprintf_r+0x1f8a>
8000a1ea:	fa c3 f9 e0 	sub	r3,sp,-1568
8000a1ee:	40 fa       	lddsp	r10,sp[0x3c]
8000a1f0:	58 0a       	cp.w	r10,0
8000a1f2:	c1 f0       	breq	8000a230 <_vfprintf_r+0x1814>
8000a1f4:	30 29       	mov	r9,2
8000a1f6:	fa f8 06 90 	ld.w	r8,sp[1680]
8000a1fa:	12 08       	add	r8,r9
8000a1fc:	87 19       	st.w	r3[0x4],r9
8000a1fe:	fb 48 06 90 	st.w	sp[1680],r8
8000a202:	fa c9 f9 48 	sub	r9,sp,-1720
8000a206:	fa f8 06 8c 	ld.w	r8,sp[1676]
8000a20a:	87 09       	st.w	r3[0x0],r9
8000a20c:	2f f8       	sub	r8,-1
8000a20e:	fb 48 06 8c 	st.w	sp[1676],r8
8000a212:	58 78       	cp.w	r8,7
8000a214:	e0 89 00 04 	brgt	8000a21c <_vfprintf_r+0x1800>
8000a218:	2f 83       	sub	r3,-8
8000a21a:	c0 b8       	rjmp	8000a230 <_vfprintf_r+0x1814>
8000a21c:	fa ca f9 78 	sub	r10,sp,-1672
8000a220:	02 9b       	mov	r11,r1
8000a222:	08 9c       	mov	r12,r4
8000a224:	f0 1f 00 15 	mcall	8000a278 <_vfprintf_r+0x185c>
8000a228:	e0 81 03 bf 	brne	8000a9a6 <_vfprintf_r+0x1f8a>
8000a22c:	fa c3 f9 e0 	sub	r3,sp,-1568
8000a230:	40 98       	lddsp	r8,sp[0x24]
8000a232:	e0 48 00 80 	cp.w	r8,128
8000a236:	c5 21       	brne	8000a2da <_vfprintf_r+0x18be>
8000a238:	40 8e       	lddsp	lr,sp[0x20]
8000a23a:	40 3c       	lddsp	r12,sp[0xc]
8000a23c:	18 1e       	sub	lr,r12
8000a23e:	50 4e       	stdsp	sp[0x10],lr
8000a240:	58 0e       	cp.w	lr,0
8000a242:	e0 89 00 2c 	brgt	8000a29a <_vfprintf_r+0x187e>
8000a246:	c4 a8       	rjmp	8000a2da <_vfprintf_r+0x18be>
8000a248:	2f 09       	sub	r9,-16
8000a24a:	2f f8       	sub	r8,-1
8000a24c:	48 cb       	lddpc	r11,8000a27c <_vfprintf_r+0x1860>
8000a24e:	31 0a       	mov	r10,16
8000a250:	fb 49 06 90 	st.w	sp[1680],r9
8000a254:	87 0b       	st.w	r3[0x0],r11
8000a256:	87 1a       	st.w	r3[0x4],r10
8000a258:	fb 48 06 8c 	st.w	sp[1676],r8
8000a25c:	58 78       	cp.w	r8,7
8000a25e:	e0 89 00 11 	brgt	8000a280 <_vfprintf_r+0x1864>
8000a262:	2f 83       	sub	r3,-8
8000a264:	c1 88       	rjmp	8000a294 <_vfprintf_r+0x1878>
8000a266:	00 00       	add	r0,r0
8000a268:	80 00       	ld.sh	r0,r0[0x0]
8000a26a:	86 d8       	ld.uh	r8,r3[0xa]
8000a26c:	80 00       	ld.sh	r0,r0[0x0]
8000a26e:	cc f6       	brmi	8000a20c <_vfprintf_r+0x17f0>
8000a270:	80 00       	ld.sh	r0,r0[0x0]
8000a272:	ca 6e       	rcall	80009fbe <_vfprintf_r+0x15a2>
8000a274:	80 00       	ld.sh	r0,r0[0x0]
8000a276:	de 34       	*unknown*
8000a278:	80 00       	ld.sh	r0,r0[0x0]
8000a27a:	89 fc       	st.w	r4[0x3c],r12
8000a27c:	80 00       	ld.sh	r0,r0[0x0]
8000a27e:	de 44       	*unknown*
8000a280:	fa ca f9 78 	sub	r10,sp,-1672
8000a284:	02 9b       	mov	r11,r1
8000a286:	08 9c       	mov	r12,r4
8000a288:	f0 1f 00 4c 	mcall	8000a3b8 <_vfprintf_r+0x199c>
8000a28c:	e0 81 03 8d 	brne	8000a9a6 <_vfprintf_r+0x1f8a>
8000a290:	fa c3 f9 e0 	sub	r3,sp,-1568
8000a294:	40 49       	lddsp	r9,sp[0x10]
8000a296:	21 09       	sub	r9,16
8000a298:	50 49       	stdsp	sp[0x10],r9
8000a29a:	fa f9 06 90 	ld.w	r9,sp[1680]
8000a29e:	fa f8 06 8c 	ld.w	r8,sp[1676]
8000a2a2:	4c 7a       	lddpc	r10,8000a3bc <_vfprintf_r+0x19a0>
8000a2a4:	40 4e       	lddsp	lr,sp[0x10]
8000a2a6:	59 0e       	cp.w	lr,16
8000a2a8:	fe 99 ff d0 	brgt	8000a248 <_vfprintf_r+0x182c>
8000a2ac:	1c 09       	add	r9,lr
8000a2ae:	2f f8       	sub	r8,-1
8000a2b0:	87 0a       	st.w	r3[0x0],r10
8000a2b2:	fb 49 06 90 	st.w	sp[1680],r9
8000a2b6:	87 1e       	st.w	r3[0x4],lr
8000a2b8:	fb 48 06 8c 	st.w	sp[1676],r8
8000a2bc:	58 78       	cp.w	r8,7
8000a2be:	e0 89 00 04 	brgt	8000a2c6 <_vfprintf_r+0x18aa>
8000a2c2:	2f 83       	sub	r3,-8
8000a2c4:	c0 b8       	rjmp	8000a2da <_vfprintf_r+0x18be>
8000a2c6:	fa ca f9 78 	sub	r10,sp,-1672
8000a2ca:	02 9b       	mov	r11,r1
8000a2cc:	08 9c       	mov	r12,r4
8000a2ce:	f0 1f 00 3b 	mcall	8000a3b8 <_vfprintf_r+0x199c>
8000a2d2:	e0 81 03 6a 	brne	8000a9a6 <_vfprintf_r+0x1f8a>
8000a2d6:	fa c3 f9 e0 	sub	r3,sp,-1568
8000a2da:	40 2c       	lddsp	r12,sp[0x8]
8000a2dc:	04 1c       	sub	r12,r2
8000a2de:	50 2c       	stdsp	sp[0x8],r12
8000a2e0:	58 0c       	cp.w	r12,0
8000a2e2:	e0 89 00 1f 	brgt	8000a320 <_vfprintf_r+0x1904>
8000a2e6:	c3 d8       	rjmp	8000a360 <_vfprintf_r+0x1944>
8000a2e8:	2f 09       	sub	r9,-16
8000a2ea:	2f f8       	sub	r8,-1
8000a2ec:	4b 4b       	lddpc	r11,8000a3bc <_vfprintf_r+0x19a0>
8000a2ee:	31 0a       	mov	r10,16
8000a2f0:	fb 49 06 90 	st.w	sp[1680],r9
8000a2f4:	87 0b       	st.w	r3[0x0],r11
8000a2f6:	87 1a       	st.w	r3[0x4],r10
8000a2f8:	fb 48 06 8c 	st.w	sp[1676],r8
8000a2fc:	58 78       	cp.w	r8,7
8000a2fe:	e0 89 00 04 	brgt	8000a306 <_vfprintf_r+0x18ea>
8000a302:	2f 83       	sub	r3,-8
8000a304:	c0 b8       	rjmp	8000a31a <_vfprintf_r+0x18fe>
8000a306:	fa ca f9 78 	sub	r10,sp,-1672
8000a30a:	02 9b       	mov	r11,r1
8000a30c:	08 9c       	mov	r12,r4
8000a30e:	f0 1f 00 2b 	mcall	8000a3b8 <_vfprintf_r+0x199c>
8000a312:	e0 81 03 4a 	brne	8000a9a6 <_vfprintf_r+0x1f8a>
8000a316:	fa c3 f9 e0 	sub	r3,sp,-1568
8000a31a:	40 29       	lddsp	r9,sp[0x8]
8000a31c:	21 09       	sub	r9,16
8000a31e:	50 29       	stdsp	sp[0x8],r9
8000a320:	fa f9 06 90 	ld.w	r9,sp[1680]
8000a324:	fa f8 06 8c 	ld.w	r8,sp[1676]
8000a328:	4a 5a       	lddpc	r10,8000a3bc <_vfprintf_r+0x19a0>
8000a32a:	40 2e       	lddsp	lr,sp[0x8]
8000a32c:	59 0e       	cp.w	lr,16
8000a32e:	fe 99 ff dd 	brgt	8000a2e8 <_vfprintf_r+0x18cc>
8000a332:	1c 09       	add	r9,lr
8000a334:	2f f8       	sub	r8,-1
8000a336:	87 0a       	st.w	r3[0x0],r10
8000a338:	fb 49 06 90 	st.w	sp[1680],r9
8000a33c:	87 1e       	st.w	r3[0x4],lr
8000a33e:	fb 48 06 8c 	st.w	sp[1676],r8
8000a342:	58 78       	cp.w	r8,7
8000a344:	e0 89 00 04 	brgt	8000a34c <_vfprintf_r+0x1930>
8000a348:	2f 83       	sub	r3,-8
8000a34a:	c0 b8       	rjmp	8000a360 <_vfprintf_r+0x1944>
8000a34c:	fa ca f9 78 	sub	r10,sp,-1672
8000a350:	02 9b       	mov	r11,r1
8000a352:	08 9c       	mov	r12,r4
8000a354:	f0 1f 00 19 	mcall	8000a3b8 <_vfprintf_r+0x199c>
8000a358:	e0 81 03 27 	brne	8000a9a6 <_vfprintf_r+0x1f8a>
8000a35c:	fa c3 f9 e0 	sub	r3,sp,-1568
8000a360:	ed b5 00 08 	bld	r5,0x8
8000a364:	c0 b0       	breq	8000a37a <_vfprintf_r+0x195e>
8000a366:	fa f8 06 90 	ld.w	r8,sp[1680]
8000a36a:	87 12       	st.w	r3[0x4],r2
8000a36c:	87 06       	st.w	r3[0x0],r6
8000a36e:	f0 02 00 02 	add	r2,r8,r2
8000a372:	fb 42 06 90 	st.w	sp[1680],r2
8000a376:	e0 8f 01 db 	bral	8000a72c <_vfprintf_r+0x1d10>
8000a37a:	e0 40 00 65 	cp.w	r0,101
8000a37e:	e0 8a 01 dd 	brle	8000a738 <_vfprintf_r+0x1d1c>
8000a382:	30 08       	mov	r8,0
8000a384:	30 09       	mov	r9,0
8000a386:	40 5b       	lddsp	r11,sp[0x14]
8000a388:	40 7a       	lddsp	r10,sp[0x1c]
8000a38a:	f0 1f 00 0e 	mcall	8000a3c0 <_vfprintf_r+0x19a4>
8000a38e:	c7 e0       	breq	8000a48a <_vfprintf_r+0x1a6e>
8000a390:	fa f8 06 90 	ld.w	r8,sp[1680]
8000a394:	48 c9       	lddpc	r9,8000a3c4 <_vfprintf_r+0x19a8>
8000a396:	2f f8       	sub	r8,-1
8000a398:	87 09       	st.w	r3[0x0],r9
8000a39a:	fb 48 06 90 	st.w	sp[1680],r8
8000a39e:	30 19       	mov	r9,1
8000a3a0:	fa f8 06 8c 	ld.w	r8,sp[1676]
8000a3a4:	87 19       	st.w	r3[0x4],r9
8000a3a6:	2f f8       	sub	r8,-1
8000a3a8:	fb 48 06 8c 	st.w	sp[1676],r8
8000a3ac:	58 78       	cp.w	r8,7
8000a3ae:	e0 89 00 0d 	brgt	8000a3c8 <_vfprintf_r+0x19ac>
8000a3b2:	2f 83       	sub	r3,-8
8000a3b4:	c1 48       	rjmp	8000a3dc <_vfprintf_r+0x19c0>
8000a3b6:	00 00       	add	r0,r0
8000a3b8:	80 00       	ld.sh	r0,r0[0x0]
8000a3ba:	89 fc       	st.w	r4[0x3c],r12
8000a3bc:	80 00       	ld.sh	r0,r0[0x0]
8000a3be:	de 44       	*unknown*
8000a3c0:	80 00       	ld.sh	r0,r0[0x0]
8000a3c2:	c9 72       	brcc	8000a2f0 <_vfprintf_r+0x18d4>
8000a3c4:	80 00       	ld.sh	r0,r0[0x0]
8000a3c6:	de 30       	acall	0xe3
8000a3c8:	fa ca f9 78 	sub	r10,sp,-1672
8000a3cc:	02 9b       	mov	r11,r1
8000a3ce:	08 9c       	mov	r12,r4
8000a3d0:	f0 1f 00 78 	mcall	8000a5b0 <_vfprintf_r+0x1b94>
8000a3d4:	e0 81 02 e9 	brne	8000a9a6 <_vfprintf_r+0x1f8a>
8000a3d8:	fa c3 f9 e0 	sub	r3,sp,-1568
8000a3dc:	fa f8 06 ac 	ld.w	r8,sp[1708]
8000a3e0:	40 6c       	lddsp	r12,sp[0x18]
8000a3e2:	18 38       	cp.w	r8,r12
8000a3e4:	c0 55       	brlt	8000a3ee <_vfprintf_r+0x19d2>
8000a3e6:	ed b5 00 00 	bld	r5,0x0
8000a3ea:	e0 81 02 6d 	brne	8000a8c4 <_vfprintf_r+0x1ea8>
8000a3ee:	fa f8 06 90 	ld.w	r8,sp[1680]
8000a3f2:	2f f8       	sub	r8,-1
8000a3f4:	40 cb       	lddsp	r11,sp[0x30]
8000a3f6:	fb 48 06 90 	st.w	sp[1680],r8
8000a3fa:	30 19       	mov	r9,1
8000a3fc:	fa f8 06 8c 	ld.w	r8,sp[1676]
8000a400:	87 0b       	st.w	r3[0x0],r11
8000a402:	2f f8       	sub	r8,-1
8000a404:	87 19       	st.w	r3[0x4],r9
8000a406:	fb 48 06 8c 	st.w	sp[1676],r8
8000a40a:	58 78       	cp.w	r8,7
8000a40c:	e0 89 00 04 	brgt	8000a414 <_vfprintf_r+0x19f8>
8000a410:	2f 83       	sub	r3,-8
8000a412:	c0 b8       	rjmp	8000a428 <_vfprintf_r+0x1a0c>
8000a414:	fa ca f9 78 	sub	r10,sp,-1672
8000a418:	02 9b       	mov	r11,r1
8000a41a:	08 9c       	mov	r12,r4
8000a41c:	f0 1f 00 65 	mcall	8000a5b0 <_vfprintf_r+0x1b94>
8000a420:	e0 81 02 c3 	brne	8000a9a6 <_vfprintf_r+0x1f8a>
8000a424:	fa c3 f9 e0 	sub	r3,sp,-1568
8000a428:	40 66       	lddsp	r6,sp[0x18]
8000a42a:	20 16       	sub	r6,1
8000a42c:	58 06       	cp.w	r6,0
8000a42e:	e0 89 00 1d 	brgt	8000a468 <_vfprintf_r+0x1a4c>
8000a432:	e0 8f 02 49 	bral	8000a8c4 <_vfprintf_r+0x1ea8>
8000a436:	2f 09       	sub	r9,-16
8000a438:	2f f8       	sub	r8,-1
8000a43a:	fb 49 06 90 	st.w	sp[1680],r9
8000a43e:	87 02       	st.w	r3[0x0],r2
8000a440:	87 10       	st.w	r3[0x4],r0
8000a442:	fb 48 06 8c 	st.w	sp[1676],r8
8000a446:	58 78       	cp.w	r8,7
8000a448:	e0 89 00 04 	brgt	8000a450 <_vfprintf_r+0x1a34>
8000a44c:	2f 83       	sub	r3,-8
8000a44e:	c0 b8       	rjmp	8000a464 <_vfprintf_r+0x1a48>
8000a450:	fa ca f9 78 	sub	r10,sp,-1672
8000a454:	02 9b       	mov	r11,r1
8000a456:	08 9c       	mov	r12,r4
8000a458:	f0 1f 00 56 	mcall	8000a5b0 <_vfprintf_r+0x1b94>
8000a45c:	e0 81 02 a5 	brne	8000a9a6 <_vfprintf_r+0x1f8a>
8000a460:	fa c3 f9 e0 	sub	r3,sp,-1568
8000a464:	21 06       	sub	r6,16
8000a466:	c0 38       	rjmp	8000a46c <_vfprintf_r+0x1a50>
8000a468:	4d 32       	lddpc	r2,8000a5b4 <_vfprintf_r+0x1b98>
8000a46a:	31 00       	mov	r0,16
8000a46c:	fa f9 06 90 	ld.w	r9,sp[1680]
8000a470:	fa f8 06 8c 	ld.w	r8,sp[1676]
8000a474:	4d 0a       	lddpc	r10,8000a5b4 <_vfprintf_r+0x1b98>
8000a476:	59 06       	cp.w	r6,16
8000a478:	fe 99 ff df 	brgt	8000a436 <_vfprintf_r+0x1a1a>
8000a47c:	0c 09       	add	r9,r6
8000a47e:	87 0a       	st.w	r3[0x0],r10
8000a480:	fb 49 06 90 	st.w	sp[1680],r9
8000a484:	2f f8       	sub	r8,-1
8000a486:	87 16       	st.w	r3[0x4],r6
8000a488:	c5 59       	rjmp	8000a732 <_vfprintf_r+0x1d16>
8000a48a:	fa fa 06 ac 	ld.w	r10,sp[1708]
8000a48e:	58 0a       	cp.w	r10,0
8000a490:	e0 89 00 96 	brgt	8000a5bc <_vfprintf_r+0x1ba0>
8000a494:	fa f8 06 90 	ld.w	r8,sp[1680]
8000a498:	4c 89       	lddpc	r9,8000a5b8 <_vfprintf_r+0x1b9c>
8000a49a:	2f f8       	sub	r8,-1
8000a49c:	87 09       	st.w	r3[0x0],r9
8000a49e:	fb 48 06 90 	st.w	sp[1680],r8
8000a4a2:	30 19       	mov	r9,1
8000a4a4:	fa f8 06 8c 	ld.w	r8,sp[1676]
8000a4a8:	87 19       	st.w	r3[0x4],r9
8000a4aa:	2f f8       	sub	r8,-1
8000a4ac:	fb 48 06 8c 	st.w	sp[1676],r8
8000a4b0:	58 78       	cp.w	r8,7
8000a4b2:	e0 89 00 04 	brgt	8000a4ba <_vfprintf_r+0x1a9e>
8000a4b6:	2f 83       	sub	r3,-8
8000a4b8:	c0 b8       	rjmp	8000a4ce <_vfprintf_r+0x1ab2>
8000a4ba:	fa ca f9 78 	sub	r10,sp,-1672
8000a4be:	02 9b       	mov	r11,r1
8000a4c0:	08 9c       	mov	r12,r4
8000a4c2:	f0 1f 00 3c 	mcall	8000a5b0 <_vfprintf_r+0x1b94>
8000a4c6:	e0 81 02 70 	brne	8000a9a6 <_vfprintf_r+0x1f8a>
8000a4ca:	fa c3 f9 e0 	sub	r3,sp,-1568
8000a4ce:	fa f8 06 ac 	ld.w	r8,sp[1708]
8000a4d2:	58 08       	cp.w	r8,0
8000a4d4:	c0 81       	brne	8000a4e4 <_vfprintf_r+0x1ac8>
8000a4d6:	40 6a       	lddsp	r10,sp[0x18]
8000a4d8:	58 0a       	cp.w	r10,0
8000a4da:	c0 51       	brne	8000a4e4 <_vfprintf_r+0x1ac8>
8000a4dc:	ed b5 00 00 	bld	r5,0x0
8000a4e0:	e0 81 01 f2 	brne	8000a8c4 <_vfprintf_r+0x1ea8>
8000a4e4:	40 c9       	lddsp	r9,sp[0x30]
8000a4e6:	fa f8 06 90 	ld.w	r8,sp[1680]
8000a4ea:	2f f8       	sub	r8,-1
8000a4ec:	87 09       	st.w	r3[0x0],r9
8000a4ee:	fb 48 06 90 	st.w	sp[1680],r8
8000a4f2:	30 19       	mov	r9,1
8000a4f4:	fa f8 06 8c 	ld.w	r8,sp[1676]
8000a4f8:	87 19       	st.w	r3[0x4],r9
8000a4fa:	2f f8       	sub	r8,-1
8000a4fc:	fb 48 06 8c 	st.w	sp[1676],r8
8000a500:	58 78       	cp.w	r8,7
8000a502:	e0 89 00 04 	brgt	8000a50a <_vfprintf_r+0x1aee>
8000a506:	2f 83       	sub	r3,-8
8000a508:	c0 b8       	rjmp	8000a51e <_vfprintf_r+0x1b02>
8000a50a:	fa ca f9 78 	sub	r10,sp,-1672
8000a50e:	02 9b       	mov	r11,r1
8000a510:	08 9c       	mov	r12,r4
8000a512:	f0 1f 00 28 	mcall	8000a5b0 <_vfprintf_r+0x1b94>
8000a516:	e0 81 02 48 	brne	8000a9a6 <_vfprintf_r+0x1f8a>
8000a51a:	fa c3 f9 e0 	sub	r3,sp,-1568
8000a51e:	fa f2 06 ac 	ld.w	r2,sp[1708]
8000a522:	5c 32       	neg	r2
8000a524:	58 02       	cp.w	r2,0
8000a526:	e0 89 00 1d 	brgt	8000a560 <_vfprintf_r+0x1b44>
8000a52a:	c3 b8       	rjmp	8000a5a0 <_vfprintf_r+0x1b84>
8000a52c:	2f 09       	sub	r9,-16
8000a52e:	2f f8       	sub	r8,-1
8000a530:	31 0e       	mov	lr,16
8000a532:	fb 49 06 90 	st.w	sp[1680],r9
8000a536:	87 00       	st.w	r3[0x0],r0
8000a538:	87 1e       	st.w	r3[0x4],lr
8000a53a:	fb 48 06 8c 	st.w	sp[1676],r8
8000a53e:	58 78       	cp.w	r8,7
8000a540:	e0 89 00 04 	brgt	8000a548 <_vfprintf_r+0x1b2c>
8000a544:	2f 83       	sub	r3,-8
8000a546:	c0 b8       	rjmp	8000a55c <_vfprintf_r+0x1b40>
8000a548:	fa ca f9 78 	sub	r10,sp,-1672
8000a54c:	02 9b       	mov	r11,r1
8000a54e:	08 9c       	mov	r12,r4
8000a550:	f0 1f 00 18 	mcall	8000a5b0 <_vfprintf_r+0x1b94>
8000a554:	e0 81 02 29 	brne	8000a9a6 <_vfprintf_r+0x1f8a>
8000a558:	fa c3 f9 e0 	sub	r3,sp,-1568
8000a55c:	21 02       	sub	r2,16
8000a55e:	c0 28       	rjmp	8000a562 <_vfprintf_r+0x1b46>
8000a560:	49 50       	lddpc	r0,8000a5b4 <_vfprintf_r+0x1b98>
8000a562:	fa f9 06 90 	ld.w	r9,sp[1680]
8000a566:	fa f8 06 8c 	ld.w	r8,sp[1676]
8000a56a:	49 3a       	lddpc	r10,8000a5b4 <_vfprintf_r+0x1b98>
8000a56c:	59 02       	cp.w	r2,16
8000a56e:	fe 99 ff df 	brgt	8000a52c <_vfprintf_r+0x1b10>
8000a572:	04 09       	add	r9,r2
8000a574:	2f f8       	sub	r8,-1
8000a576:	87 0a       	st.w	r3[0x0],r10
8000a578:	fb 49 06 90 	st.w	sp[1680],r9
8000a57c:	87 12       	st.w	r3[0x4],r2
8000a57e:	fb 48 06 8c 	st.w	sp[1676],r8
8000a582:	58 78       	cp.w	r8,7
8000a584:	e0 89 00 04 	brgt	8000a58c <_vfprintf_r+0x1b70>
8000a588:	2f 83       	sub	r3,-8
8000a58a:	c0 b8       	rjmp	8000a5a0 <_vfprintf_r+0x1b84>
8000a58c:	fa ca f9 78 	sub	r10,sp,-1672
8000a590:	02 9b       	mov	r11,r1
8000a592:	08 9c       	mov	r12,r4
8000a594:	f0 1f 00 07 	mcall	8000a5b0 <_vfprintf_r+0x1b94>
8000a598:	e0 81 02 07 	brne	8000a9a6 <_vfprintf_r+0x1f8a>
8000a59c:	fa c3 f9 e0 	sub	r3,sp,-1568
8000a5a0:	40 6c       	lddsp	r12,sp[0x18]
8000a5a2:	fa f8 06 90 	ld.w	r8,sp[1680]
8000a5a6:	87 06       	st.w	r3[0x0],r6
8000a5a8:	87 1c       	st.w	r3[0x4],r12
8000a5aa:	18 08       	add	r8,r12
8000a5ac:	cb e8       	rjmp	8000a728 <_vfprintf_r+0x1d0c>
8000a5ae:	00 00       	add	r0,r0
8000a5b0:	80 00       	ld.sh	r0,r0[0x0]
8000a5b2:	89 fc       	st.w	r4[0x3c],r12
8000a5b4:	80 00       	ld.sh	r0,r0[0x0]
8000a5b6:	de 44       	*unknown*
8000a5b8:	80 00       	ld.sh	r0,r0[0x0]
8000a5ba:	de 30       	acall	0xe3
8000a5bc:	fa f9 06 90 	ld.w	r9,sp[1680]
8000a5c0:	fa f8 06 8c 	ld.w	r8,sp[1676]
8000a5c4:	40 6b       	lddsp	r11,sp[0x18]
8000a5c6:	16 3a       	cp.w	r10,r11
8000a5c8:	c6 d5       	brlt	8000a6a2 <_vfprintf_r+0x1c86>
8000a5ca:	16 09       	add	r9,r11
8000a5cc:	2f f8       	sub	r8,-1
8000a5ce:	87 06       	st.w	r3[0x0],r6
8000a5d0:	fb 49 06 90 	st.w	sp[1680],r9
8000a5d4:	87 1b       	st.w	r3[0x4],r11
8000a5d6:	fb 48 06 8c 	st.w	sp[1676],r8
8000a5da:	58 78       	cp.w	r8,7
8000a5dc:	e0 89 00 04 	brgt	8000a5e4 <_vfprintf_r+0x1bc8>
8000a5e0:	2f 83       	sub	r3,-8
8000a5e2:	c0 b8       	rjmp	8000a5f8 <_vfprintf_r+0x1bdc>
8000a5e4:	fa ca f9 78 	sub	r10,sp,-1672
8000a5e8:	02 9b       	mov	r11,r1
8000a5ea:	08 9c       	mov	r12,r4
8000a5ec:	f0 1f 00 6f 	mcall	8000a7a8 <_vfprintf_r+0x1d8c>
8000a5f0:	e0 81 01 db 	brne	8000a9a6 <_vfprintf_r+0x1f8a>
8000a5f4:	fa c3 f9 e0 	sub	r3,sp,-1568
8000a5f8:	fa f6 06 ac 	ld.w	r6,sp[1708]
8000a5fc:	40 6a       	lddsp	r10,sp[0x18]
8000a5fe:	14 16       	sub	r6,r10
8000a600:	58 06       	cp.w	r6,0
8000a602:	e0 89 00 1c 	brgt	8000a63a <_vfprintf_r+0x1c1e>
8000a606:	c3 b8       	rjmp	8000a67c <_vfprintf_r+0x1c60>
8000a608:	2f 09       	sub	r9,-16
8000a60a:	2f f8       	sub	r8,-1
8000a60c:	fb 49 06 90 	st.w	sp[1680],r9
8000a610:	87 02       	st.w	r3[0x0],r2
8000a612:	87 10       	st.w	r3[0x4],r0
8000a614:	fb 48 06 8c 	st.w	sp[1676],r8
8000a618:	58 78       	cp.w	r8,7
8000a61a:	e0 89 00 04 	brgt	8000a622 <_vfprintf_r+0x1c06>
8000a61e:	2f 83       	sub	r3,-8
8000a620:	c0 b8       	rjmp	8000a636 <_vfprintf_r+0x1c1a>
8000a622:	fa ca f9 78 	sub	r10,sp,-1672
8000a626:	02 9b       	mov	r11,r1
8000a628:	08 9c       	mov	r12,r4
8000a62a:	f0 1f 00 60 	mcall	8000a7a8 <_vfprintf_r+0x1d8c>
8000a62e:	e0 81 01 bc 	brne	8000a9a6 <_vfprintf_r+0x1f8a>
8000a632:	fa c3 f9 e0 	sub	r3,sp,-1568
8000a636:	21 06       	sub	r6,16
8000a638:	c0 38       	rjmp	8000a63e <_vfprintf_r+0x1c22>
8000a63a:	4d d2       	lddpc	r2,8000a7ac <_vfprintf_r+0x1d90>
8000a63c:	31 00       	mov	r0,16
8000a63e:	fa f9 06 90 	ld.w	r9,sp[1680]
8000a642:	fa f8 06 8c 	ld.w	r8,sp[1676]
8000a646:	4d aa       	lddpc	r10,8000a7ac <_vfprintf_r+0x1d90>
8000a648:	59 06       	cp.w	r6,16
8000a64a:	fe 99 ff df 	brgt	8000a608 <_vfprintf_r+0x1bec>
8000a64e:	0c 09       	add	r9,r6
8000a650:	2f f8       	sub	r8,-1
8000a652:	87 0a       	st.w	r3[0x0],r10
8000a654:	fb 49 06 90 	st.w	sp[1680],r9
8000a658:	87 16       	st.w	r3[0x4],r6
8000a65a:	fb 48 06 8c 	st.w	sp[1676],r8
8000a65e:	58 78       	cp.w	r8,7
8000a660:	e0 89 00 04 	brgt	8000a668 <_vfprintf_r+0x1c4c>
8000a664:	2f 83       	sub	r3,-8
8000a666:	c0 b8       	rjmp	8000a67c <_vfprintf_r+0x1c60>
8000a668:	fa ca f9 78 	sub	r10,sp,-1672
8000a66c:	02 9b       	mov	r11,r1
8000a66e:	08 9c       	mov	r12,r4
8000a670:	f0 1f 00 4e 	mcall	8000a7a8 <_vfprintf_r+0x1d8c>
8000a674:	e0 81 01 99 	brne	8000a9a6 <_vfprintf_r+0x1f8a>
8000a678:	fa c3 f9 e0 	sub	r3,sp,-1568
8000a67c:	ed b5 00 00 	bld	r5,0x0
8000a680:	e0 81 01 22 	brne	8000a8c4 <_vfprintf_r+0x1ea8>
8000a684:	40 c9       	lddsp	r9,sp[0x30]
8000a686:	fa f8 06 90 	ld.w	r8,sp[1680]
8000a68a:	2f f8       	sub	r8,-1
8000a68c:	87 09       	st.w	r3[0x0],r9
8000a68e:	fb 48 06 90 	st.w	sp[1680],r8
8000a692:	30 19       	mov	r9,1
8000a694:	fa f8 06 8c 	ld.w	r8,sp[1676]
8000a698:	87 19       	st.w	r3[0x4],r9
8000a69a:	2f f8       	sub	r8,-1
8000a69c:	fb 48 06 8c 	st.w	sp[1676],r8
8000a6a0:	c0 49       	rjmp	8000a8a8 <_vfprintf_r+0x1e8c>
8000a6a2:	14 09       	add	r9,r10
8000a6a4:	2f f8       	sub	r8,-1
8000a6a6:	fb 49 06 90 	st.w	sp[1680],r9
8000a6aa:	87 06       	st.w	r3[0x0],r6
8000a6ac:	87 1a       	st.w	r3[0x4],r10
8000a6ae:	fb 48 06 8c 	st.w	sp[1676],r8
8000a6b2:	58 78       	cp.w	r8,7
8000a6b4:	e0 89 00 04 	brgt	8000a6bc <_vfprintf_r+0x1ca0>
8000a6b8:	2f 83       	sub	r3,-8
8000a6ba:	c0 b8       	rjmp	8000a6d0 <_vfprintf_r+0x1cb4>
8000a6bc:	fa ca f9 78 	sub	r10,sp,-1672
8000a6c0:	02 9b       	mov	r11,r1
8000a6c2:	08 9c       	mov	r12,r4
8000a6c4:	f0 1f 00 39 	mcall	8000a7a8 <_vfprintf_r+0x1d8c>
8000a6c8:	e0 81 01 6f 	brne	8000a9a6 <_vfprintf_r+0x1f8a>
8000a6cc:	fa c3 f9 e0 	sub	r3,sp,-1568
8000a6d0:	40 c8       	lddsp	r8,sp[0x30]
8000a6d2:	87 08       	st.w	r3[0x0],r8
8000a6d4:	fa f8 06 90 	ld.w	r8,sp[1680]
8000a6d8:	2f f8       	sub	r8,-1
8000a6da:	30 19       	mov	r9,1
8000a6dc:	fb 48 06 90 	st.w	sp[1680],r8
8000a6e0:	87 19       	st.w	r3[0x4],r9
8000a6e2:	fa f8 06 8c 	ld.w	r8,sp[1676]
8000a6e6:	2f f8       	sub	r8,-1
8000a6e8:	fb 48 06 8c 	st.w	sp[1676],r8
8000a6ec:	fa f2 06 ac 	ld.w	r2,sp[1708]
8000a6f0:	58 78       	cp.w	r8,7
8000a6f2:	e0 89 00 04 	brgt	8000a6fa <_vfprintf_r+0x1cde>
8000a6f6:	2f 83       	sub	r3,-8
8000a6f8:	c0 b8       	rjmp	8000a70e <_vfprintf_r+0x1cf2>
8000a6fa:	fa ca f9 78 	sub	r10,sp,-1672
8000a6fe:	02 9b       	mov	r11,r1
8000a700:	08 9c       	mov	r12,r4
8000a702:	f0 1f 00 2a 	mcall	8000a7a8 <_vfprintf_r+0x1d8c>
8000a706:	e0 81 01 50 	brne	8000a9a6 <_vfprintf_r+0x1f8a>
8000a70a:	fa c3 f9 e0 	sub	r3,sp,-1568
8000a70e:	04 06       	add	r6,r2
8000a710:	fa f8 06 ac 	ld.w	r8,sp[1708]
8000a714:	87 06       	st.w	r3[0x0],r6
8000a716:	fa f9 06 90 	ld.w	r9,sp[1680]
8000a71a:	40 66       	lddsp	r6,sp[0x18]
8000a71c:	40 6e       	lddsp	lr,sp[0x18]
8000a71e:	10 16       	sub	r6,r8
8000a720:	f2 08 01 08 	sub	r8,r9,r8
8000a724:	87 16       	st.w	r3[0x4],r6
8000a726:	1c 08       	add	r8,lr
8000a728:	fb 48 06 90 	st.w	sp[1680],r8
8000a72c:	fa f8 06 8c 	ld.w	r8,sp[1676]
8000a730:	2f f8       	sub	r8,-1
8000a732:	fb 48 06 8c 	st.w	sp[1676],r8
8000a736:	cb 98       	rjmp	8000a8a8 <_vfprintf_r+0x1e8c>
8000a738:	40 6c       	lddsp	r12,sp[0x18]
8000a73a:	58 1c       	cp.w	r12,1
8000a73c:	e0 89 00 06 	brgt	8000a748 <_vfprintf_r+0x1d2c>
8000a740:	ed b5 00 00 	bld	r5,0x0
8000a744:	e0 81 00 87 	brne	8000a852 <_vfprintf_r+0x1e36>
8000a748:	fa f8 06 90 	ld.w	r8,sp[1680]
8000a74c:	2f f8       	sub	r8,-1
8000a74e:	30 19       	mov	r9,1
8000a750:	fb 48 06 90 	st.w	sp[1680],r8
8000a754:	87 06       	st.w	r3[0x0],r6
8000a756:	fa f8 06 8c 	ld.w	r8,sp[1676]
8000a75a:	87 19       	st.w	r3[0x4],r9
8000a75c:	2f f8       	sub	r8,-1
8000a75e:	fb 48 06 8c 	st.w	sp[1676],r8
8000a762:	58 78       	cp.w	r8,7
8000a764:	e0 89 00 04 	brgt	8000a76c <_vfprintf_r+0x1d50>
8000a768:	2f 83       	sub	r3,-8
8000a76a:	c0 b8       	rjmp	8000a780 <_vfprintf_r+0x1d64>
8000a76c:	fa ca f9 78 	sub	r10,sp,-1672
8000a770:	02 9b       	mov	r11,r1
8000a772:	08 9c       	mov	r12,r4
8000a774:	f0 1f 00 0d 	mcall	8000a7a8 <_vfprintf_r+0x1d8c>
8000a778:	e0 81 01 17 	brne	8000a9a6 <_vfprintf_r+0x1f8a>
8000a77c:	fa c3 f9 e0 	sub	r3,sp,-1568
8000a780:	fa f8 06 90 	ld.w	r8,sp[1680]
8000a784:	2f f8       	sub	r8,-1
8000a786:	40 cb       	lddsp	r11,sp[0x30]
8000a788:	fb 48 06 90 	st.w	sp[1680],r8
8000a78c:	30 19       	mov	r9,1
8000a78e:	fa f8 06 8c 	ld.w	r8,sp[1676]
8000a792:	87 0b       	st.w	r3[0x0],r11
8000a794:	2f f8       	sub	r8,-1
8000a796:	87 19       	st.w	r3[0x4],r9
8000a798:	fb 48 06 8c 	st.w	sp[1676],r8
8000a79c:	58 78       	cp.w	r8,7
8000a79e:	e0 89 00 09 	brgt	8000a7b0 <_vfprintf_r+0x1d94>
8000a7a2:	2f 83       	sub	r3,-8
8000a7a4:	c1 08       	rjmp	8000a7c4 <_vfprintf_r+0x1da8>
8000a7a6:	00 00       	add	r0,r0
8000a7a8:	80 00       	ld.sh	r0,r0[0x0]
8000a7aa:	89 fc       	st.w	r4[0x3c],r12
8000a7ac:	80 00       	ld.sh	r0,r0[0x0]
8000a7ae:	de 44       	*unknown*
8000a7b0:	fa ca f9 78 	sub	r10,sp,-1672
8000a7b4:	02 9b       	mov	r11,r1
8000a7b6:	08 9c       	mov	r12,r4
8000a7b8:	f0 1f 00 6f 	mcall	8000a974 <_vfprintf_r+0x1f58>
8000a7bc:	e0 81 00 f5 	brne	8000a9a6 <_vfprintf_r+0x1f8a>
8000a7c0:	fa c3 f9 e0 	sub	r3,sp,-1568
8000a7c4:	30 08       	mov	r8,0
8000a7c6:	30 09       	mov	r9,0
8000a7c8:	40 5b       	lddsp	r11,sp[0x14]
8000a7ca:	40 7a       	lddsp	r10,sp[0x1c]
8000a7cc:	f0 1f 00 6b 	mcall	8000a978 <_vfprintf_r+0x1f5c>
8000a7d0:	40 68       	lddsp	r8,sp[0x18]
8000a7d2:	20 18       	sub	r8,1
8000a7d4:	58 0c       	cp.w	r12,0
8000a7d6:	c0 d1       	brne	8000a7f0 <_vfprintf_r+0x1dd4>
8000a7d8:	2f f6       	sub	r6,-1
8000a7da:	87 18       	st.w	r3[0x4],r8
8000a7dc:	87 06       	st.w	r3[0x0],r6
8000a7de:	fa f6 06 90 	ld.w	r6,sp[1680]
8000a7e2:	10 06       	add	r6,r8
8000a7e4:	fa f8 06 8c 	ld.w	r8,sp[1676]
8000a7e8:	fb 46 06 90 	st.w	sp[1680],r6
8000a7ec:	2f f8       	sub	r8,-1
8000a7ee:	c2 f8       	rjmp	8000a84c <_vfprintf_r+0x1e30>
8000a7f0:	10 96       	mov	r6,r8
8000a7f2:	58 08       	cp.w	r8,0
8000a7f4:	e0 89 00 1c 	brgt	8000a82c <_vfprintf_r+0x1e10>
8000a7f8:	c4 98       	rjmp	8000a88a <_vfprintf_r+0x1e6e>
8000a7fa:	2f 09       	sub	r9,-16
8000a7fc:	2f f8       	sub	r8,-1
8000a7fe:	fb 49 06 90 	st.w	sp[1680],r9
8000a802:	87 02       	st.w	r3[0x0],r2
8000a804:	87 10       	st.w	r3[0x4],r0
8000a806:	fb 48 06 8c 	st.w	sp[1676],r8
8000a80a:	58 78       	cp.w	r8,7
8000a80c:	e0 89 00 04 	brgt	8000a814 <_vfprintf_r+0x1df8>
8000a810:	2f 83       	sub	r3,-8
8000a812:	c0 b8       	rjmp	8000a828 <_vfprintf_r+0x1e0c>
8000a814:	fa ca f9 78 	sub	r10,sp,-1672
8000a818:	02 9b       	mov	r11,r1
8000a81a:	08 9c       	mov	r12,r4
8000a81c:	f0 1f 00 56 	mcall	8000a974 <_vfprintf_r+0x1f58>
8000a820:	e0 81 00 c3 	brne	8000a9a6 <_vfprintf_r+0x1f8a>
8000a824:	fa c3 f9 e0 	sub	r3,sp,-1568
8000a828:	21 06       	sub	r6,16
8000a82a:	c0 38       	rjmp	8000a830 <_vfprintf_r+0x1e14>
8000a82c:	4d 42       	lddpc	r2,8000a97c <_vfprintf_r+0x1f60>
8000a82e:	31 00       	mov	r0,16
8000a830:	fa f9 06 90 	ld.w	r9,sp[1680]
8000a834:	fa f8 06 8c 	ld.w	r8,sp[1676]
8000a838:	4d 1a       	lddpc	r10,8000a97c <_vfprintf_r+0x1f60>
8000a83a:	59 06       	cp.w	r6,16
8000a83c:	fe 99 ff df 	brgt	8000a7fa <_vfprintf_r+0x1dde>
8000a840:	0c 09       	add	r9,r6
8000a842:	87 0a       	st.w	r3[0x0],r10
8000a844:	fb 49 06 90 	st.w	sp[1680],r9
8000a848:	2f f8       	sub	r8,-1
8000a84a:	87 16       	st.w	r3[0x4],r6
8000a84c:	fb 48 06 8c 	st.w	sp[1676],r8
8000a850:	c0 e8       	rjmp	8000a86c <_vfprintf_r+0x1e50>
8000a852:	fa f8 06 90 	ld.w	r8,sp[1680]
8000a856:	2f f8       	sub	r8,-1
8000a858:	30 19       	mov	r9,1
8000a85a:	fb 48 06 90 	st.w	sp[1680],r8
8000a85e:	87 06       	st.w	r3[0x0],r6
8000a860:	fa f8 06 8c 	ld.w	r8,sp[1676]
8000a864:	87 19       	st.w	r3[0x4],r9
8000a866:	2f f8       	sub	r8,-1
8000a868:	fb 48 06 8c 	st.w	sp[1676],r8
8000a86c:	58 78       	cp.w	r8,7
8000a86e:	e0 89 00 04 	brgt	8000a876 <_vfprintf_r+0x1e5a>
8000a872:	2f 83       	sub	r3,-8
8000a874:	c0 b8       	rjmp	8000a88a <_vfprintf_r+0x1e6e>
8000a876:	fa ca f9 78 	sub	r10,sp,-1672
8000a87a:	02 9b       	mov	r11,r1
8000a87c:	08 9c       	mov	r12,r4
8000a87e:	f0 1f 00 3e 	mcall	8000a974 <_vfprintf_r+0x1f58>
8000a882:	e0 81 00 92 	brne	8000a9a6 <_vfprintf_r+0x1f8a>
8000a886:	fa c3 f9 e0 	sub	r3,sp,-1568
8000a88a:	40 ea       	lddsp	r10,sp[0x38]
8000a88c:	fa f8 06 90 	ld.w	r8,sp[1680]
8000a890:	14 08       	add	r8,r10
8000a892:	fa c9 f9 64 	sub	r9,sp,-1692
8000a896:	fb 48 06 90 	st.w	sp[1680],r8
8000a89a:	87 1a       	st.w	r3[0x4],r10
8000a89c:	fa f8 06 8c 	ld.w	r8,sp[1676]
8000a8a0:	87 09       	st.w	r3[0x0],r9
8000a8a2:	2f f8       	sub	r8,-1
8000a8a4:	fb 48 06 8c 	st.w	sp[1676],r8
8000a8a8:	58 78       	cp.w	r8,7
8000a8aa:	e0 89 00 04 	brgt	8000a8b2 <_vfprintf_r+0x1e96>
8000a8ae:	2f 83       	sub	r3,-8
8000a8b0:	c0 a8       	rjmp	8000a8c4 <_vfprintf_r+0x1ea8>
8000a8b2:	fa ca f9 78 	sub	r10,sp,-1672
8000a8b6:	02 9b       	mov	r11,r1
8000a8b8:	08 9c       	mov	r12,r4
8000a8ba:	f0 1f 00 2f 	mcall	8000a974 <_vfprintf_r+0x1f58>
8000a8be:	c7 41       	brne	8000a9a6 <_vfprintf_r+0x1f8a>
8000a8c0:	fa c3 f9 e0 	sub	r3,sp,-1568
8000a8c4:	e2 15 00 04 	andl	r5,0x4,COH
8000a8c8:	c3 d0       	breq	8000a942 <_vfprintf_r+0x1f26>
8000a8ca:	40 86       	lddsp	r6,sp[0x20]
8000a8cc:	40 39       	lddsp	r9,sp[0xc]
8000a8ce:	12 16       	sub	r6,r9
8000a8d0:	58 06       	cp.w	r6,0
8000a8d2:	e0 89 00 1a 	brgt	8000a906 <_vfprintf_r+0x1eea>
8000a8d6:	c3 68       	rjmp	8000a942 <_vfprintf_r+0x1f26>
8000a8d8:	2f 09       	sub	r9,-16
8000a8da:	2f f8       	sub	r8,-1
8000a8dc:	fb 49 06 90 	st.w	sp[1680],r9
8000a8e0:	87 05       	st.w	r3[0x0],r5
8000a8e2:	87 12       	st.w	r3[0x4],r2
8000a8e4:	fb 48 06 8c 	st.w	sp[1676],r8
8000a8e8:	58 78       	cp.w	r8,7
8000a8ea:	e0 89 00 04 	brgt	8000a8f2 <_vfprintf_r+0x1ed6>
8000a8ee:	2f 83       	sub	r3,-8
8000a8f0:	c0 98       	rjmp	8000a902 <_vfprintf_r+0x1ee6>
8000a8f2:	00 9a       	mov	r10,r0
8000a8f4:	02 9b       	mov	r11,r1
8000a8f6:	08 9c       	mov	r12,r4
8000a8f8:	f0 1f 00 1f 	mcall	8000a974 <_vfprintf_r+0x1f58>
8000a8fc:	c5 51       	brne	8000a9a6 <_vfprintf_r+0x1f8a>
8000a8fe:	fa c3 f9 e0 	sub	r3,sp,-1568
8000a902:	21 06       	sub	r6,16
8000a904:	c0 58       	rjmp	8000a90e <_vfprintf_r+0x1ef2>
8000a906:	49 f5       	lddpc	r5,8000a980 <_vfprintf_r+0x1f64>
8000a908:	31 02       	mov	r2,16
8000a90a:	fa c0 f9 78 	sub	r0,sp,-1672
8000a90e:	fa f9 06 90 	ld.w	r9,sp[1680]
8000a912:	fa f8 06 8c 	ld.w	r8,sp[1676]
8000a916:	49 ba       	lddpc	r10,8000a980 <_vfprintf_r+0x1f64>
8000a918:	59 06       	cp.w	r6,16
8000a91a:	fe 99 ff df 	brgt	8000a8d8 <_vfprintf_r+0x1ebc>
8000a91e:	0c 09       	add	r9,r6
8000a920:	2f f8       	sub	r8,-1
8000a922:	87 0a       	st.w	r3[0x0],r10
8000a924:	87 16       	st.w	r3[0x4],r6
8000a926:	fb 49 06 90 	st.w	sp[1680],r9
8000a92a:	fb 48 06 8c 	st.w	sp[1676],r8
8000a92e:	58 78       	cp.w	r8,7
8000a930:	e0 8a 00 09 	brle	8000a942 <_vfprintf_r+0x1f26>
8000a934:	fa ca f9 78 	sub	r10,sp,-1672
8000a938:	02 9b       	mov	r11,r1
8000a93a:	08 9c       	mov	r12,r4
8000a93c:	f0 1f 00 0e 	mcall	8000a974 <_vfprintf_r+0x1f58>
8000a940:	c3 31       	brne	8000a9a6 <_vfprintf_r+0x1f8a>
8000a942:	40 bc       	lddsp	r12,sp[0x2c]
8000a944:	40 36       	lddsp	r6,sp[0xc]
8000a946:	40 8e       	lddsp	lr,sp[0x20]
8000a948:	ec 0e 0c 48 	max	r8,r6,lr
8000a94c:	10 0c       	add	r12,r8
8000a94e:	50 bc       	stdsp	sp[0x2c],r12
8000a950:	fa f8 06 90 	ld.w	r8,sp[1680]
8000a954:	58 08       	cp.w	r8,0
8000a956:	c0 80       	breq	8000a966 <_vfprintf_r+0x1f4a>
8000a958:	fa ca f9 78 	sub	r10,sp,-1672
8000a95c:	02 9b       	mov	r11,r1
8000a95e:	08 9c       	mov	r12,r4
8000a960:	f0 1f 00 05 	mcall	8000a974 <_vfprintf_r+0x1f58>
8000a964:	c2 11       	brne	8000a9a6 <_vfprintf_r+0x1f8a>
8000a966:	30 08       	mov	r8,0
8000a968:	fa c3 f9 e0 	sub	r3,sp,-1568
8000a96c:	fb 48 06 8c 	st.w	sp[1676],r8
8000a970:	fe 9f f0 e1 	bral	80008b32 <_vfprintf_r+0x116>
8000a974:	80 00       	ld.sh	r0,r0[0x0]
8000a976:	89 fc       	st.w	r4[0x3c],r12
8000a978:	80 00       	ld.sh	r0,r0[0x0]
8000a97a:	c9 72       	brcc	8000a8a8 <_vfprintf_r+0x1e8c>
8000a97c:	80 00       	ld.sh	r0,r0[0x0]
8000a97e:	de 44       	*unknown*
8000a980:	80 00       	ld.sh	r0,r0[0x0]
8000a982:	de 34       	*unknown*
8000a984:	08 95       	mov	r5,r4
8000a986:	fa f8 06 90 	ld.w	r8,sp[1680]
8000a98a:	58 08       	cp.w	r8,0
8000a98c:	c0 80       	breq	8000a99c <_vfprintf_r+0x1f80>
8000a98e:	08 9c       	mov	r12,r4
8000a990:	fa ca f9 78 	sub	r10,sp,-1672
8000a994:	02 9b       	mov	r11,r1
8000a996:	f0 1f 00 0a 	mcall	8000a9bc <_vfprintf_r+0x1fa0>
8000a99a:	c0 61       	brne	8000a9a6 <_vfprintf_r+0x1f8a>
8000a99c:	30 08       	mov	r8,0
8000a99e:	fb 48 06 8c 	st.w	sp[1676],r8
8000a9a2:	c0 28       	rjmp	8000a9a6 <_vfprintf_r+0x1f8a>
8000a9a4:	40 41       	lddsp	r1,sp[0x10]
8000a9a6:	82 68       	ld.sh	r8,r1[0xc]
8000a9a8:	ed b8 00 06 	bld	r8,0x6
8000a9ac:	c0 31       	brne	8000a9b2 <_vfprintf_r+0x1f96>
8000a9ae:	3f fb       	mov	r11,-1
8000a9b0:	50 bb       	stdsp	sp[0x2c],r11
8000a9b2:	40 bc       	lddsp	r12,sp[0x2c]
8000a9b4:	fe 3d f9 44 	sub	sp,-1724
8000a9b8:	d8 32       	popm	r0-r7,pc
8000a9ba:	00 00       	add	r0,r0
8000a9bc:	80 00       	ld.sh	r0,r0[0x0]
8000a9be:	89 fc       	st.w	r4[0x3c],r12

8000a9c0 <__swbuf_r>:
8000a9c0:	d4 21       	pushm	r4-r7,lr
8000a9c2:	16 97       	mov	r7,r11
8000a9c4:	14 96       	mov	r6,r10
8000a9c6:	18 95       	mov	r5,r12
8000a9c8:	58 0c       	cp.w	r12,0
8000a9ca:	c0 60       	breq	8000a9d6 <__swbuf_r+0x16>
8000a9cc:	78 68       	ld.w	r8,r12[0x18]
8000a9ce:	58 08       	cp.w	r8,0
8000a9d0:	c0 31       	brne	8000a9d6 <__swbuf_r+0x16>
8000a9d2:	f0 1f 00 25 	mcall	8000aa64 <__swbuf_r+0xa4>
8000a9d6:	4a 58       	lddpc	r8,8000aa68 <__swbuf_r+0xa8>
8000a9d8:	10 36       	cp.w	r6,r8
8000a9da:	c0 31       	brne	8000a9e0 <__swbuf_r+0x20>
8000a9dc:	6a 06       	ld.w	r6,r5[0x0]
8000a9de:	c0 a8       	rjmp	8000a9f2 <__swbuf_r+0x32>
8000a9e0:	4a 38       	lddpc	r8,8000aa6c <__swbuf_r+0xac>
8000a9e2:	10 36       	cp.w	r6,r8
8000a9e4:	c0 31       	brne	8000a9ea <__swbuf_r+0x2a>
8000a9e6:	6a 16       	ld.w	r6,r5[0x4]
8000a9e8:	c0 58       	rjmp	8000a9f2 <__swbuf_r+0x32>
8000a9ea:	4a 28       	lddpc	r8,8000aa70 <__swbuf_r+0xb0>
8000a9ec:	10 36       	cp.w	r6,r8
8000a9ee:	c0 21       	brne	8000a9f2 <__swbuf_r+0x32>
8000a9f0:	6a 26       	ld.w	r6,r5[0x8]
8000a9f2:	6c 68       	ld.w	r8,r6[0x18]
8000a9f4:	8d 28       	st.w	r6[0x8],r8
8000a9f6:	8c 68       	ld.sh	r8,r6[0xc]
8000a9f8:	ed b8 00 03 	bld	r8,0x3
8000a9fc:	c0 41       	brne	8000aa04 <__swbuf_r+0x44>
8000a9fe:	6c 48       	ld.w	r8,r6[0x10]
8000aa00:	58 08       	cp.w	r8,0
8000aa02:	c0 c1       	brne	8000aa1a <__swbuf_r+0x5a>
8000aa04:	0c 9b       	mov	r11,r6
8000aa06:	0a 9c       	mov	r12,r5
8000aa08:	f0 1f 00 1b 	mcall	8000aa74 <__swbuf_r+0xb4>
8000aa0c:	c0 70       	breq	8000aa1a <__swbuf_r+0x5a>
8000aa0e:	8c 68       	ld.sh	r8,r6[0xc]
8000aa10:	a7 a8       	sbr	r8,0x6
8000aa12:	ac 68       	st.h	r6[0xc],r8
8000aa14:	30 98       	mov	r8,9
8000aa16:	8b 38       	st.w	r5[0xc],r8
8000aa18:	c2 28       	rjmp	8000aa5c <__swbuf_r+0x9c>
8000aa1a:	6c 48       	ld.w	r8,r6[0x10]
8000aa1c:	6c 0c       	ld.w	r12,r6[0x0]
8000aa1e:	10 1c       	sub	r12,r8
8000aa20:	6c 58       	ld.w	r8,r6[0x14]
8000aa22:	10 3c       	cp.w	r12,r8
8000aa24:	c0 65       	brlt	8000aa30 <__swbuf_r+0x70>
8000aa26:	0c 9b       	mov	r11,r6
8000aa28:	0a 9c       	mov	r12,r5
8000aa2a:	f0 1f 00 14 	mcall	8000aa78 <__swbuf_r+0xb8>
8000aa2e:	c1 71       	brne	8000aa5c <__swbuf_r+0x9c>
8000aa30:	6c 28       	ld.w	r8,r6[0x8]
8000aa32:	20 18       	sub	r8,1
8000aa34:	8d 28       	st.w	r6[0x8],r8
8000aa36:	5c 57       	castu.b	r7
8000aa38:	6c 08       	ld.w	r8,r6[0x0]
8000aa3a:	10 c7       	st.b	r8++,r7
8000aa3c:	8d 08       	st.w	r6[0x0],r8
8000aa3e:	2f fc       	sub	r12,-1
8000aa40:	6c 58       	ld.w	r8,r6[0x14]
8000aa42:	10 3c       	cp.w	r12,r8
8000aa44:	c0 70       	breq	8000aa52 <__swbuf_r+0x92>
8000aa46:	58 a7       	cp.w	r7,10
8000aa48:	5f 08       	sreq	r8
8000aa4a:	8c 69       	ld.sh	r9,r6[0xc]
8000aa4c:	f3 e8 00 08 	and	r8,r9,r8
8000aa50:	c0 70       	breq	8000aa5e <__swbuf_r+0x9e>
8000aa52:	0c 9b       	mov	r11,r6
8000aa54:	0a 9c       	mov	r12,r5
8000aa56:	f0 1f 00 09 	mcall	8000aa78 <__swbuf_r+0xb8>
8000aa5a:	c0 20       	breq	8000aa5e <__swbuf_r+0x9e>
8000aa5c:	3f f7       	mov	r7,-1
8000aa5e:	0e 9c       	mov	r12,r7
8000aa60:	d8 22       	popm	r4-r7,pc
8000aa62:	00 00       	add	r0,r0
8000aa64:	80 00       	ld.sh	r0,r0[0x0]
8000aa66:	bb 18       	ld.d	r8,--sp
8000aa68:	80 00       	ld.sh	r0,r0[0x0]
8000aa6a:	df 64       	*unknown*
8000aa6c:	80 00       	ld.sh	r0,r0[0x0]
8000aa6e:	df 84       	*unknown*
8000aa70:	80 00       	ld.sh	r0,r0[0x0]
8000aa72:	df a4       	*unknown*
8000aa74:	80 00       	ld.sh	r0,r0[0x0]
8000aa76:	aa 7c       	st.h	r5[0xe],r12
8000aa78:	80 00       	ld.sh	r0,r0[0x0]
8000aa7a:	b9 40       	asr	r0,0x18

8000aa7c <__swsetup_r>:
8000aa7c:	d4 21       	pushm	r4-r7,lr
8000aa7e:	4b 38       	lddpc	r8,8000ab48 <__swsetup_r+0xcc>
8000aa80:	18 96       	mov	r6,r12
8000aa82:	16 97       	mov	r7,r11
8000aa84:	70 0c       	ld.w	r12,r8[0x0]
8000aa86:	58 0c       	cp.w	r12,0
8000aa88:	c0 60       	breq	8000aa94 <__swsetup_r+0x18>
8000aa8a:	78 68       	ld.w	r8,r12[0x18]
8000aa8c:	58 08       	cp.w	r8,0
8000aa8e:	c0 31       	brne	8000aa94 <__swsetup_r+0x18>
8000aa90:	f0 1f 00 2f 	mcall	8000ab4c <__swsetup_r+0xd0>
8000aa94:	4a f8       	lddpc	r8,8000ab50 <__swsetup_r+0xd4>
8000aa96:	10 37       	cp.w	r7,r8
8000aa98:	c0 51       	brne	8000aaa2 <__swsetup_r+0x26>
8000aa9a:	4a c8       	lddpc	r8,8000ab48 <__swsetup_r+0xcc>
8000aa9c:	70 08       	ld.w	r8,r8[0x0]
8000aa9e:	70 07       	ld.w	r7,r8[0x0]
8000aaa0:	c0 e8       	rjmp	8000aabc <__swsetup_r+0x40>
8000aaa2:	4a d8       	lddpc	r8,8000ab54 <__swsetup_r+0xd8>
8000aaa4:	10 37       	cp.w	r7,r8
8000aaa6:	c0 51       	brne	8000aab0 <__swsetup_r+0x34>
8000aaa8:	4a 88       	lddpc	r8,8000ab48 <__swsetup_r+0xcc>
8000aaaa:	70 08       	ld.w	r8,r8[0x0]
8000aaac:	70 17       	ld.w	r7,r8[0x4]
8000aaae:	c0 78       	rjmp	8000aabc <__swsetup_r+0x40>
8000aab0:	4a a8       	lddpc	r8,8000ab58 <__swsetup_r+0xdc>
8000aab2:	10 37       	cp.w	r7,r8
8000aab4:	c0 41       	brne	8000aabc <__swsetup_r+0x40>
8000aab6:	4a 58       	lddpc	r8,8000ab48 <__swsetup_r+0xcc>
8000aab8:	70 08       	ld.w	r8,r8[0x0]
8000aaba:	70 27       	ld.w	r7,r8[0x8]
8000aabc:	8e 68       	ld.sh	r8,r7[0xc]
8000aabe:	ed b8 00 03 	bld	r8,0x3
8000aac2:	c1 e0       	breq	8000aafe <__swsetup_r+0x82>
8000aac4:	ed b8 00 04 	bld	r8,0x4
8000aac8:	c3 e1       	brne	8000ab44 <__swsetup_r+0xc8>
8000aaca:	ed b8 00 02 	bld	r8,0x2
8000aace:	c1 51       	brne	8000aaf8 <__swsetup_r+0x7c>
8000aad0:	6e db       	ld.w	r11,r7[0x34]
8000aad2:	58 0b       	cp.w	r11,0
8000aad4:	c0 a0       	breq	8000aae8 <__swsetup_r+0x6c>
8000aad6:	ee c8 ff bc 	sub	r8,r7,-68
8000aada:	10 3b       	cp.w	r11,r8
8000aadc:	c0 40       	breq	8000aae4 <__swsetup_r+0x68>
8000aade:	0c 9c       	mov	r12,r6
8000aae0:	f0 1f 00 1f 	mcall	8000ab5c <__swsetup_r+0xe0>
8000aae4:	30 08       	mov	r8,0
8000aae6:	8f d8       	st.w	r7[0x34],r8
8000aae8:	8e 68       	ld.sh	r8,r7[0xc]
8000aaea:	e0 18 ff db 	andl	r8,0xffdb
8000aaee:	ae 68       	st.h	r7[0xc],r8
8000aaf0:	30 08       	mov	r8,0
8000aaf2:	8f 18       	st.w	r7[0x4],r8
8000aaf4:	6e 48       	ld.w	r8,r7[0x10]
8000aaf6:	8f 08       	st.w	r7[0x0],r8
8000aaf8:	8e 68       	ld.sh	r8,r7[0xc]
8000aafa:	a3 b8       	sbr	r8,0x3
8000aafc:	ae 68       	st.h	r7[0xc],r8
8000aafe:	6e 48       	ld.w	r8,r7[0x10]
8000ab00:	58 08       	cp.w	r8,0
8000ab02:	c0 b1       	brne	8000ab18 <__swsetup_r+0x9c>
8000ab04:	8e 68       	ld.sh	r8,r7[0xc]
8000ab06:	e2 18 02 80 	andl	r8,0x280,COH
8000ab0a:	e0 48 02 00 	cp.w	r8,512
8000ab0e:	c0 50       	breq	8000ab18 <__swsetup_r+0x9c>
8000ab10:	0c 9c       	mov	r12,r6
8000ab12:	0e 9b       	mov	r11,r7
8000ab14:	f0 1f 00 13 	mcall	8000ab60 <__swsetup_r+0xe4>
8000ab18:	8e 69       	ld.sh	r9,r7[0xc]
8000ab1a:	f1 d9 c0 01 	bfextu	r8,r9,0x0,0x1
8000ab1e:	c0 70       	breq	8000ab2c <__swsetup_r+0xb0>
8000ab20:	30 08       	mov	r8,0
8000ab22:	8f 28       	st.w	r7[0x8],r8
8000ab24:	6e 58       	ld.w	r8,r7[0x14]
8000ab26:	5c 38       	neg	r8
8000ab28:	8f 68       	st.w	r7[0x18],r8
8000ab2a:	c0 68       	rjmp	8000ab36 <__swsetup_r+0xba>
8000ab2c:	ed b9 00 01 	bld	r9,0x1
8000ab30:	c0 20       	breq	8000ab34 <__swsetup_r+0xb8>
8000ab32:	6e 58       	ld.w	r8,r7[0x14]
8000ab34:	8f 28       	st.w	r7[0x8],r8
8000ab36:	6e 48       	ld.w	r8,r7[0x10]
8000ab38:	58 08       	cp.w	r8,0
8000ab3a:	c0 61       	brne	8000ab46 <__swsetup_r+0xca>
8000ab3c:	8e 68       	ld.sh	r8,r7[0xc]
8000ab3e:	ed b8 00 07 	bld	r8,0x7
8000ab42:	c0 21       	brne	8000ab46 <__swsetup_r+0xca>
8000ab44:	dc 2a       	popm	r4-r7,pc,r12=-1
8000ab46:	d8 2a       	popm	r4-r7,pc,r12=0
8000ab48:	00 00       	add	r0,r0
8000ab4a:	01 c4       	ld.ub	r4,r0[0x4]
8000ab4c:	80 00       	ld.sh	r0,r0[0x0]
8000ab4e:	bb 18       	ld.d	r8,--sp
8000ab50:	80 00       	ld.sh	r0,r0[0x0]
8000ab52:	df 64       	*unknown*
8000ab54:	80 00       	ld.sh	r0,r0[0x0]
8000ab56:	df 84       	*unknown*
8000ab58:	80 00       	ld.sh	r0,r0[0x0]
8000ab5a:	df a4       	*unknown*
8000ab5c:	80 00       	ld.sh	r0,r0[0x0]
8000ab5e:	bc 70       	st.h	lr[0xe],r0
8000ab60:	80 00       	ld.sh	r0,r0[0x0]
8000ab62:	be 68       	st.h	pc[0xc],r8

8000ab64 <quorem>:
8000ab64:	d4 31       	pushm	r0-r7,lr
8000ab66:	20 2d       	sub	sp,8
8000ab68:	18 97       	mov	r7,r12
8000ab6a:	78 48       	ld.w	r8,r12[0x10]
8000ab6c:	76 46       	ld.w	r6,r11[0x10]
8000ab6e:	0c 38       	cp.w	r8,r6
8000ab70:	c0 34       	brge	8000ab76 <quorem+0x12>
8000ab72:	30 0c       	mov	r12,0
8000ab74:	c8 58       	rjmp	8000ac7e <quorem+0x11a>
8000ab76:	ec c2 ff fc 	sub	r2,r6,-4
8000ab7a:	f6 c3 ff ec 	sub	r3,r11,-20
8000ab7e:	f6 02 03 29 	ld.w	r9,r11[r2<<0x2]
8000ab82:	f8 02 03 2c 	ld.w	r12,r12[r2<<0x2]
8000ab86:	2f f9       	sub	r9,-1
8000ab88:	20 16       	sub	r6,1
8000ab8a:	f8 09 0d 08 	divu	r8,r12,r9
8000ab8e:	f6 02 00 22 	add	r2,r11,r2<<0x2
8000ab92:	ee c4 ff ec 	sub	r4,r7,-20
8000ab96:	10 95       	mov	r5,r8
8000ab98:	58 08       	cp.w	r8,0
8000ab9a:	c4 10       	breq	8000ac1c <quorem+0xb8>
8000ab9c:	30 09       	mov	r9,0
8000ab9e:	06 9a       	mov	r10,r3
8000aba0:	08 98       	mov	r8,r4
8000aba2:	12 91       	mov	r1,r9
8000aba4:	50 0b       	stdsp	sp[0x0],r11
8000aba6:	70 0e       	ld.w	lr,r8[0x0]
8000aba8:	b1 8e       	lsr	lr,0x10
8000abaa:	50 1e       	stdsp	sp[0x4],lr
8000abac:	15 0e       	ld.w	lr,r10++
8000abae:	fc 00 16 10 	lsr	r0,lr,0x10
8000abb2:	fd de c0 10 	bfextu	lr,lr,0x0,0x10
8000abb6:	ea 0e 03 41 	mac	r1,r5,lr
8000abba:	fd d1 c0 10 	bfextu	lr,r1,0x0,0x10
8000abbe:	b1 81       	lsr	r1,0x10
8000abc0:	40 1b       	lddsp	r11,sp[0x4]
8000abc2:	ea 00 02 40 	mul	r0,r5,r0
8000abc6:	e2 00 00 00 	add	r0,r1,r0
8000abca:	e3 d0 c0 10 	bfextu	r1,r0,0x0,0x10
8000abce:	02 1b       	sub	r11,r1
8000abd0:	50 1b       	stdsp	sp[0x4],r11
8000abd2:	70 0b       	ld.w	r11,r8[0x0]
8000abd4:	e3 db c0 10 	bfextu	r1,r11,0x0,0x10
8000abd8:	02 09       	add	r9,r1
8000abda:	f2 0e 01 0e 	sub	lr,r9,lr
8000abde:	b0 1e       	st.h	r8[0x2],lr
8000abe0:	fc 09 14 10 	asr	r9,lr,0x10
8000abe4:	40 1e       	lddsp	lr,sp[0x4]
8000abe6:	fc 09 00 09 	add	r9,lr,r9
8000abea:	b0 09       	st.h	r8[0x0],r9
8000abec:	e0 01 16 10 	lsr	r1,r0,0x10
8000abf0:	2f c8       	sub	r8,-4
8000abf2:	b1 49       	asr	r9,0x10
8000abf4:	04 3a       	cp.w	r10,r2
8000abf6:	fe 98 ff d8 	brls	8000aba6 <quorem+0x42>
8000abfa:	40 0b       	lddsp	r11,sp[0x0]
8000abfc:	58 0c       	cp.w	r12,0
8000abfe:	c0 f1       	brne	8000ac1c <quorem+0xb8>
8000ac00:	ec c8 ff fb 	sub	r8,r6,-5
8000ac04:	ee 08 00 28 	add	r8,r7,r8<<0x2
8000ac08:	c0 28       	rjmp	8000ac0c <quorem+0xa8>
8000ac0a:	20 16       	sub	r6,1
8000ac0c:	20 48       	sub	r8,4
8000ac0e:	08 38       	cp.w	r8,r4
8000ac10:	e0 88 00 05 	brls	8000ac1a <quorem+0xb6>
8000ac14:	70 09       	ld.w	r9,r8[0x0]
8000ac16:	58 09       	cp.w	r9,0
8000ac18:	cf 90       	breq	8000ac0a <quorem+0xa6>
8000ac1a:	8f 46       	st.w	r7[0x10],r6
8000ac1c:	0e 9c       	mov	r12,r7
8000ac1e:	f0 1f 00 1a 	mcall	8000ac84 <quorem+0x120>
8000ac22:	c2 d5       	brlt	8000ac7c <quorem+0x118>
8000ac24:	2f f5       	sub	r5,-1
8000ac26:	08 98       	mov	r8,r4
8000ac28:	30 09       	mov	r9,0
8000ac2a:	07 0b       	ld.w	r11,r3++
8000ac2c:	f6 0a 16 10 	lsr	r10,r11,0x10
8000ac30:	70 0c       	ld.w	r12,r8[0x0]
8000ac32:	f7 db c0 10 	bfextu	r11,r11,0x0,0x10
8000ac36:	f8 0e 16 10 	lsr	lr,r12,0x10
8000ac3a:	14 1e       	sub	lr,r10
8000ac3c:	f5 dc c0 10 	bfextu	r10,r12,0x0,0x10
8000ac40:	16 1a       	sub	r10,r11
8000ac42:	12 0a       	add	r10,r9
8000ac44:	b0 1a       	st.h	r8[0x2],r10
8000ac46:	b1 4a       	asr	r10,0x10
8000ac48:	fc 0a 00 09 	add	r9,lr,r10
8000ac4c:	b0 09       	st.h	r8[0x0],r9
8000ac4e:	2f c8       	sub	r8,-4
8000ac50:	b1 49       	asr	r9,0x10
8000ac52:	04 33       	cp.w	r3,r2
8000ac54:	fe 98 ff eb 	brls	8000ac2a <quorem+0xc6>
8000ac58:	ec c8 ff fb 	sub	r8,r6,-5
8000ac5c:	ee 08 03 29 	ld.w	r9,r7[r8<<0x2]
8000ac60:	58 09       	cp.w	r9,0
8000ac62:	c0 d1       	brne	8000ac7c <quorem+0x118>
8000ac64:	ee 08 00 28 	add	r8,r7,r8<<0x2
8000ac68:	c0 28       	rjmp	8000ac6c <quorem+0x108>
8000ac6a:	20 16       	sub	r6,1
8000ac6c:	20 48       	sub	r8,4
8000ac6e:	08 38       	cp.w	r8,r4
8000ac70:	e0 88 00 05 	brls	8000ac7a <quorem+0x116>
8000ac74:	70 09       	ld.w	r9,r8[0x0]
8000ac76:	58 09       	cp.w	r9,0
8000ac78:	cf 90       	breq	8000ac6a <quorem+0x106>
8000ac7a:	8f 46       	st.w	r7[0x10],r6
8000ac7c:	0a 9c       	mov	r12,r5
8000ac7e:	2f ed       	sub	sp,-8
8000ac80:	d8 32       	popm	r0-r7,pc
8000ac82:	00 00       	add	r0,r0
8000ac84:	80 00       	ld.sh	r0,r0[0x0]
8000ac86:	c0 38       	rjmp	8000ac8c <_dtoa_r+0x4>

8000ac88 <_dtoa_r>:
8000ac88:	d4 31       	pushm	r0-r7,lr
8000ac8a:	21 ad       	sub	sp,104
8000ac8c:	fa c4 ff 74 	sub	r4,sp,-140
8000ac90:	18 97       	mov	r7,r12
8000ac92:	16 95       	mov	r5,r11
8000ac94:	68 2c       	ld.w	r12,r4[0x8]
8000ac96:	50 c9       	stdsp	sp[0x30],r9
8000ac98:	68 16       	ld.w	r6,r4[0x4]
8000ac9a:	68 09       	ld.w	r9,r4[0x0]
8000ac9c:	50 e8       	stdsp	sp[0x38],r8
8000ac9e:	14 94       	mov	r4,r10
8000aca0:	51 2c       	stdsp	sp[0x48],r12
8000aca2:	fa e5 00 08 	st.d	sp[8],r4
8000aca6:	51 59       	stdsp	sp[0x54],r9
8000aca8:	6e 95       	ld.w	r5,r7[0x24]
8000acaa:	58 05       	cp.w	r5,0
8000acac:	c0 91       	brne	8000acbe <_dtoa_r+0x36>
8000acae:	31 0c       	mov	r12,16
8000acb0:	f0 1f 00 48 	mcall	8000add0 <_dtoa_r+0x148>
8000acb4:	99 35       	st.w	r12[0xc],r5
8000acb6:	8f 9c       	st.w	r7[0x24],r12
8000acb8:	99 15       	st.w	r12[0x4],r5
8000acba:	99 25       	st.w	r12[0x8],r5
8000acbc:	99 05       	st.w	r12[0x0],r5
8000acbe:	6e 99       	ld.w	r9,r7[0x24]
8000acc0:	72 08       	ld.w	r8,r9[0x0]
8000acc2:	58 08       	cp.w	r8,0
8000acc4:	c0 f0       	breq	8000ace2 <_dtoa_r+0x5a>
8000acc6:	72 1a       	ld.w	r10,r9[0x4]
8000acc8:	91 1a       	st.w	r8[0x4],r10
8000acca:	30 1a       	mov	r10,1
8000accc:	72 19       	ld.w	r9,r9[0x4]
8000acce:	f4 09 09 49 	lsl	r9,r10,r9
8000acd2:	10 9b       	mov	r11,r8
8000acd4:	91 29       	st.w	r8[0x8],r9
8000acd6:	0e 9c       	mov	r12,r7
8000acd8:	f0 1f 00 3f 	mcall	8000add4 <_dtoa_r+0x14c>
8000acdc:	6e 98       	ld.w	r8,r7[0x24]
8000acde:	30 09       	mov	r9,0
8000ace0:	91 09       	st.w	r8[0x0],r9
8000ace2:	40 28       	lddsp	r8,sp[0x8]
8000ace4:	10 94       	mov	r4,r8
8000ace6:	58 08       	cp.w	r8,0
8000ace8:	c0 64       	brge	8000acf4 <_dtoa_r+0x6c>
8000acea:	f1 d8 c0 1f 	bfextu	r8,r8,0x0,0x1f
8000acee:	50 28       	stdsp	sp[0x8],r8
8000acf0:	30 18       	mov	r8,1
8000acf2:	c0 28       	rjmp	8000acf6 <_dtoa_r+0x6e>
8000acf4:	30 08       	mov	r8,0
8000acf6:	8d 08       	st.w	r6[0x0],r8
8000acf8:	30 0c       	mov	r12,0
8000acfa:	ea 1c 7f f0 	orh	r12,0x7ff0
8000acfe:	40 26       	lddsp	r6,sp[0x8]
8000ad00:	0c 98       	mov	r8,r6
8000ad02:	e6 18 7f f0 	andh	r8,0x7ff0,COH
8000ad06:	18 38       	cp.w	r8,r12
8000ad08:	c1 d1       	brne	8000ad42 <_dtoa_r+0xba>
8000ad0a:	e0 68 27 0f 	mov	r8,9999
8000ad0e:	41 5b       	lddsp	r11,sp[0x54]
8000ad10:	97 08       	st.w	r11[0x0],r8
8000ad12:	40 3a       	lddsp	r10,sp[0xc]
8000ad14:	58 0a       	cp.w	r10,0
8000ad16:	c0 61       	brne	8000ad22 <_dtoa_r+0x9a>
8000ad18:	ed d6 c0 14 	bfextu	r6,r6,0x0,0x14
8000ad1c:	c0 31       	brne	8000ad22 <_dtoa_r+0x9a>
8000ad1e:	4a fc       	lddpc	r12,8000add8 <_dtoa_r+0x150>
8000ad20:	c0 28       	rjmp	8000ad24 <_dtoa_r+0x9c>
8000ad22:	4a fc       	lddpc	r12,8000addc <_dtoa_r+0x154>
8000ad24:	41 29       	lddsp	r9,sp[0x48]
8000ad26:	58 09       	cp.w	r9,0
8000ad28:	e0 80 05 ec 	breq	8000b900 <_dtoa_r+0xc78>
8000ad2c:	f8 c8 ff fd 	sub	r8,r12,-3
8000ad30:	f8 c9 ff f8 	sub	r9,r12,-8
8000ad34:	11 8b       	ld.ub	r11,r8[0x0]
8000ad36:	30 0a       	mov	r10,0
8000ad38:	f4 0b 18 00 	cp.b	r11,r10
8000ad3c:	f2 08 17 10 	movne	r8,r9
8000ad40:	c1 68       	rjmp	8000ad6c <_dtoa_r+0xe4>
8000ad42:	fa ea 00 08 	ld.d	r10,sp[8]
8000ad46:	30 08       	mov	r8,0
8000ad48:	fa eb 00 3c 	st.d	sp[60],r10
8000ad4c:	30 09       	mov	r9,0
8000ad4e:	f0 1f 00 25 	mcall	8000ade0 <_dtoa_r+0x158>
8000ad52:	c1 10       	breq	8000ad74 <_dtoa_r+0xec>
8000ad54:	30 18       	mov	r8,1
8000ad56:	41 5a       	lddsp	r10,sp[0x54]
8000ad58:	95 08       	st.w	r10[0x0],r8
8000ad5a:	41 29       	lddsp	r9,sp[0x48]
8000ad5c:	4a 28       	lddpc	r8,8000ade4 <_dtoa_r+0x15c>
8000ad5e:	58 09       	cp.w	r9,0
8000ad60:	c0 41       	brne	8000ad68 <_dtoa_r+0xe0>
8000ad62:	10 9c       	mov	r12,r8
8000ad64:	e0 8f 05 ce 	bral	8000b900 <_dtoa_r+0xc78>
8000ad68:	10 9c       	mov	r12,r8
8000ad6a:	2f f8       	sub	r8,-1
8000ad6c:	41 25       	lddsp	r5,sp[0x48]
8000ad6e:	8b 08       	st.w	r5[0x0],r8
8000ad70:	e0 8f 05 c8 	bral	8000b900 <_dtoa_r+0xc78>
8000ad74:	fa c8 ff 9c 	sub	r8,sp,-100
8000ad78:	fa c9 ff a0 	sub	r9,sp,-96
8000ad7c:	fa ea 00 3c 	ld.d	r10,sp[60]
8000ad80:	0e 9c       	mov	r12,r7
8000ad82:	eb d6 c2 8b 	bfextu	r5,r6,0x14,0xb
8000ad86:	f0 1f 00 19 	mcall	8000ade8 <_dtoa_r+0x160>
8000ad8a:	18 93       	mov	r3,r12
8000ad8c:	58 05       	cp.w	r5,0
8000ad8e:	c0 d0       	breq	8000ada8 <_dtoa_r+0x120>
8000ad90:	fa ea 00 3c 	ld.d	r10,sp[60]
8000ad94:	30 04       	mov	r4,0
8000ad96:	f1 db c0 14 	bfextu	r8,r11,0x0,0x14
8000ad9a:	ea c5 03 ff 	sub	r5,r5,1023
8000ad9e:	10 9b       	mov	r11,r8
8000ada0:	51 74       	stdsp	sp[0x5c],r4
8000ada2:	ea 1b 3f f0 	orh	r11,0x3ff0
8000ada6:	c3 38       	rjmp	8000ae0c <_dtoa_r+0x184>
8000ada8:	41 88       	lddsp	r8,sp[0x60]
8000adaa:	41 9c       	lddsp	r12,sp[0x64]
8000adac:	10 0c       	add	r12,r8
8000adae:	f8 c5 fb ce 	sub	r5,r12,-1074
8000adb2:	e0 45 00 20 	cp.w	r5,32
8000adb6:	e0 8a 00 1b 	brle	8000adec <_dtoa_r+0x164>
8000adba:	f8 cc fb ee 	sub	r12,r12,-1042
8000adbe:	40 3b       	lddsp	r11,sp[0xc]
8000adc0:	ea 08 11 40 	rsub	r8,r5,64
8000adc4:	f6 0c 0a 4c 	lsr	r12,r11,r12
8000adc8:	ec 08 09 46 	lsl	r6,r6,r8
8000adcc:	0c 4c       	or	r12,r6
8000adce:	c1 48       	rjmp	8000adf6 <_dtoa_r+0x16e>
8000add0:	80 00       	ld.sh	r0,r0[0x0]
8000add2:	79 e8       	ld.w	r8,r12[0x78]
8000add4:	80 00       	ld.sh	r0,r0[0x0]
8000add6:	c0 6c       	rcall	8000ade2 <_dtoa_r+0x15a>
8000add8:	80 00       	ld.sh	r0,r0[0x0]
8000adda:	df 54       	*unknown*
8000addc:	80 00       	ld.sh	r0,r0[0x0]
8000adde:	df 60       	acall	0xf6
8000ade0:	80 00       	ld.sh	r0,r0[0x0]
8000ade2:	c9 72       	brcc	8000ad10 <_dtoa_r+0x88>
8000ade4:	80 00       	ld.sh	r0,r0[0x0]
8000ade6:	de 30       	acall	0xe3
8000ade8:	80 00       	ld.sh	r0,r0[0x0]
8000adea:	c1 1c       	rcall	8000ae0c <_dtoa_r+0x184>
8000adec:	ea 0c 11 20 	rsub	r12,r5,32
8000adf0:	40 3a       	lddsp	r10,sp[0xc]
8000adf2:	f4 0c 09 4c 	lsl	r12,r10,r12
8000adf6:	f0 1f 00 6a 	mcall	8000af9c <_dtoa_r+0x314>
8000adfa:	30 08       	mov	r8,0
8000adfc:	ea 18 fe 10 	orh	r8,0xfe10
8000ae00:	30 19       	mov	r9,1
8000ae02:	ea c5 04 33 	sub	r5,r5,1075
8000ae06:	f0 0b 00 0b 	add	r11,r8,r11
8000ae0a:	51 79       	stdsp	sp[0x5c],r9
8000ae0c:	30 08       	mov	r8,0
8000ae0e:	30 09       	mov	r9,0
8000ae10:	ea 19 3f f8 	orh	r9,0x3ff8
8000ae14:	f0 1f 00 63 	mcall	8000afa0 <_dtoa_r+0x318>
8000ae18:	e0 68 43 61 	mov	r8,17249
8000ae1c:	ea 18 63 6f 	orh	r8,0x636f
8000ae20:	e0 69 87 a7 	mov	r9,34727
8000ae24:	ea 19 3f d2 	orh	r9,0x3fd2
8000ae28:	f0 1f 00 5f 	mcall	8000afa4 <_dtoa_r+0x31c>
8000ae2c:	e0 68 c8 b3 	mov	r8,51379
8000ae30:	ea 18 8b 60 	orh	r8,0x8b60
8000ae34:	e0 69 8a 28 	mov	r9,35368
8000ae38:	ea 19 3f c6 	orh	r9,0x3fc6
8000ae3c:	f0 1f 00 5b 	mcall	8000afa8 <_dtoa_r+0x320>
8000ae40:	0a 9c       	mov	r12,r5
8000ae42:	14 90       	mov	r0,r10
8000ae44:	16 91       	mov	r1,r11
8000ae46:	f0 1f 00 5a 	mcall	8000afac <_dtoa_r+0x324>
8000ae4a:	e0 68 79 fb 	mov	r8,31227
8000ae4e:	ea 18 50 9f 	orh	r8,0x509f
8000ae52:	e0 69 44 13 	mov	r9,17427
8000ae56:	ea 19 3f d3 	orh	r9,0x3fd3
8000ae5a:	f0 1f 00 53 	mcall	8000afa4 <_dtoa_r+0x31c>
8000ae5e:	14 98       	mov	r8,r10
8000ae60:	16 99       	mov	r9,r11
8000ae62:	00 9a       	mov	r10,r0
8000ae64:	02 9b       	mov	r11,r1
8000ae66:	f0 1f 00 51 	mcall	8000afa8 <_dtoa_r+0x320>
8000ae6a:	14 90       	mov	r0,r10
8000ae6c:	16 91       	mov	r1,r11
8000ae6e:	f0 1f 00 51 	mcall	8000afb0 <_dtoa_r+0x328>
8000ae72:	30 08       	mov	r8,0
8000ae74:	18 96       	mov	r6,r12
8000ae76:	30 09       	mov	r9,0
8000ae78:	00 9a       	mov	r10,r0
8000ae7a:	02 9b       	mov	r11,r1
8000ae7c:	f0 1f 00 4e 	mcall	8000afb4 <_dtoa_r+0x32c>
8000ae80:	c0 f0       	breq	8000ae9e <_dtoa_r+0x216>
8000ae82:	0c 9c       	mov	r12,r6
8000ae84:	f0 1f 00 4a 	mcall	8000afac <_dtoa_r+0x324>
8000ae88:	14 98       	mov	r8,r10
8000ae8a:	16 99       	mov	r9,r11
8000ae8c:	00 9a       	mov	r10,r0
8000ae8e:	02 9b       	mov	r11,r1
8000ae90:	f0 1f 00 4a 	mcall	8000afb8 <_dtoa_r+0x330>
8000ae94:	ec c8 00 01 	sub	r8,r6,1
8000ae98:	58 0c       	cp.w	r12,0
8000ae9a:	f0 06 17 00 	moveq	r6,r8
8000ae9e:	59 66       	cp.w	r6,22
8000aea0:	e0 88 00 05 	brls	8000aeaa <_dtoa_r+0x222>
8000aea4:	30 18       	mov	r8,1
8000aea6:	51 48       	stdsp	sp[0x50],r8
8000aea8:	c1 28       	rjmp	8000aecc <_dtoa_r+0x244>
8000aeaa:	4c 58       	lddpc	r8,8000afbc <_dtoa_r+0x334>
8000aeac:	fa ea 00 3c 	ld.d	r10,sp[60]
8000aeb0:	f0 06 02 38 	ld.d	r8,r8[r6<<0x3]
8000aeb4:	f0 1f 00 40 	mcall	8000afb4 <_dtoa_r+0x32c>
8000aeb8:	ec c8 00 01 	sub	r8,r6,1
8000aebc:	58 0c       	cp.w	r12,0
8000aebe:	f0 06 17 10 	movne	r6,r8
8000aec2:	f9 bc 01 00 	movne	r12,0
8000aec6:	f9 bc 00 00 	moveq	r12,0
8000aeca:	51 4c       	stdsp	sp[0x50],r12
8000aecc:	41 90       	lddsp	r0,sp[0x64]
8000aece:	20 10       	sub	r0,1
8000aed0:	0a 10       	sub	r0,r5
8000aed2:	c0 46       	brmi	8000aeda <_dtoa_r+0x252>
8000aed4:	50 40       	stdsp	sp[0x10],r0
8000aed6:	30 00       	mov	r0,0
8000aed8:	c0 48       	rjmp	8000aee0 <_dtoa_r+0x258>
8000aeda:	30 05       	mov	r5,0
8000aedc:	5c 30       	neg	r0
8000aede:	50 45       	stdsp	sp[0x10],r5
8000aee0:	58 06       	cp.w	r6,0
8000aee2:	c0 75       	brlt	8000aef0 <_dtoa_r+0x268>
8000aee4:	40 44       	lddsp	r4,sp[0x10]
8000aee6:	51 16       	stdsp	sp[0x44],r6
8000aee8:	0c 04       	add	r4,r6
8000aeea:	30 02       	mov	r2,0
8000aeec:	50 44       	stdsp	sp[0x10],r4
8000aeee:	c0 68       	rjmp	8000aefa <_dtoa_r+0x272>
8000aef0:	30 0c       	mov	r12,0
8000aef2:	0c 10       	sub	r0,r6
8000aef4:	ec 02 11 00 	rsub	r2,r6,0
8000aef8:	51 1c       	stdsp	sp[0x44],r12
8000aefa:	40 cb       	lddsp	r11,sp[0x30]
8000aefc:	58 9b       	cp.w	r11,9
8000aefe:	e0 8b 00 1e 	brhi	8000af3a <_dtoa_r+0x2b2>
8000af02:	16 99       	mov	r9,r11
8000af04:	30 14       	mov	r4,1
8000af06:	20 49       	sub	r9,4
8000af08:	30 08       	mov	r8,0
8000af0a:	58 5b       	cp.w	r11,5
8000af0c:	e0 8a 00 04 	brle	8000af14 <_dtoa_r+0x28c>
8000af10:	50 c9       	stdsp	sp[0x30],r9
8000af12:	10 94       	mov	r4,r8
8000af14:	40 ca       	lddsp	r10,sp[0x30]
8000af16:	58 3a       	cp.w	r10,3
8000af18:	c2 e0       	breq	8000af74 <_dtoa_r+0x2ec>
8000af1a:	e0 89 00 05 	brgt	8000af24 <_dtoa_r+0x29c>
8000af1e:	58 2a       	cp.w	r10,2
8000af20:	c1 01       	brne	8000af40 <_dtoa_r+0x2b8>
8000af22:	c1 88       	rjmp	8000af52 <_dtoa_r+0x2ca>
8000af24:	40 c9       	lddsp	r9,sp[0x30]
8000af26:	58 49       	cp.w	r9,4
8000af28:	c0 60       	breq	8000af34 <_dtoa_r+0x2ac>
8000af2a:	58 59       	cp.w	r9,5
8000af2c:	c0 a1       	brne	8000af40 <_dtoa_r+0x2b8>
8000af2e:	30 18       	mov	r8,1
8000af30:	50 d8       	stdsp	sp[0x34],r8
8000af32:	c2 38       	rjmp	8000af78 <_dtoa_r+0x2f0>
8000af34:	30 15       	mov	r5,1
8000af36:	50 d5       	stdsp	sp[0x34],r5
8000af38:	c0 f8       	rjmp	8000af56 <_dtoa_r+0x2ce>
8000af3a:	30 0c       	mov	r12,0
8000af3c:	30 14       	mov	r4,1
8000af3e:	50 cc       	stdsp	sp[0x30],r12
8000af40:	3f fb       	mov	r11,-1
8000af42:	30 1a       	mov	r10,1
8000af44:	30 09       	mov	r9,0
8000af46:	50 9b       	stdsp	sp[0x24],r11
8000af48:	50 da       	stdsp	sp[0x34],r10
8000af4a:	16 91       	mov	r1,r11
8000af4c:	31 28       	mov	r8,18
8000af4e:	50 e9       	stdsp	sp[0x38],r9
8000af50:	c2 18       	rjmp	8000af92 <_dtoa_r+0x30a>
8000af52:	30 08       	mov	r8,0
8000af54:	50 d8       	stdsp	sp[0x34],r8
8000af56:	40 e5       	lddsp	r5,sp[0x38]
8000af58:	58 05       	cp.w	r5,0
8000af5a:	e0 89 00 08 	brgt	8000af6a <_dtoa_r+0x2e2>
8000af5e:	30 1c       	mov	r12,1
8000af60:	50 9c       	stdsp	sp[0x24],r12
8000af62:	18 91       	mov	r1,r12
8000af64:	18 98       	mov	r8,r12
8000af66:	50 ec       	stdsp	sp[0x38],r12
8000af68:	c1 58       	rjmp	8000af92 <_dtoa_r+0x30a>
8000af6a:	40 eb       	lddsp	r11,sp[0x38]
8000af6c:	50 9b       	stdsp	sp[0x24],r11
8000af6e:	16 91       	mov	r1,r11
8000af70:	16 98       	mov	r8,r11
8000af72:	c1 08       	rjmp	8000af92 <_dtoa_r+0x30a>
8000af74:	30 0a       	mov	r10,0
8000af76:	50 da       	stdsp	sp[0x34],r10
8000af78:	40 e9       	lddsp	r9,sp[0x38]
8000af7a:	ec 09 00 09 	add	r9,r6,r9
8000af7e:	50 99       	stdsp	sp[0x24],r9
8000af80:	12 98       	mov	r8,r9
8000af82:	2f f8       	sub	r8,-1
8000af84:	58 08       	cp.w	r8,0
8000af86:	e0 89 00 05 	brgt	8000af90 <_dtoa_r+0x308>
8000af8a:	10 91       	mov	r1,r8
8000af8c:	30 18       	mov	r8,1
8000af8e:	c0 28       	rjmp	8000af92 <_dtoa_r+0x30a>
8000af90:	10 91       	mov	r1,r8
8000af92:	30 09       	mov	r9,0
8000af94:	6e 9a       	ld.w	r10,r7[0x24]
8000af96:	95 19       	st.w	r10[0x4],r9
8000af98:	30 49       	mov	r9,4
8000af9a:	c1 78       	rjmp	8000afc8 <_dtoa_r+0x340>
8000af9c:	80 00       	ld.sh	r0,r0[0x0]
8000af9e:	c8 88       	rjmp	8000b0ae <_dtoa_r+0x426>
8000afa0:	80 00       	ld.sh	r0,r0[0x0]
8000afa2:	67 28       	ld.w	r8,r3[0x48]
8000afa4:	80 00       	ld.sh	r0,r0[0x0]
8000afa6:	65 50       	ld.w	r0,r2[0x54]
8000afa8:	80 00       	ld.sh	r0,r0[0x0]
8000afaa:	68 c4       	ld.w	r4,r4[0x30]
8000afac:	80 00       	ld.sh	r0,r0[0x0]
8000afae:	c8 90       	breq	8000aec0 <_dtoa_r+0x238>
8000afb0:	80 00       	ld.sh	r0,r0[0x0]
8000afb2:	69 d8       	ld.w	r8,r4[0x74]
8000afb4:	80 00       	ld.sh	r0,r0[0x0]
8000afb6:	ca 04       	brge	8000aef6 <_dtoa_r+0x26e>
8000afb8:	80 00       	ld.sh	r0,r0[0x0]
8000afba:	c9 72       	brcc	8000aee8 <_dtoa_r+0x260>
8000afbc:	80 00       	ld.sh	r0,r0[0x0]
8000afbe:	e0 0c       	*unknown*
8000afc0:	6a 1a       	ld.w	r10,r5[0x4]
8000afc2:	a1 79       	lsl	r9,0x1
8000afc4:	2f fa       	sub	r10,-1
8000afc6:	8b 1a       	st.w	r5[0x4],r10
8000afc8:	6e 95       	ld.w	r5,r7[0x24]
8000afca:	f2 ca ff ec 	sub	r10,r9,-20
8000afce:	10 3a       	cp.w	r10,r8
8000afd0:	fe 98 ff f8 	brls	8000afc0 <_dtoa_r+0x338>
8000afd4:	6a 1b       	ld.w	r11,r5[0x4]
8000afd6:	0e 9c       	mov	r12,r7
8000afd8:	f0 1f 00 54 	mcall	8000b128 <_dtoa_r+0x4a0>
8000afdc:	58 e1       	cp.w	r1,14
8000afde:	5f 88       	srls	r8
8000afe0:	8b 0c       	st.w	r5[0x0],r12
8000afe2:	f1 e4 00 04 	and	r4,r8,r4
8000afe6:	6e 98       	ld.w	r8,r7[0x24]
8000afe8:	70 08       	ld.w	r8,r8[0x0]
8000afea:	50 88       	stdsp	sp[0x20],r8
8000afec:	e0 80 01 a5 	breq	8000b336 <_dtoa_r+0x6ae>
8000aff0:	58 06       	cp.w	r6,0
8000aff2:	e0 8a 00 40 	brle	8000b072 <_dtoa_r+0x3ea>
8000aff6:	f3 d6 c0 04 	bfextu	r9,r6,0x0,0x4
8000affa:	4c d8       	lddpc	r8,8000b12c <_dtoa_r+0x4a4>
8000affc:	f0 09 02 34 	ld.d	r4,r8[r9<<0x3]
8000b000:	fa e5 00 18 	st.d	sp[24],r4
8000b004:	ec 04 14 04 	asr	r4,r6,0x4
8000b008:	ed b4 00 04 	bld	r4,0x4
8000b00c:	c0 30       	breq	8000b012 <_dtoa_r+0x38a>
8000b00e:	30 25       	mov	r5,2
8000b010:	c0 f8       	rjmp	8000b02e <_dtoa_r+0x3a6>
8000b012:	4c 88       	lddpc	r8,8000b130 <_dtoa_r+0x4a8>
8000b014:	f0 e8 00 20 	ld.d	r8,r8[32]
8000b018:	fa ea 00 3c 	ld.d	r10,sp[60]
8000b01c:	e9 d4 c0 04 	bfextu	r4,r4,0x0,0x4
8000b020:	f0 1f 00 45 	mcall	8000b134 <_dtoa_r+0x4ac>
8000b024:	30 35       	mov	r5,3
8000b026:	14 98       	mov	r8,r10
8000b028:	16 99       	mov	r9,r11
8000b02a:	fa e9 00 08 	st.d	sp[8],r8
8000b02e:	4c 1c       	lddpc	r12,8000b130 <_dtoa_r+0x4a8>
8000b030:	50 a3       	stdsp	sp[0x28],r3
8000b032:	0c 93       	mov	r3,r6
8000b034:	18 96       	mov	r6,r12
8000b036:	c0 f8       	rjmp	8000b054 <_dtoa_r+0x3cc>
8000b038:	fa ea 00 18 	ld.d	r10,sp[24]
8000b03c:	ed b4 00 00 	bld	r4,0x0
8000b040:	c0 81       	brne	8000b050 <_dtoa_r+0x3c8>
8000b042:	ec e8 00 00 	ld.d	r8,r6[0]
8000b046:	2f f5       	sub	r5,-1
8000b048:	f0 1f 00 3c 	mcall	8000b138 <_dtoa_r+0x4b0>
8000b04c:	fa eb 00 18 	st.d	sp[24],r10
8000b050:	a1 54       	asr	r4,0x1
8000b052:	2f 86       	sub	r6,-8
8000b054:	58 04       	cp.w	r4,0
8000b056:	cf 11       	brne	8000b038 <_dtoa_r+0x3b0>
8000b058:	fa e8 00 18 	ld.d	r8,sp[24]
8000b05c:	fa ea 00 08 	ld.d	r10,sp[8]
8000b060:	06 96       	mov	r6,r3
8000b062:	f0 1f 00 35 	mcall	8000b134 <_dtoa_r+0x4ac>
8000b066:	40 a3       	lddsp	r3,sp[0x28]
8000b068:	14 98       	mov	r8,r10
8000b06a:	16 99       	mov	r9,r11
8000b06c:	fa e9 00 08 	st.d	sp[8],r8
8000b070:	c2 d8       	rjmp	8000b0ca <_dtoa_r+0x442>
8000b072:	ec 08 11 00 	rsub	r8,r6,0
8000b076:	c0 31       	brne	8000b07c <_dtoa_r+0x3f4>
8000b078:	30 25       	mov	r5,2
8000b07a:	c2 88       	rjmp	8000b0ca <_dtoa_r+0x442>
8000b07c:	4a dc       	lddpc	r12,8000b130 <_dtoa_r+0x4a8>
8000b07e:	f0 04 14 04 	asr	r4,r8,0x4
8000b082:	50 1c       	stdsp	sp[0x4],r12
8000b084:	f1 d8 c0 04 	bfextu	r8,r8,0x0,0x4
8000b088:	4a 99       	lddpc	r9,8000b12c <_dtoa_r+0x4a4>
8000b08a:	fa ea 00 3c 	ld.d	r10,sp[60]
8000b08e:	f2 08 02 38 	ld.d	r8,r9[r8<<0x3]
8000b092:	f0 1f 00 2a 	mcall	8000b138 <_dtoa_r+0x4b0>
8000b096:	40 1c       	lddsp	r12,sp[0x4]
8000b098:	50 63       	stdsp	sp[0x18],r3
8000b09a:	30 25       	mov	r5,2
8000b09c:	0c 93       	mov	r3,r6
8000b09e:	fa eb 00 08 	st.d	sp[8],r10
8000b0a2:	18 96       	mov	r6,r12
8000b0a4:	c0 f8       	rjmp	8000b0c2 <_dtoa_r+0x43a>
8000b0a6:	fa ea 00 08 	ld.d	r10,sp[8]
8000b0aa:	ed b4 00 00 	bld	r4,0x0
8000b0ae:	c0 81       	brne	8000b0be <_dtoa_r+0x436>
8000b0b0:	ec e8 00 00 	ld.d	r8,r6[0]
8000b0b4:	2f f5       	sub	r5,-1
8000b0b6:	f0 1f 00 21 	mcall	8000b138 <_dtoa_r+0x4b0>
8000b0ba:	fa eb 00 08 	st.d	sp[8],r10
8000b0be:	a1 54       	asr	r4,0x1
8000b0c0:	2f 86       	sub	r6,-8
8000b0c2:	58 04       	cp.w	r4,0
8000b0c4:	cf 11       	brne	8000b0a6 <_dtoa_r+0x41e>
8000b0c6:	06 96       	mov	r6,r3
8000b0c8:	40 63       	lddsp	r3,sp[0x18]
8000b0ca:	41 4a       	lddsp	r10,sp[0x50]
8000b0cc:	58 0a       	cp.w	r10,0
8000b0ce:	c3 90       	breq	8000b140 <_dtoa_r+0x4b8>
8000b0d0:	fa e8 00 08 	ld.d	r8,sp[8]
8000b0d4:	58 01       	cp.w	r1,0
8000b0d6:	5f 94       	srgt	r4
8000b0d8:	fa e9 00 18 	st.d	sp[24],r8
8000b0dc:	30 08       	mov	r8,0
8000b0de:	30 09       	mov	r9,0
8000b0e0:	ea 19 3f f0 	orh	r9,0x3ff0
8000b0e4:	fa ea 00 18 	ld.d	r10,sp[24]
8000b0e8:	f0 1f 00 15 	mcall	8000b13c <_dtoa_r+0x4b4>
8000b0ec:	f9 bc 00 00 	moveq	r12,0
8000b0f0:	f9 bc 01 01 	movne	r12,1
8000b0f4:	e9 ec 00 0c 	and	r12,r4,r12
8000b0f8:	c2 40       	breq	8000b140 <_dtoa_r+0x4b8>
8000b0fa:	40 98       	lddsp	r8,sp[0x24]
8000b0fc:	58 08       	cp.w	r8,0
8000b0fe:	e0 8a 01 18 	brle	8000b32e <_dtoa_r+0x6a6>
8000b102:	30 08       	mov	r8,0
8000b104:	30 09       	mov	r9,0
8000b106:	ea 19 40 24 	orh	r9,0x4024
8000b10a:	ec c4 00 01 	sub	r4,r6,1
8000b10e:	fa ea 00 18 	ld.d	r10,sp[24]
8000b112:	2f f5       	sub	r5,-1
8000b114:	50 64       	stdsp	sp[0x18],r4
8000b116:	f0 1f 00 09 	mcall	8000b138 <_dtoa_r+0x4b0>
8000b11a:	40 94       	lddsp	r4,sp[0x24]
8000b11c:	14 98       	mov	r8,r10
8000b11e:	16 99       	mov	r9,r11
8000b120:	fa e9 00 08 	st.d	sp[8],r8
8000b124:	c1 08       	rjmp	8000b144 <_dtoa_r+0x4bc>
8000b126:	00 00       	add	r0,r0
8000b128:	80 00       	ld.sh	r0,r0[0x0]
8000b12a:	c0 a4       	brge	8000b13e <_dtoa_r+0x4b6>
8000b12c:	80 00       	ld.sh	r0,r0[0x0]
8000b12e:	e0 0c       	*unknown*
8000b130:	80 00       	ld.sh	r0,r0[0x0]
8000b132:	e0 d4 80 00 	satsub.w	r4,r0,-32768
8000b136:	6a 34       	ld.w	r4,r5[0xc]
8000b138:	80 00       	ld.sh	r0,r0[0x0]
8000b13a:	65 50       	ld.w	r0,r2[0x54]
8000b13c:	80 00       	ld.sh	r0,r0[0x0]
8000b13e:	ca 04       	brge	8000b07e <_dtoa_r+0x3f6>
8000b140:	50 66       	stdsp	sp[0x18],r6
8000b142:	02 94       	mov	r4,r1
8000b144:	0a 9c       	mov	r12,r5
8000b146:	f0 1f 00 6e 	mcall	8000b2fc <_dtoa_r+0x674>
8000b14a:	fa e8 00 08 	ld.d	r8,sp[8]
8000b14e:	f0 1f 00 6d 	mcall	8000b300 <_dtoa_r+0x678>
8000b152:	30 08       	mov	r8,0
8000b154:	30 09       	mov	r9,0
8000b156:	ea 19 40 1c 	orh	r9,0x401c
8000b15a:	f0 1f 00 6b 	mcall	8000b304 <_dtoa_r+0x67c>
8000b15e:	14 98       	mov	r8,r10
8000b160:	16 99       	mov	r9,r11
8000b162:	fa e9 00 28 	st.d	sp[40],r8
8000b166:	30 08       	mov	r8,0
8000b168:	ea 18 fc c0 	orh	r8,0xfcc0
8000b16c:	40 a5       	lddsp	r5,sp[0x28]
8000b16e:	10 05       	add	r5,r8
8000b170:	50 a5       	stdsp	sp[0x28],r5
8000b172:	58 04       	cp.w	r4,0
8000b174:	c2 21       	brne	8000b1b8 <_dtoa_r+0x530>
8000b176:	fa ea 00 08 	ld.d	r10,sp[8]
8000b17a:	30 08       	mov	r8,0
8000b17c:	30 09       	mov	r9,0
8000b17e:	ea 19 40 14 	orh	r9,0x4014
8000b182:	f0 1f 00 62 	mcall	8000b308 <_dtoa_r+0x680>
8000b186:	40 bc       	lddsp	r12,sp[0x2c]
8000b188:	fa eb 00 08 	st.d	sp[8],r10
8000b18c:	14 98       	mov	r8,r10
8000b18e:	16 99       	mov	r9,r11
8000b190:	18 9a       	mov	r10,r12
8000b192:	0a 9b       	mov	r11,r5
8000b194:	f0 1f 00 5e 	mcall	8000b30c <_dtoa_r+0x684>
8000b198:	e0 81 02 7b 	brne	8000b68e <_dtoa_r+0xa06>
8000b19c:	0a 98       	mov	r8,r5
8000b19e:	40 b9       	lddsp	r9,sp[0x2c]
8000b1a0:	ee 18 80 00 	eorh	r8,0x8000
8000b1a4:	fa ea 00 08 	ld.d	r10,sp[8]
8000b1a8:	10 95       	mov	r5,r8
8000b1aa:	12 98       	mov	r8,r9
8000b1ac:	0a 99       	mov	r9,r5
8000b1ae:	f0 1f 00 58 	mcall	8000b30c <_dtoa_r+0x684>
8000b1b2:	e0 81 02 65 	brne	8000b67c <_dtoa_r+0x9f4>
8000b1b6:	cb c8       	rjmp	8000b32e <_dtoa_r+0x6a6>
8000b1b8:	4d 69       	lddpc	r9,8000b310 <_dtoa_r+0x688>
8000b1ba:	e8 c8 00 01 	sub	r8,r4,1
8000b1be:	40 d5       	lddsp	r5,sp[0x34]
8000b1c0:	58 05       	cp.w	r5,0
8000b1c2:	c5 40       	breq	8000b26a <_dtoa_r+0x5e2>
8000b1c4:	30 0c       	mov	r12,0
8000b1c6:	f2 08 02 38 	ld.d	r8,r9[r8<<0x3]
8000b1ca:	51 3c       	stdsp	sp[0x4c],r12
8000b1cc:	30 0a       	mov	r10,0
8000b1ce:	30 0b       	mov	r11,0
8000b1d0:	ea 1b 3f e0 	orh	r11,0x3fe0
8000b1d4:	f0 1f 00 50 	mcall	8000b314 <_dtoa_r+0x68c>
8000b1d8:	fa e8 00 28 	ld.d	r8,sp[40]
8000b1dc:	40 85       	lddsp	r5,sp[0x20]
8000b1de:	f0 1f 00 4b 	mcall	8000b308 <_dtoa_r+0x680>
8000b1e2:	fa eb 00 28 	st.d	sp[40],r10
8000b1e6:	fa ea 00 08 	ld.d	r10,sp[8]
8000b1ea:	f0 1f 00 4c 	mcall	8000b318 <_dtoa_r+0x690>
8000b1ee:	51 6c       	stdsp	sp[0x58],r12
8000b1f0:	f0 1f 00 43 	mcall	8000b2fc <_dtoa_r+0x674>
8000b1f4:	14 98       	mov	r8,r10
8000b1f6:	16 99       	mov	r9,r11
8000b1f8:	fa ea 00 08 	ld.d	r10,sp[8]
8000b1fc:	f0 1f 00 43 	mcall	8000b308 <_dtoa_r+0x680>
8000b200:	fa eb 00 08 	st.d	sp[8],r10
8000b204:	41 68       	lddsp	r8,sp[0x58]
8000b206:	2d 08       	sub	r8,-48
8000b208:	0a c8       	st.b	r5++,r8
8000b20a:	41 39       	lddsp	r9,sp[0x4c]
8000b20c:	2f f9       	sub	r9,-1
8000b20e:	51 39       	stdsp	sp[0x4c],r9
8000b210:	fa e8 00 28 	ld.d	r8,sp[40]
8000b214:	f0 1f 00 3e 	mcall	8000b30c <_dtoa_r+0x684>
8000b218:	e0 81 03 64 	brne	8000b8e0 <_dtoa_r+0xc58>
8000b21c:	fa e8 00 08 	ld.d	r8,sp[8]
8000b220:	30 0a       	mov	r10,0
8000b222:	30 0b       	mov	r11,0
8000b224:	ea 1b 3f f0 	orh	r11,0x3ff0
8000b228:	f0 1f 00 38 	mcall	8000b308 <_dtoa_r+0x680>
8000b22c:	fa e8 00 28 	ld.d	r8,sp[40]
8000b230:	f0 1f 00 37 	mcall	8000b30c <_dtoa_r+0x684>
8000b234:	fa ea 00 28 	ld.d	r10,sp[40]
8000b238:	30 08       	mov	r8,0
8000b23a:	30 09       	mov	r9,0
8000b23c:	ea 19 40 24 	orh	r9,0x4024
8000b240:	58 0c       	cp.w	r12,0
8000b242:	e0 81 00 ee 	brne	8000b41e <_dtoa_r+0x796>
8000b246:	41 3c       	lddsp	r12,sp[0x4c]
8000b248:	08 3c       	cp.w	r12,r4
8000b24a:	c7 24       	brge	8000b32e <_dtoa_r+0x6a6>
8000b24c:	f0 1f 00 2d 	mcall	8000b300 <_dtoa_r+0x678>
8000b250:	30 08       	mov	r8,0
8000b252:	fa eb 00 28 	st.d	sp[40],r10
8000b256:	30 09       	mov	r9,0
8000b258:	ea 19 40 24 	orh	r9,0x4024
8000b25c:	fa ea 00 08 	ld.d	r10,sp[8]
8000b260:	f0 1f 00 28 	mcall	8000b300 <_dtoa_r+0x678>
8000b264:	fa eb 00 08 	st.d	sp[8],r10
8000b268:	cb fb       	rjmp	8000b1e6 <_dtoa_r+0x55e>
8000b26a:	40 85       	lddsp	r5,sp[0x20]
8000b26c:	08 05       	add	r5,r4
8000b26e:	f2 08 02 3a 	ld.d	r10,r9[r8<<0x3]
8000b272:	51 35       	stdsp	sp[0x4c],r5
8000b274:	fa e8 00 28 	ld.d	r8,sp[40]
8000b278:	40 85       	lddsp	r5,sp[0x20]
8000b27a:	f0 1f 00 22 	mcall	8000b300 <_dtoa_r+0x678>
8000b27e:	fa eb 00 28 	st.d	sp[40],r10
8000b282:	fa ea 00 08 	ld.d	r10,sp[8]
8000b286:	f0 1f 00 25 	mcall	8000b318 <_dtoa_r+0x690>
8000b28a:	51 6c       	stdsp	sp[0x58],r12
8000b28c:	f0 1f 00 1c 	mcall	8000b2fc <_dtoa_r+0x674>
8000b290:	14 98       	mov	r8,r10
8000b292:	16 99       	mov	r9,r11
8000b294:	fa ea 00 08 	ld.d	r10,sp[8]
8000b298:	f0 1f 00 1c 	mcall	8000b308 <_dtoa_r+0x680>
8000b29c:	fa eb 00 08 	st.d	sp[8],r10
8000b2a0:	41 68       	lddsp	r8,sp[0x58]
8000b2a2:	2d 08       	sub	r8,-48
8000b2a4:	0a c8       	st.b	r5++,r8
8000b2a6:	41 3c       	lddsp	r12,sp[0x4c]
8000b2a8:	18 35       	cp.w	r5,r12
8000b2aa:	c3 91       	brne	8000b31c <_dtoa_r+0x694>
8000b2ac:	30 08       	mov	r8,0
8000b2ae:	30 09       	mov	r9,0
8000b2b0:	ea 19 3f e0 	orh	r9,0x3fe0
8000b2b4:	fa ea 00 28 	ld.d	r10,sp[40]
8000b2b8:	f0 1f 00 13 	mcall	8000b304 <_dtoa_r+0x67c>
8000b2bc:	40 85       	lddsp	r5,sp[0x20]
8000b2be:	fa e8 00 08 	ld.d	r8,sp[8]
8000b2c2:	08 05       	add	r5,r4
8000b2c4:	f0 1f 00 12 	mcall	8000b30c <_dtoa_r+0x684>
8000b2c8:	e0 81 00 ab 	brne	8000b41e <_dtoa_r+0x796>
8000b2cc:	fa e8 00 28 	ld.d	r8,sp[40]
8000b2d0:	30 0a       	mov	r10,0
8000b2d2:	30 0b       	mov	r11,0
8000b2d4:	ea 1b 3f e0 	orh	r11,0x3fe0
8000b2d8:	f0 1f 00 0c 	mcall	8000b308 <_dtoa_r+0x680>
8000b2dc:	14 98       	mov	r8,r10
8000b2de:	16 99       	mov	r9,r11
8000b2e0:	fa ea 00 08 	ld.d	r10,sp[8]
8000b2e4:	f0 1f 00 0a 	mcall	8000b30c <_dtoa_r+0x684>
8000b2e8:	c2 30       	breq	8000b32e <_dtoa_r+0x6a6>
8000b2ea:	33 09       	mov	r9,48
8000b2ec:	0a 98       	mov	r8,r5
8000b2ee:	11 7a       	ld.ub	r10,--r8
8000b2f0:	f2 0a 18 00 	cp.b	r10,r9
8000b2f4:	e0 81 02 f6 	brne	8000b8e0 <_dtoa_r+0xc58>
8000b2f8:	10 95       	mov	r5,r8
8000b2fa:	cf 9b       	rjmp	8000b2ec <_dtoa_r+0x664>
8000b2fc:	80 00       	ld.sh	r0,r0[0x0]
8000b2fe:	c8 90       	breq	8000b210 <_dtoa_r+0x588>
8000b300:	80 00       	ld.sh	r0,r0[0x0]
8000b302:	65 50       	ld.w	r0,r2[0x54]
8000b304:	80 00       	ld.sh	r0,r0[0x0]
8000b306:	68 c4       	ld.w	r4,r4[0x30]
8000b308:	80 00       	ld.sh	r0,r0[0x0]
8000b30a:	67 28       	ld.w	r8,r3[0x48]
8000b30c:	80 00       	ld.sh	r0,r0[0x0]
8000b30e:	ca 04       	brge	8000b24e <_dtoa_r+0x5c6>
8000b310:	80 00       	ld.sh	r0,r0[0x0]
8000b312:	e0 0c       	*unknown*
8000b314:	80 00       	ld.sh	r0,r0[0x0]
8000b316:	6a 34       	ld.w	r4,r5[0xc]
8000b318:	80 00       	ld.sh	r0,r0[0x0]
8000b31a:	69 d8       	ld.w	r8,r4[0x74]
8000b31c:	30 08       	mov	r8,0
8000b31e:	30 09       	mov	r9,0
8000b320:	ea 19 40 24 	orh	r9,0x4024
8000b324:	f0 1f 00 5a 	mcall	8000b48c <_dtoa_r+0x804>
8000b328:	fa eb 00 08 	st.d	sp[8],r10
8000b32c:	ca bb       	rjmp	8000b282 <_dtoa_r+0x5fa>
8000b32e:	fa ea 00 3c 	ld.d	r10,sp[60]
8000b332:	fa eb 00 08 	st.d	sp[8],r10
8000b336:	58 e6       	cp.w	r6,14
8000b338:	5f ab       	srle	r11
8000b33a:	41 8a       	lddsp	r10,sp[0x60]
8000b33c:	30 08       	mov	r8,0
8000b33e:	f4 09 11 ff 	rsub	r9,r10,-1
8000b342:	f7 e9 03 f9 	and	r9,r11,r9>>0x1f
8000b346:	f0 09 18 00 	cp.b	r9,r8
8000b34a:	e0 80 00 83 	breq	8000b450 <_dtoa_r+0x7c8>
8000b34e:	40 ea       	lddsp	r10,sp[0x38]
8000b350:	58 01       	cp.w	r1,0
8000b352:	5f a9       	srle	r9
8000b354:	f3 ea 03 f9 	and	r9,r9,r10>>0x1f
8000b358:	4c ea       	lddpc	r10,8000b490 <_dtoa_r+0x808>
8000b35a:	f4 06 02 34 	ld.d	r4,r10[r6<<0x3]
8000b35e:	fa e5 00 10 	st.d	sp[16],r4
8000b362:	f0 09 18 00 	cp.b	r9,r8
8000b366:	c1 50       	breq	8000b390 <_dtoa_r+0x708>
8000b368:	58 01       	cp.w	r1,0
8000b36a:	e0 81 01 89 	brne	8000b67c <_dtoa_r+0x9f4>
8000b36e:	30 08       	mov	r8,0
8000b370:	30 09       	mov	r9,0
8000b372:	ea 19 40 14 	orh	r9,0x4014
8000b376:	08 9a       	mov	r10,r4
8000b378:	0a 9b       	mov	r11,r5
8000b37a:	f0 1f 00 45 	mcall	8000b48c <_dtoa_r+0x804>
8000b37e:	fa e8 00 08 	ld.d	r8,sp[8]
8000b382:	f0 1f 00 45 	mcall	8000b494 <_dtoa_r+0x80c>
8000b386:	e0 81 01 7b 	brne	8000b67c <_dtoa_r+0x9f4>
8000b38a:	02 92       	mov	r2,r1
8000b38c:	e0 8f 01 83 	bral	8000b692 <_dtoa_r+0xa0a>
8000b390:	40 85       	lddsp	r5,sp[0x20]
8000b392:	30 14       	mov	r4,1
8000b394:	fa e8 00 10 	ld.d	r8,sp[16]
8000b398:	fa ea 00 08 	ld.d	r10,sp[8]
8000b39c:	f0 1f 00 3f 	mcall	8000b498 <_dtoa_r+0x810>
8000b3a0:	f0 1f 00 3f 	mcall	8000b49c <_dtoa_r+0x814>
8000b3a4:	18 92       	mov	r2,r12
8000b3a6:	f0 1f 00 3f 	mcall	8000b4a0 <_dtoa_r+0x818>
8000b3aa:	fa e8 00 10 	ld.d	r8,sp[16]
8000b3ae:	f0 1f 00 38 	mcall	8000b48c <_dtoa_r+0x804>
8000b3b2:	14 98       	mov	r8,r10
8000b3b4:	16 99       	mov	r9,r11
8000b3b6:	fa ea 00 08 	ld.d	r10,sp[8]
8000b3ba:	f0 1f 00 3b 	mcall	8000b4a4 <_dtoa_r+0x81c>
8000b3be:	fa eb 00 08 	st.d	sp[8],r10
8000b3c2:	e4 c8 ff d0 	sub	r8,r2,-48
8000b3c6:	0a c8       	st.b	r5++,r8
8000b3c8:	30 09       	mov	r9,0
8000b3ca:	ea 19 40 24 	orh	r9,0x4024
8000b3ce:	30 08       	mov	r8,0
8000b3d0:	02 34       	cp.w	r4,r1
8000b3d2:	c3 31       	brne	8000b438 <_dtoa_r+0x7b0>
8000b3d4:	fa e8 00 08 	ld.d	r8,sp[8]
8000b3d8:	f0 1f 00 34 	mcall	8000b4a8 <_dtoa_r+0x820>
8000b3dc:	16 91       	mov	r1,r11
8000b3de:	14 90       	mov	r0,r10
8000b3e0:	14 98       	mov	r8,r10
8000b3e2:	02 99       	mov	r9,r1
8000b3e4:	fa ea 00 10 	ld.d	r10,sp[16]
8000b3e8:	f0 1f 00 31 	mcall	8000b4ac <_dtoa_r+0x824>
8000b3ec:	c1 a1       	brne	8000b420 <_dtoa_r+0x798>
8000b3ee:	fa e8 00 10 	ld.d	r8,sp[16]
8000b3f2:	00 9a       	mov	r10,r0
8000b3f4:	02 9b       	mov	r11,r1
8000b3f6:	f0 1f 00 2f 	mcall	8000b4b0 <_dtoa_r+0x828>
8000b3fa:	e0 80 02 72 	breq	8000b8de <_dtoa_r+0xc56>
8000b3fe:	e5 d2 c0 01 	bfextu	r2,r2,0x0,0x1
8000b402:	c0 f1       	brne	8000b420 <_dtoa_r+0x798>
8000b404:	e0 8f 02 6d 	bral	8000b8de <_dtoa_r+0xc56>
8000b408:	40 8a       	lddsp	r10,sp[0x20]
8000b40a:	14 38       	cp.w	r8,r10
8000b40c:	c0 30       	breq	8000b412 <_dtoa_r+0x78a>
8000b40e:	10 95       	mov	r5,r8
8000b410:	c0 98       	rjmp	8000b422 <_dtoa_r+0x79a>
8000b412:	33 08       	mov	r8,48
8000b414:	40 89       	lddsp	r9,sp[0x20]
8000b416:	2f f6       	sub	r6,-1
8000b418:	b2 88       	st.b	r9[0x0],r8
8000b41a:	40 88       	lddsp	r8,sp[0x20]
8000b41c:	c0 88       	rjmp	8000b42c <_dtoa_r+0x7a4>
8000b41e:	40 66       	lddsp	r6,sp[0x18]
8000b420:	33 99       	mov	r9,57
8000b422:	0a 98       	mov	r8,r5
8000b424:	11 7a       	ld.ub	r10,--r8
8000b426:	f2 0a 18 00 	cp.b	r10,r9
8000b42a:	ce f0       	breq	8000b408 <_dtoa_r+0x780>
8000b42c:	50 66       	stdsp	sp[0x18],r6
8000b42e:	11 89       	ld.ub	r9,r8[0x0]
8000b430:	2f f9       	sub	r9,-1
8000b432:	b0 89       	st.b	r8[0x0],r9
8000b434:	e0 8f 02 56 	bral	8000b8e0 <_dtoa_r+0xc58>
8000b438:	f0 1f 00 15 	mcall	8000b48c <_dtoa_r+0x804>
8000b43c:	2f f4       	sub	r4,-1
8000b43e:	fa eb 00 08 	st.d	sp[8],r10
8000b442:	30 08       	mov	r8,0
8000b444:	30 09       	mov	r9,0
8000b446:	f0 1f 00 1b 	mcall	8000b4b0 <_dtoa_r+0x828>
8000b44a:	ca 50       	breq	8000b394 <_dtoa_r+0x70c>
8000b44c:	e0 8f 02 49 	bral	8000b8de <_dtoa_r+0xc56>
8000b450:	40 d8       	lddsp	r8,sp[0x34]
8000b452:	58 08       	cp.w	r8,0
8000b454:	c0 51       	brne	8000b45e <_dtoa_r+0x7d6>
8000b456:	04 98       	mov	r8,r2
8000b458:	00 95       	mov	r5,r0
8000b45a:	40 d4       	lddsp	r4,sp[0x34]
8000b45c:	c4 78       	rjmp	8000b4ea <_dtoa_r+0x862>
8000b45e:	40 c5       	lddsp	r5,sp[0x30]
8000b460:	58 15       	cp.w	r5,1
8000b462:	e0 89 00 0e 	brgt	8000b47e <_dtoa_r+0x7f6>
8000b466:	41 74       	lddsp	r4,sp[0x5c]
8000b468:	58 04       	cp.w	r4,0
8000b46a:	c0 40       	breq	8000b472 <_dtoa_r+0x7ea>
8000b46c:	f4 c9 fb cd 	sub	r9,r10,-1075
8000b470:	c0 48       	rjmp	8000b478 <_dtoa_r+0x7f0>
8000b472:	41 99       	lddsp	r9,sp[0x64]
8000b474:	f2 09 11 36 	rsub	r9,r9,54
8000b478:	04 98       	mov	r8,r2
8000b47a:	00 95       	mov	r5,r0
8000b47c:	c2 c8       	rjmp	8000b4d4 <_dtoa_r+0x84c>
8000b47e:	e2 c8 00 01 	sub	r8,r1,1
8000b482:	10 32       	cp.w	r2,r8
8000b484:	c1 85       	brlt	8000b4b4 <_dtoa_r+0x82c>
8000b486:	e4 08 01 08 	sub	r8,r2,r8
8000b48a:	c1 b8       	rjmp	8000b4c0 <_dtoa_r+0x838>
8000b48c:	80 00       	ld.sh	r0,r0[0x0]
8000b48e:	65 50       	ld.w	r0,r2[0x54]
8000b490:	80 00       	ld.sh	r0,r0[0x0]
8000b492:	e0 0c       	*unknown*
8000b494:	80 00       	ld.sh	r0,r0[0x0]
8000b496:	c9 9a       	rjmp	8000b1c8 <_dtoa_r+0x540>
8000b498:	80 00       	ld.sh	r0,r0[0x0]
8000b49a:	6a 34       	ld.w	r4,r5[0xc]
8000b49c:	80 00       	ld.sh	r0,r0[0x0]
8000b49e:	69 d8       	ld.w	r8,r4[0x74]
8000b4a0:	80 00       	ld.sh	r0,r0[0x0]
8000b4a2:	c8 90       	breq	8000b3b4 <_dtoa_r+0x72c>
8000b4a4:	80 00       	ld.sh	r0,r0[0x0]
8000b4a6:	67 28       	ld.w	r8,r3[0x48]
8000b4a8:	80 00       	ld.sh	r0,r0[0x0]
8000b4aa:	68 c4       	ld.w	r4,r4[0x30]
8000b4ac:	80 00       	ld.sh	r0,r0[0x0]
8000b4ae:	ca 04       	brge	8000b3ee <_dtoa_r+0x766>
8000b4b0:	80 00       	ld.sh	r0,r0[0x0]
8000b4b2:	c9 72       	brcc	8000b3e0 <_dtoa_r+0x758>
8000b4b4:	04 18       	sub	r8,r2
8000b4b6:	41 1c       	lddsp	r12,sp[0x44]
8000b4b8:	10 02       	add	r2,r8
8000b4ba:	10 0c       	add	r12,r8
8000b4bc:	30 08       	mov	r8,0
8000b4be:	51 1c       	stdsp	sp[0x44],r12
8000b4c0:	e0 01 01 05 	sub	r5,r0,r1
8000b4c4:	30 09       	mov	r9,0
8000b4c6:	0a 9b       	mov	r11,r5
8000b4c8:	00 95       	mov	r5,r0
8000b4ca:	58 01       	cp.w	r1,0
8000b4cc:	c0 35       	brlt	8000b4d2 <_dtoa_r+0x84a>
8000b4ce:	02 99       	mov	r9,r1
8000b4d0:	c0 28       	rjmp	8000b4d4 <_dtoa_r+0x84c>
8000b4d2:	16 95       	mov	r5,r11
8000b4d4:	40 4b       	lddsp	r11,sp[0x10]
8000b4d6:	12 0b       	add	r11,r9
8000b4d8:	50 08       	stdsp	sp[0x0],r8
8000b4da:	50 4b       	stdsp	sp[0x10],r11
8000b4dc:	12 00       	add	r0,r9
8000b4de:	30 1b       	mov	r11,1
8000b4e0:	0e 9c       	mov	r12,r7
8000b4e2:	f0 1f 01 09 	mcall	8000b904 <_dtoa_r+0xc7c>
8000b4e6:	40 08       	lddsp	r8,sp[0x0]
8000b4e8:	18 94       	mov	r4,r12
8000b4ea:	40 4a       	lddsp	r10,sp[0x10]
8000b4ec:	58 05       	cp.w	r5,0
8000b4ee:	5f 99       	srgt	r9
8000b4f0:	58 0a       	cp.w	r10,0
8000b4f2:	5f 9a       	srgt	r10
8000b4f4:	f5 e9 00 09 	and	r9,r10,r9
8000b4f8:	c0 80       	breq	8000b508 <_dtoa_r+0x880>
8000b4fa:	40 4c       	lddsp	r12,sp[0x10]
8000b4fc:	f8 05 0d 49 	min	r9,r12,r5
8000b500:	12 1c       	sub	r12,r9
8000b502:	12 10       	sub	r0,r9
8000b504:	50 4c       	stdsp	sp[0x10],r12
8000b506:	12 15       	sub	r5,r9
8000b508:	58 02       	cp.w	r2,0
8000b50a:	e0 8a 00 27 	brle	8000b558 <_dtoa_r+0x8d0>
8000b50e:	40 db       	lddsp	r11,sp[0x34]
8000b510:	58 0b       	cp.w	r11,0
8000b512:	c1 d0       	breq	8000b54c <_dtoa_r+0x8c4>
8000b514:	58 08       	cp.w	r8,0
8000b516:	e0 8a 00 17 	brle	8000b544 <_dtoa_r+0x8bc>
8000b51a:	10 9a       	mov	r10,r8
8000b51c:	50 08       	stdsp	sp[0x0],r8
8000b51e:	08 9b       	mov	r11,r4
8000b520:	0e 9c       	mov	r12,r7
8000b522:	f0 1f 00 fa 	mcall	8000b908 <_dtoa_r+0xc80>
8000b526:	06 9a       	mov	r10,r3
8000b528:	18 9b       	mov	r11,r12
8000b52a:	18 94       	mov	r4,r12
8000b52c:	0e 9c       	mov	r12,r7
8000b52e:	f0 1f 00 f8 	mcall	8000b90c <_dtoa_r+0xc84>
8000b532:	18 99       	mov	r9,r12
8000b534:	06 9b       	mov	r11,r3
8000b536:	50 19       	stdsp	sp[0x4],r9
8000b538:	0e 9c       	mov	r12,r7
8000b53a:	f0 1f 00 f6 	mcall	8000b910 <_dtoa_r+0xc88>
8000b53e:	40 19       	lddsp	r9,sp[0x4]
8000b540:	40 08       	lddsp	r8,sp[0x0]
8000b542:	12 93       	mov	r3,r9
8000b544:	e4 08 01 0a 	sub	r10,r2,r8
8000b548:	c0 80       	breq	8000b558 <_dtoa_r+0x8d0>
8000b54a:	c0 28       	rjmp	8000b54e <_dtoa_r+0x8c6>
8000b54c:	04 9a       	mov	r10,r2
8000b54e:	06 9b       	mov	r11,r3
8000b550:	0e 9c       	mov	r12,r7
8000b552:	f0 1f 00 ee 	mcall	8000b908 <_dtoa_r+0xc80>
8000b556:	18 93       	mov	r3,r12
8000b558:	30 1b       	mov	r11,1
8000b55a:	0e 9c       	mov	r12,r7
8000b55c:	f0 1f 00 ea 	mcall	8000b904 <_dtoa_r+0xc7c>
8000b560:	41 1a       	lddsp	r10,sp[0x44]
8000b562:	18 92       	mov	r2,r12
8000b564:	58 0a       	cp.w	r10,0
8000b566:	e0 8a 00 07 	brle	8000b574 <_dtoa_r+0x8ec>
8000b56a:	18 9b       	mov	r11,r12
8000b56c:	0e 9c       	mov	r12,r7
8000b56e:	f0 1f 00 e7 	mcall	8000b908 <_dtoa_r+0xc80>
8000b572:	18 92       	mov	r2,r12
8000b574:	40 c9       	lddsp	r9,sp[0x30]
8000b576:	58 19       	cp.w	r9,1
8000b578:	e0 89 00 14 	brgt	8000b5a0 <_dtoa_r+0x918>
8000b57c:	40 38       	lddsp	r8,sp[0xc]
8000b57e:	58 08       	cp.w	r8,0
8000b580:	c1 01       	brne	8000b5a0 <_dtoa_r+0x918>
8000b582:	40 29       	lddsp	r9,sp[0x8]
8000b584:	f1 d9 c0 14 	bfextu	r8,r9,0x0,0x14
8000b588:	c0 c1       	brne	8000b5a0 <_dtoa_r+0x918>
8000b58a:	12 98       	mov	r8,r9
8000b58c:	e6 18 7f f0 	andh	r8,0x7ff0,COH
8000b590:	c0 80       	breq	8000b5a0 <_dtoa_r+0x918>
8000b592:	40 4c       	lddsp	r12,sp[0x10]
8000b594:	30 1b       	mov	r11,1
8000b596:	2f fc       	sub	r12,-1
8000b598:	2f f0       	sub	r0,-1
8000b59a:	50 4c       	stdsp	sp[0x10],r12
8000b59c:	50 6b       	stdsp	sp[0x18],r11
8000b59e:	c0 38       	rjmp	8000b5a4 <_dtoa_r+0x91c>
8000b5a0:	30 0a       	mov	r10,0
8000b5a2:	50 6a       	stdsp	sp[0x18],r10
8000b5a4:	41 19       	lddsp	r9,sp[0x44]
8000b5a6:	58 09       	cp.w	r9,0
8000b5a8:	c0 31       	brne	8000b5ae <_dtoa_r+0x926>
8000b5aa:	30 1c       	mov	r12,1
8000b5ac:	c0 98       	rjmp	8000b5be <_dtoa_r+0x936>
8000b5ae:	64 48       	ld.w	r8,r2[0x10]
8000b5b0:	2f c8       	sub	r8,-4
8000b5b2:	e4 08 03 2c 	ld.w	r12,r2[r8<<0x2]
8000b5b6:	f0 1f 00 d8 	mcall	8000b914 <_dtoa_r+0xc8c>
8000b5ba:	f8 0c 11 20 	rsub	r12,r12,32
8000b5be:	40 4b       	lddsp	r11,sp[0x10]
8000b5c0:	f8 0b 00 08 	add	r8,r12,r11
8000b5c4:	f1 d8 c0 05 	bfextu	r8,r8,0x0,0x5
8000b5c8:	c0 c0       	breq	8000b5e0 <_dtoa_r+0x958>
8000b5ca:	f0 08 11 20 	rsub	r8,r8,32
8000b5ce:	58 48       	cp.w	r8,4
8000b5d0:	e0 8a 00 06 	brle	8000b5dc <_dtoa_r+0x954>
8000b5d4:	20 48       	sub	r8,4
8000b5d6:	10 0b       	add	r11,r8
8000b5d8:	50 4b       	stdsp	sp[0x10],r11
8000b5da:	c0 78       	rjmp	8000b5e8 <_dtoa_r+0x960>
8000b5dc:	58 48       	cp.w	r8,4
8000b5de:	c0 70       	breq	8000b5ec <_dtoa_r+0x964>
8000b5e0:	40 4a       	lddsp	r10,sp[0x10]
8000b5e2:	2e 48       	sub	r8,-28
8000b5e4:	10 0a       	add	r10,r8
8000b5e6:	50 4a       	stdsp	sp[0x10],r10
8000b5e8:	10 00       	add	r0,r8
8000b5ea:	10 05       	add	r5,r8
8000b5ec:	58 00       	cp.w	r0,0
8000b5ee:	e0 8a 00 08 	brle	8000b5fe <_dtoa_r+0x976>
8000b5f2:	06 9b       	mov	r11,r3
8000b5f4:	00 9a       	mov	r10,r0
8000b5f6:	0e 9c       	mov	r12,r7
8000b5f8:	f0 1f 00 c8 	mcall	8000b918 <_dtoa_r+0xc90>
8000b5fc:	18 93       	mov	r3,r12
8000b5fe:	40 49       	lddsp	r9,sp[0x10]
8000b600:	58 09       	cp.w	r9,0
8000b602:	e0 8a 00 08 	brle	8000b612 <_dtoa_r+0x98a>
8000b606:	04 9b       	mov	r11,r2
8000b608:	12 9a       	mov	r10,r9
8000b60a:	0e 9c       	mov	r12,r7
8000b60c:	f0 1f 00 c3 	mcall	8000b918 <_dtoa_r+0xc90>
8000b610:	18 92       	mov	r2,r12
8000b612:	41 48       	lddsp	r8,sp[0x50]
8000b614:	58 08       	cp.w	r8,0
8000b616:	c1 b0       	breq	8000b64c <_dtoa_r+0x9c4>
8000b618:	04 9b       	mov	r11,r2
8000b61a:	06 9c       	mov	r12,r3
8000b61c:	f0 1f 00 c0 	mcall	8000b91c <_dtoa_r+0xc94>
8000b620:	c1 64       	brge	8000b64c <_dtoa_r+0x9c4>
8000b622:	06 9b       	mov	r11,r3
8000b624:	30 09       	mov	r9,0
8000b626:	30 aa       	mov	r10,10
8000b628:	0e 9c       	mov	r12,r7
8000b62a:	f0 1f 00 be 	mcall	8000b920 <_dtoa_r+0xc98>
8000b62e:	20 16       	sub	r6,1
8000b630:	18 93       	mov	r3,r12
8000b632:	40 dc       	lddsp	r12,sp[0x34]
8000b634:	58 0c       	cp.w	r12,0
8000b636:	c0 31       	brne	8000b63c <_dtoa_r+0x9b4>
8000b638:	40 91       	lddsp	r1,sp[0x24]
8000b63a:	c0 98       	rjmp	8000b64c <_dtoa_r+0x9c4>
8000b63c:	08 9b       	mov	r11,r4
8000b63e:	40 91       	lddsp	r1,sp[0x24]
8000b640:	30 09       	mov	r9,0
8000b642:	30 aa       	mov	r10,10
8000b644:	0e 9c       	mov	r12,r7
8000b646:	f0 1f 00 b7 	mcall	8000b920 <_dtoa_r+0xc98>
8000b64a:	18 94       	mov	r4,r12
8000b64c:	58 01       	cp.w	r1,0
8000b64e:	5f a9       	srle	r9
8000b650:	40 cb       	lddsp	r11,sp[0x30]
8000b652:	58 2b       	cp.w	r11,2
8000b654:	5f 98       	srgt	r8
8000b656:	f3 e8 00 08 	and	r8,r9,r8
8000b65a:	c2 50       	breq	8000b6a4 <_dtoa_r+0xa1c>
8000b65c:	58 01       	cp.w	r1,0
8000b65e:	c1 11       	brne	8000b680 <_dtoa_r+0x9f8>
8000b660:	04 9b       	mov	r11,r2
8000b662:	02 99       	mov	r9,r1
8000b664:	30 5a       	mov	r10,5
8000b666:	0e 9c       	mov	r12,r7
8000b668:	f0 1f 00 ae 	mcall	8000b920 <_dtoa_r+0xc98>
8000b66c:	18 92       	mov	r2,r12
8000b66e:	18 9b       	mov	r11,r12
8000b670:	06 9c       	mov	r12,r3
8000b672:	f0 1f 00 ab 	mcall	8000b91c <_dtoa_r+0xc94>
8000b676:	e0 89 00 0f 	brgt	8000b694 <_dtoa_r+0xa0c>
8000b67a:	c0 38       	rjmp	8000b680 <_dtoa_r+0x9f8>
8000b67c:	30 02       	mov	r2,0
8000b67e:	04 94       	mov	r4,r2
8000b680:	40 ea       	lddsp	r10,sp[0x38]
8000b682:	30 09       	mov	r9,0
8000b684:	5c da       	com	r10
8000b686:	40 85       	lddsp	r5,sp[0x20]
8000b688:	50 6a       	stdsp	sp[0x18],r10
8000b68a:	50 49       	stdsp	sp[0x10],r9
8000b68c:	c1 39       	rjmp	8000b8b2 <_dtoa_r+0xc2a>
8000b68e:	08 92       	mov	r2,r4
8000b690:	40 66       	lddsp	r6,sp[0x18]
8000b692:	04 94       	mov	r4,r2
8000b694:	2f f6       	sub	r6,-1
8000b696:	50 66       	stdsp	sp[0x18],r6
8000b698:	33 18       	mov	r8,49
8000b69a:	40 85       	lddsp	r5,sp[0x20]
8000b69c:	0a c8       	st.b	r5++,r8
8000b69e:	30 08       	mov	r8,0
8000b6a0:	50 48       	stdsp	sp[0x10],r8
8000b6a2:	c0 89       	rjmp	8000b8b2 <_dtoa_r+0xc2a>
8000b6a4:	40 dc       	lddsp	r12,sp[0x34]
8000b6a6:	58 0c       	cp.w	r12,0
8000b6a8:	e0 80 00 b9 	breq	8000b81a <_dtoa_r+0xb92>
8000b6ac:	58 05       	cp.w	r5,0
8000b6ae:	e0 8a 00 08 	brle	8000b6be <_dtoa_r+0xa36>
8000b6b2:	08 9b       	mov	r11,r4
8000b6b4:	0a 9a       	mov	r10,r5
8000b6b6:	0e 9c       	mov	r12,r7
8000b6b8:	f0 1f 00 98 	mcall	8000b918 <_dtoa_r+0xc90>
8000b6bc:	18 94       	mov	r4,r12
8000b6be:	40 6b       	lddsp	r11,sp[0x18]
8000b6c0:	58 0b       	cp.w	r11,0
8000b6c2:	c0 31       	brne	8000b6c8 <_dtoa_r+0xa40>
8000b6c4:	08 9c       	mov	r12,r4
8000b6c6:	c1 38       	rjmp	8000b6ec <_dtoa_r+0xa64>
8000b6c8:	68 1b       	ld.w	r11,r4[0x4]
8000b6ca:	0e 9c       	mov	r12,r7
8000b6cc:	f0 1f 00 96 	mcall	8000b924 <_dtoa_r+0xc9c>
8000b6d0:	68 4a       	ld.w	r10,r4[0x10]
8000b6d2:	18 95       	mov	r5,r12
8000b6d4:	e8 cb ff f4 	sub	r11,r4,-12
8000b6d8:	2f ea       	sub	r10,-2
8000b6da:	2f 4c       	sub	r12,-12
8000b6dc:	a3 6a       	lsl	r10,0x2
8000b6de:	f0 1f 00 93 	mcall	8000b928 <_dtoa_r+0xca0>
8000b6e2:	0a 9b       	mov	r11,r5
8000b6e4:	30 1a       	mov	r10,1
8000b6e6:	0e 9c       	mov	r12,r7
8000b6e8:	f0 1f 00 8c 	mcall	8000b918 <_dtoa_r+0xc90>
8000b6ec:	50 44       	stdsp	sp[0x10],r4
8000b6ee:	40 3a       	lddsp	r10,sp[0xc]
8000b6f0:	30 19       	mov	r9,1
8000b6f2:	f5 da c0 01 	bfextu	r10,r10,0x0,0x1
8000b6f6:	18 94       	mov	r4,r12
8000b6f8:	50 da       	stdsp	sp[0x34],r10
8000b6fa:	40 85       	lddsp	r5,sp[0x20]
8000b6fc:	50 69       	stdsp	sp[0x18],r9
8000b6fe:	50 26       	stdsp	sp[0x8],r6
8000b700:	50 e1       	stdsp	sp[0x38],r1
8000b702:	04 9b       	mov	r11,r2
8000b704:	06 9c       	mov	r12,r3
8000b706:	f0 1f 00 8a 	mcall	8000b92c <_dtoa_r+0xca4>
8000b70a:	40 4b       	lddsp	r11,sp[0x10]
8000b70c:	f8 c0 ff d0 	sub	r0,r12,-48
8000b710:	06 9c       	mov	r12,r3
8000b712:	f0 1f 00 83 	mcall	8000b91c <_dtoa_r+0xc94>
8000b716:	08 9a       	mov	r10,r4
8000b718:	50 9c       	stdsp	sp[0x24],r12
8000b71a:	04 9b       	mov	r11,r2
8000b71c:	0e 9c       	mov	r12,r7
8000b71e:	f0 1f 00 85 	mcall	8000b930 <_dtoa_r+0xca8>
8000b722:	18 91       	mov	r1,r12
8000b724:	78 38       	ld.w	r8,r12[0xc]
8000b726:	58 08       	cp.w	r8,0
8000b728:	c0 30       	breq	8000b72e <_dtoa_r+0xaa6>
8000b72a:	30 16       	mov	r6,1
8000b72c:	c0 68       	rjmp	8000b738 <_dtoa_r+0xab0>
8000b72e:	18 9b       	mov	r11,r12
8000b730:	06 9c       	mov	r12,r3
8000b732:	f0 1f 00 7b 	mcall	8000b91c <_dtoa_r+0xc94>
8000b736:	18 96       	mov	r6,r12
8000b738:	0e 9c       	mov	r12,r7
8000b73a:	02 9b       	mov	r11,r1
8000b73c:	f0 1f 00 75 	mcall	8000b910 <_dtoa_r+0xc88>
8000b740:	40 cc       	lddsp	r12,sp[0x30]
8000b742:	ed ec 10 08 	or	r8,r6,r12
8000b746:	c1 11       	brne	8000b768 <_dtoa_r+0xae0>
8000b748:	40 db       	lddsp	r11,sp[0x34]
8000b74a:	58 0b       	cp.w	r11,0
8000b74c:	c0 e1       	brne	8000b768 <_dtoa_r+0xae0>
8000b74e:	40 26       	lddsp	r6,sp[0x8]
8000b750:	e0 40 00 39 	cp.w	r0,57
8000b754:	c3 40       	breq	8000b7bc <_dtoa_r+0xb34>
8000b756:	50 66       	stdsp	sp[0x18],r6
8000b758:	40 9a       	lddsp	r10,sp[0x24]
8000b75a:	e0 c8 ff ff 	sub	r8,r0,-1
8000b75e:	58 0a       	cp.w	r10,0
8000b760:	f0 00 17 90 	movgt	r0,r8
8000b764:	0a c0       	st.b	r5++,r0
8000b766:	ca 68       	rjmp	8000b8b2 <_dtoa_r+0xc2a>
8000b768:	40 99       	lddsp	r9,sp[0x24]
8000b76a:	58 09       	cp.w	r9,0
8000b76c:	c0 85       	brlt	8000b77c <_dtoa_r+0xaf4>
8000b76e:	12 98       	mov	r8,r9
8000b770:	40 cc       	lddsp	r12,sp[0x30]
8000b772:	18 48       	or	r8,r12
8000b774:	c1 d1       	brne	8000b7ae <_dtoa_r+0xb26>
8000b776:	40 db       	lddsp	r11,sp[0x34]
8000b778:	58 0b       	cp.w	r11,0
8000b77a:	c1 a1       	brne	8000b7ae <_dtoa_r+0xb26>
8000b77c:	0c 99       	mov	r9,r6
8000b77e:	40 26       	lddsp	r6,sp[0x8]
8000b780:	58 09       	cp.w	r9,0
8000b782:	e0 8a 00 21 	brle	8000b7c4 <_dtoa_r+0xb3c>
8000b786:	06 9b       	mov	r11,r3
8000b788:	30 1a       	mov	r10,1
8000b78a:	0e 9c       	mov	r12,r7
8000b78c:	f0 1f 00 63 	mcall	8000b918 <_dtoa_r+0xc90>
8000b790:	04 9b       	mov	r11,r2
8000b792:	18 93       	mov	r3,r12
8000b794:	f0 1f 00 62 	mcall	8000b91c <_dtoa_r+0xc94>
8000b798:	e0 89 00 06 	brgt	8000b7a4 <_dtoa_r+0xb1c>
8000b79c:	c1 41       	brne	8000b7c4 <_dtoa_r+0xb3c>
8000b79e:	ed b0 00 00 	bld	r0,0x0
8000b7a2:	c1 11       	brne	8000b7c4 <_dtoa_r+0xb3c>
8000b7a4:	e0 40 00 39 	cp.w	r0,57
8000b7a8:	c0 a0       	breq	8000b7bc <_dtoa_r+0xb34>
8000b7aa:	2f f0       	sub	r0,-1
8000b7ac:	c0 c8       	rjmp	8000b7c4 <_dtoa_r+0xb3c>
8000b7ae:	58 06       	cp.w	r6,0
8000b7b0:	e0 8a 00 0c 	brle	8000b7c8 <_dtoa_r+0xb40>
8000b7b4:	40 26       	lddsp	r6,sp[0x8]
8000b7b6:	e0 40 00 39 	cp.w	r0,57
8000b7ba:	c0 41       	brne	8000b7c2 <_dtoa_r+0xb3a>
8000b7bc:	33 98       	mov	r8,57
8000b7be:	0a c8       	st.b	r5++,r8
8000b7c0:	c6 78       	rjmp	8000b88e <_dtoa_r+0xc06>
8000b7c2:	2f f0       	sub	r0,-1
8000b7c4:	0a c0       	st.b	r5++,r0
8000b7c6:	c7 58       	rjmp	8000b8b0 <_dtoa_r+0xc28>
8000b7c8:	0a c0       	st.b	r5++,r0
8000b7ca:	40 6a       	lddsp	r10,sp[0x18]
8000b7cc:	40 e9       	lddsp	r9,sp[0x38]
8000b7ce:	12 3a       	cp.w	r10,r9
8000b7d0:	c4 30       	breq	8000b856 <_dtoa_r+0xbce>
8000b7d2:	06 9b       	mov	r11,r3
8000b7d4:	30 09       	mov	r9,0
8000b7d6:	30 aa       	mov	r10,10
8000b7d8:	0e 9c       	mov	r12,r7
8000b7da:	f0 1f 00 52 	mcall	8000b920 <_dtoa_r+0xc98>
8000b7de:	40 48       	lddsp	r8,sp[0x10]
8000b7e0:	18 93       	mov	r3,r12
8000b7e2:	08 38       	cp.w	r8,r4
8000b7e4:	c0 91       	brne	8000b7f6 <_dtoa_r+0xb6e>
8000b7e6:	10 9b       	mov	r11,r8
8000b7e8:	30 09       	mov	r9,0
8000b7ea:	30 aa       	mov	r10,10
8000b7ec:	0e 9c       	mov	r12,r7
8000b7ee:	f0 1f 00 4d 	mcall	8000b920 <_dtoa_r+0xc98>
8000b7f2:	50 4c       	stdsp	sp[0x10],r12
8000b7f4:	c0 e8       	rjmp	8000b810 <_dtoa_r+0xb88>
8000b7f6:	40 4b       	lddsp	r11,sp[0x10]
8000b7f8:	30 09       	mov	r9,0
8000b7fa:	30 aa       	mov	r10,10
8000b7fc:	0e 9c       	mov	r12,r7
8000b7fe:	f0 1f 00 49 	mcall	8000b920 <_dtoa_r+0xc98>
8000b802:	08 9b       	mov	r11,r4
8000b804:	50 4c       	stdsp	sp[0x10],r12
8000b806:	30 09       	mov	r9,0
8000b808:	30 aa       	mov	r10,10
8000b80a:	0e 9c       	mov	r12,r7
8000b80c:	f0 1f 00 45 	mcall	8000b920 <_dtoa_r+0xc98>
8000b810:	18 94       	mov	r4,r12
8000b812:	40 6c       	lddsp	r12,sp[0x18]
8000b814:	2f fc       	sub	r12,-1
8000b816:	50 6c       	stdsp	sp[0x18],r12
8000b818:	c7 5b       	rjmp	8000b702 <_dtoa_r+0xa7a>
8000b81a:	30 18       	mov	r8,1
8000b81c:	06 90       	mov	r0,r3
8000b81e:	40 85       	lddsp	r5,sp[0x20]
8000b820:	08 93       	mov	r3,r4
8000b822:	0c 94       	mov	r4,r6
8000b824:	10 96       	mov	r6,r8
8000b826:	04 9b       	mov	r11,r2
8000b828:	00 9c       	mov	r12,r0
8000b82a:	f0 1f 00 41 	mcall	8000b92c <_dtoa_r+0xca4>
8000b82e:	2d 0c       	sub	r12,-48
8000b830:	0a cc       	st.b	r5++,r12
8000b832:	02 36       	cp.w	r6,r1
8000b834:	c0 a4       	brge	8000b848 <_dtoa_r+0xbc0>
8000b836:	00 9b       	mov	r11,r0
8000b838:	30 09       	mov	r9,0
8000b83a:	30 aa       	mov	r10,10
8000b83c:	0e 9c       	mov	r12,r7
8000b83e:	2f f6       	sub	r6,-1
8000b840:	f0 1f 00 38 	mcall	8000b920 <_dtoa_r+0xc98>
8000b844:	18 90       	mov	r0,r12
8000b846:	cf 0b       	rjmp	8000b826 <_dtoa_r+0xb9e>
8000b848:	08 96       	mov	r6,r4
8000b84a:	30 0b       	mov	r11,0
8000b84c:	06 94       	mov	r4,r3
8000b84e:	50 4b       	stdsp	sp[0x10],r11
8000b850:	00 93       	mov	r3,r0
8000b852:	18 90       	mov	r0,r12
8000b854:	c0 28       	rjmp	8000b858 <_dtoa_r+0xbd0>
8000b856:	40 26       	lddsp	r6,sp[0x8]
8000b858:	06 9b       	mov	r11,r3
8000b85a:	30 1a       	mov	r10,1
8000b85c:	0e 9c       	mov	r12,r7
8000b85e:	f0 1f 00 2f 	mcall	8000b918 <_dtoa_r+0xc90>
8000b862:	04 9b       	mov	r11,r2
8000b864:	18 93       	mov	r3,r12
8000b866:	f0 1f 00 2e 	mcall	8000b91c <_dtoa_r+0xc94>
8000b86a:	e0 89 00 12 	brgt	8000b88e <_dtoa_r+0xc06>
8000b86e:	c1 b1       	brne	8000b8a4 <_dtoa_r+0xc1c>
8000b870:	e1 d0 c0 01 	bfextu	r0,r0,0x0,0x1
8000b874:	c0 d1       	brne	8000b88e <_dtoa_r+0xc06>
8000b876:	c1 78       	rjmp	8000b8a4 <_dtoa_r+0xc1c>
8000b878:	40 89       	lddsp	r9,sp[0x20]
8000b87a:	12 38       	cp.w	r8,r9
8000b87c:	c0 30       	breq	8000b882 <_dtoa_r+0xbfa>
8000b87e:	10 95       	mov	r5,r8
8000b880:	c0 88       	rjmp	8000b890 <_dtoa_r+0xc08>
8000b882:	2f f6       	sub	r6,-1
8000b884:	50 66       	stdsp	sp[0x18],r6
8000b886:	33 18       	mov	r8,49
8000b888:	40 8c       	lddsp	r12,sp[0x20]
8000b88a:	b8 88       	st.b	r12[0x0],r8
8000b88c:	c1 38       	rjmp	8000b8b2 <_dtoa_r+0xc2a>
8000b88e:	33 9a       	mov	r10,57
8000b890:	0a 98       	mov	r8,r5
8000b892:	11 79       	ld.ub	r9,--r8
8000b894:	f4 09 18 00 	cp.b	r9,r10
8000b898:	cf 00       	breq	8000b878 <_dtoa_r+0xbf0>
8000b89a:	2f f9       	sub	r9,-1
8000b89c:	b0 89       	st.b	r8[0x0],r9
8000b89e:	c0 98       	rjmp	8000b8b0 <_dtoa_r+0xc28>
8000b8a0:	10 95       	mov	r5,r8
8000b8a2:	c0 28       	rjmp	8000b8a6 <_dtoa_r+0xc1e>
8000b8a4:	33 09       	mov	r9,48
8000b8a6:	0a 98       	mov	r8,r5
8000b8a8:	11 7a       	ld.ub	r10,--r8
8000b8aa:	f2 0a 18 00 	cp.b	r10,r9
8000b8ae:	cf 90       	breq	8000b8a0 <_dtoa_r+0xc18>
8000b8b0:	50 66       	stdsp	sp[0x18],r6
8000b8b2:	04 9b       	mov	r11,r2
8000b8b4:	0e 9c       	mov	r12,r7
8000b8b6:	f0 1f 00 17 	mcall	8000b910 <_dtoa_r+0xc88>
8000b8ba:	58 04       	cp.w	r4,0
8000b8bc:	c1 20       	breq	8000b8e0 <_dtoa_r+0xc58>
8000b8be:	40 4b       	lddsp	r11,sp[0x10]
8000b8c0:	08 3b       	cp.w	r11,r4
8000b8c2:	5f 19       	srne	r9
8000b8c4:	58 0b       	cp.w	r11,0
8000b8c6:	5f 18       	srne	r8
8000b8c8:	f3 e8 00 08 	and	r8,r9,r8
8000b8cc:	c0 40       	breq	8000b8d4 <_dtoa_r+0xc4c>
8000b8ce:	0e 9c       	mov	r12,r7
8000b8d0:	f0 1f 00 10 	mcall	8000b910 <_dtoa_r+0xc88>
8000b8d4:	08 9b       	mov	r11,r4
8000b8d6:	0e 9c       	mov	r12,r7
8000b8d8:	f0 1f 00 0e 	mcall	8000b910 <_dtoa_r+0xc88>
8000b8dc:	c0 28       	rjmp	8000b8e0 <_dtoa_r+0xc58>
8000b8de:	50 66       	stdsp	sp[0x18],r6
8000b8e0:	06 9b       	mov	r11,r3
8000b8e2:	0e 9c       	mov	r12,r7
8000b8e4:	f0 1f 00 0b 	mcall	8000b910 <_dtoa_r+0xc88>
8000b8e8:	30 08       	mov	r8,0
8000b8ea:	aa 88       	st.b	r5[0x0],r8
8000b8ec:	40 68       	lddsp	r8,sp[0x18]
8000b8ee:	41 5a       	lddsp	r10,sp[0x54]
8000b8f0:	2f f8       	sub	r8,-1
8000b8f2:	95 08       	st.w	r10[0x0],r8
8000b8f4:	41 29       	lddsp	r9,sp[0x48]
8000b8f6:	58 09       	cp.w	r9,0
8000b8f8:	c0 30       	breq	8000b8fe <_dtoa_r+0xc76>
8000b8fa:	41 28       	lddsp	r8,sp[0x48]
8000b8fc:	91 05       	st.w	r8[0x0],r5
8000b8fe:	40 8c       	lddsp	r12,sp[0x20]
8000b900:	2e 6d       	sub	sp,-104
8000b902:	d8 32       	popm	r0-r7,pc
8000b904:	80 00       	ld.sh	r0,r0[0x0]
8000b906:	c4 40       	breq	8000b98e <_fflush_r+0x4e>
8000b908:	80 00       	ld.sh	r0,r0[0x0]
8000b90a:	c4 e0       	breq	8000b9a6 <_fflush_r+0x66>
8000b90c:	80 00       	ld.sh	r0,r0[0x0]
8000b90e:	c3 3c       	rcall	8000b974 <_fflush_r+0x34>
8000b910:	80 00       	ld.sh	r0,r0[0x0]
8000b912:	c0 6c       	rcall	8000b91e <_dtoa_r+0xc96>
8000b914:	80 00       	ld.sh	r0,r0[0x0]
8000b916:	bf 34       	mul	r4,pc
8000b918:	80 00       	ld.sh	r0,r0[0x0]
8000b91a:	c2 a8       	rjmp	8000b96e <_fflush_r+0x2e>
8000b91c:	80 00       	ld.sh	r0,r0[0x0]
8000b91e:	c0 38       	rjmp	8000b924 <_dtoa_r+0xc9c>
8000b920:	80 00       	ld.sh	r0,r0[0x0]
8000b922:	c4 58       	rjmp	8000b9ac <_fflush_r+0x6c>
8000b924:	80 00       	ld.sh	r0,r0[0x0]
8000b926:	c0 a4       	brge	8000b93a <__errno+0x6>
8000b928:	80 00       	ld.sh	r0,r0[0x0]
8000b92a:	7e 88       	ld.w	r8,pc[0x20]
8000b92c:	80 00       	ld.sh	r0,r0[0x0]
8000b92e:	ab 64       	lsl	r4,0xa
8000b930:	80 00       	ld.sh	r0,r0[0x0]
8000b932:	c1 d0       	breq	8000b96c <_fflush_r+0x2c>

8000b934 <__errno>:
8000b934:	48 28       	lddpc	r8,8000b93c <__errno+0x8>
8000b936:	70 0c       	ld.w	r12,r8[0x0]
8000b938:	2f 4c       	sub	r12,-12
8000b93a:	5e fc       	retal	r12
8000b93c:	00 00       	add	r0,r0
8000b93e:	01 c4       	ld.ub	r4,r0[0x4]

8000b940 <_fflush_r>:
8000b940:	d4 21       	pushm	r4-r7,lr
8000b942:	16 97       	mov	r7,r11
8000b944:	18 96       	mov	r6,r12
8000b946:	76 48       	ld.w	r8,r11[0x10]
8000b948:	58 08       	cp.w	r8,0
8000b94a:	c7 b0       	breq	8000ba40 <_fflush_r+0x100>
8000b94c:	58 0c       	cp.w	r12,0
8000b94e:	c0 60       	breq	8000b95a <_fflush_r+0x1a>
8000b950:	78 68       	ld.w	r8,r12[0x18]
8000b952:	58 08       	cp.w	r8,0
8000b954:	c0 31       	brne	8000b95a <_fflush_r+0x1a>
8000b956:	f0 1f 00 3c 	mcall	8000ba44 <_fflush_r+0x104>
8000b95a:	4b c8       	lddpc	r8,8000ba48 <_fflush_r+0x108>
8000b95c:	10 37       	cp.w	r7,r8
8000b95e:	c0 31       	brne	8000b964 <_fflush_r+0x24>
8000b960:	6c 07       	ld.w	r7,r6[0x0]
8000b962:	c0 a8       	rjmp	8000b976 <_fflush_r+0x36>
8000b964:	4b a8       	lddpc	r8,8000ba4c <_fflush_r+0x10c>
8000b966:	10 37       	cp.w	r7,r8
8000b968:	c0 31       	brne	8000b96e <_fflush_r+0x2e>
8000b96a:	6c 17       	ld.w	r7,r6[0x4]
8000b96c:	c0 58       	rjmp	8000b976 <_fflush_r+0x36>
8000b96e:	4b 98       	lddpc	r8,8000ba50 <_fflush_r+0x110>
8000b970:	10 37       	cp.w	r7,r8
8000b972:	c0 21       	brne	8000b976 <_fflush_r+0x36>
8000b974:	6c 27       	ld.w	r7,r6[0x8]
8000b976:	8e 6a       	ld.sh	r10,r7[0xc]
8000b978:	ed ba 00 03 	bld	r10,0x3
8000b97c:	c4 10       	breq	8000b9fe <_fflush_r+0xbe>
8000b97e:	ab ba       	sbr	r10,0xb
8000b980:	ae 6a       	st.h	r7[0xc],r10
8000b982:	6e 18       	ld.w	r8,r7[0x4]
8000b984:	58 08       	cp.w	r8,0
8000b986:	e0 89 00 06 	brgt	8000b992 <_fflush_r+0x52>
8000b98a:	6f 08       	ld.w	r8,r7[0x40]
8000b98c:	58 08       	cp.w	r8,0
8000b98e:	e0 8a 00 59 	brle	8000ba40 <_fflush_r+0x100>
8000b992:	6e b8       	ld.w	r8,r7[0x2c]
8000b994:	58 08       	cp.w	r8,0
8000b996:	c5 50       	breq	8000ba40 <_fflush_r+0x100>
8000b998:	e2 1a 10 00 	andl	r10,0x1000,COH
8000b99c:	c0 30       	breq	8000b9a2 <_fflush_r+0x62>
8000b99e:	6f 55       	ld.w	r5,r7[0x54]
8000b9a0:	c0 f8       	rjmp	8000b9be <_fflush_r+0x7e>
8000b9a2:	30 19       	mov	r9,1
8000b9a4:	6e 8b       	ld.w	r11,r7[0x20]
8000b9a6:	0c 9c       	mov	r12,r6
8000b9a8:	5d 18       	icall	r8
8000b9aa:	18 95       	mov	r5,r12
8000b9ac:	5b fc       	cp.w	r12,-1
8000b9ae:	c0 81       	brne	8000b9be <_fflush_r+0x7e>
8000b9b0:	6c 38       	ld.w	r8,r6[0xc]
8000b9b2:	59 d8       	cp.w	r8,29
8000b9b4:	c4 60       	breq	8000ba40 <_fflush_r+0x100>
8000b9b6:	8e 68       	ld.sh	r8,r7[0xc]
8000b9b8:	a7 a8       	sbr	r8,0x6
8000b9ba:	ae 68       	st.h	r7[0xc],r8
8000b9bc:	d8 22       	popm	r4-r7,pc
8000b9be:	8e 68       	ld.sh	r8,r7[0xc]
8000b9c0:	ed b8 00 02 	bld	r8,0x2
8000b9c4:	c0 81       	brne	8000b9d4 <_fflush_r+0x94>
8000b9c6:	6e 18       	ld.w	r8,r7[0x4]
8000b9c8:	10 15       	sub	r5,r8
8000b9ca:	6e d8       	ld.w	r8,r7[0x34]
8000b9cc:	58 08       	cp.w	r8,0
8000b9ce:	c0 30       	breq	8000b9d4 <_fflush_r+0x94>
8000b9d0:	6f 08       	ld.w	r8,r7[0x40]
8000b9d2:	10 15       	sub	r5,r8
8000b9d4:	6e b8       	ld.w	r8,r7[0x2c]
8000b9d6:	0c 9c       	mov	r12,r6
8000b9d8:	30 09       	mov	r9,0
8000b9da:	0a 9a       	mov	r10,r5
8000b9dc:	6e 8b       	ld.w	r11,r7[0x20]
8000b9de:	5d 18       	icall	r8
8000b9e0:	8e 68       	ld.sh	r8,r7[0xc]
8000b9e2:	0a 3c       	cp.w	r12,r5
8000b9e4:	c2 61       	brne	8000ba30 <_fflush_r+0xf0>
8000b9e6:	ab d8       	cbr	r8,0xb
8000b9e8:	30 0c       	mov	r12,0
8000b9ea:	6e 49       	ld.w	r9,r7[0x10]
8000b9ec:	ae 68       	st.h	r7[0xc],r8
8000b9ee:	8f 1c       	st.w	r7[0x4],r12
8000b9f0:	8f 09       	st.w	r7[0x0],r9
8000b9f2:	ed b8 00 0c 	bld	r8,0xc
8000b9f6:	c2 51       	brne	8000ba40 <_fflush_r+0x100>
8000b9f8:	ef 45 00 54 	st.w	r7[84],r5
8000b9fc:	d8 22       	popm	r4-r7,pc
8000b9fe:	6e 45       	ld.w	r5,r7[0x10]
8000ba00:	58 05       	cp.w	r5,0
8000ba02:	c1 f0       	breq	8000ba40 <_fflush_r+0x100>
8000ba04:	6e 04       	ld.w	r4,r7[0x0]
8000ba06:	8f 05       	st.w	r7[0x0],r5
8000ba08:	f5 da c0 02 	bfextu	r10,r10,0x0,0x2
8000ba0c:	c0 30       	breq	8000ba12 <_fflush_r+0xd2>
8000ba0e:	30 08       	mov	r8,0
8000ba10:	c0 28       	rjmp	8000ba14 <_fflush_r+0xd4>
8000ba12:	6e 58       	ld.w	r8,r7[0x14]
8000ba14:	8f 28       	st.w	r7[0x8],r8
8000ba16:	0a 14       	sub	r4,r5
8000ba18:	c1 18       	rjmp	8000ba3a <_fflush_r+0xfa>
8000ba1a:	08 99       	mov	r9,r4
8000ba1c:	0a 9a       	mov	r10,r5
8000ba1e:	6e a8       	ld.w	r8,r7[0x28]
8000ba20:	6e 8b       	ld.w	r11,r7[0x20]
8000ba22:	0c 9c       	mov	r12,r6
8000ba24:	5d 18       	icall	r8
8000ba26:	18 14       	sub	r4,r12
8000ba28:	58 0c       	cp.w	r12,0
8000ba2a:	e0 89 00 07 	brgt	8000ba38 <_fflush_r+0xf8>
8000ba2e:	8e 68       	ld.sh	r8,r7[0xc]
8000ba30:	a7 a8       	sbr	r8,0x6
8000ba32:	3f fc       	mov	r12,-1
8000ba34:	ae 68       	st.h	r7[0xc],r8
8000ba36:	d8 22       	popm	r4-r7,pc
8000ba38:	18 05       	add	r5,r12
8000ba3a:	58 04       	cp.w	r4,0
8000ba3c:	fe 99 ff ef 	brgt	8000ba1a <_fflush_r+0xda>
8000ba40:	d8 2a       	popm	r4-r7,pc,r12=0
8000ba42:	00 00       	add	r0,r0
8000ba44:	80 00       	ld.sh	r0,r0[0x0]
8000ba46:	bb 18       	ld.d	r8,--sp
8000ba48:	80 00       	ld.sh	r0,r0[0x0]
8000ba4a:	df 64       	*unknown*
8000ba4c:	80 00       	ld.sh	r0,r0[0x0]
8000ba4e:	df 84       	*unknown*
8000ba50:	80 00       	ld.sh	r0,r0[0x0]
8000ba52:	df a4       	*unknown*

8000ba54 <__sfp_lock_acquire>:
8000ba54:	5e fc       	retal	r12

8000ba56 <__sfp_lock_release>:
8000ba56:	5e fc       	retal	r12

8000ba58 <_cleanup_r>:
8000ba58:	d4 01       	pushm	lr
8000ba5a:	48 3b       	lddpc	r11,8000ba64 <_cleanup_r+0xc>
8000ba5c:	f0 1f 00 03 	mcall	8000ba68 <_cleanup_r+0x10>
8000ba60:	d8 02       	popm	pc
8000ba62:	00 00       	add	r0,r0
8000ba64:	80 00       	ld.sh	r0,r0[0x0]
8000ba66:	c7 ec       	rcall	8000bb62 <__sinit+0x4a>
8000ba68:	80 00       	ld.sh	r0,r0[0x0]
8000ba6a:	be 0c       	st.h	pc[0x0],r12

8000ba6c <__sfmoreglue>:
8000ba6c:	d4 21       	pushm	r4-r7,lr
8000ba6e:	16 95       	mov	r5,r11
8000ba70:	f6 06 10 5c 	mul	r6,r11,92
8000ba74:	ec cb ff f4 	sub	r11,r6,-12
8000ba78:	f0 1f 00 07 	mcall	8000ba94 <__sfmoreglue+0x28>
8000ba7c:	18 97       	mov	r7,r12
8000ba7e:	c0 90       	breq	8000ba90 <__sfmoreglue+0x24>
8000ba80:	99 15       	st.w	r12[0x4],r5
8000ba82:	30 0b       	mov	r11,0
8000ba84:	2f 4c       	sub	r12,-12
8000ba86:	0c 9a       	mov	r10,r6
8000ba88:	8f 2c       	st.w	r7[0x8],r12
8000ba8a:	8f 0b       	st.w	r7[0x0],r11
8000ba8c:	f0 1f 00 03 	mcall	8000ba98 <__sfmoreglue+0x2c>
8000ba90:	0e 9c       	mov	r12,r7
8000ba92:	d8 22       	popm	r4-r7,pc
8000ba94:	80 00       	ld.sh	r0,r0[0x0]
8000ba96:	7a 00       	ld.w	r0,sp[0x0]
8000ba98:	80 00       	ld.sh	r0,r0[0x0]
8000ba9a:	80 0e       	ld.sh	lr,r0[0x0]

8000ba9c <__sfp>:
8000ba9c:	d4 21       	pushm	r4-r7,lr
8000ba9e:	49 c8       	lddpc	r8,8000bb0c <__sfp+0x70>
8000baa0:	18 96       	mov	r6,r12
8000baa2:	70 07       	ld.w	r7,r8[0x0]
8000baa4:	6e 68       	ld.w	r8,r7[0x18]
8000baa6:	58 08       	cp.w	r8,0
8000baa8:	c0 41       	brne	8000bab0 <__sfp+0x14>
8000baaa:	0e 9c       	mov	r12,r7
8000baac:	f0 1f 00 19 	mcall	8000bb10 <__sfp+0x74>
8000bab0:	ee c7 ff 28 	sub	r7,r7,-216
8000bab4:	30 05       	mov	r5,0
8000bab6:	6e 2c       	ld.w	r12,r7[0x8]
8000bab8:	6e 18       	ld.w	r8,r7[0x4]
8000baba:	c0 68       	rjmp	8000bac6 <__sfp+0x2a>
8000babc:	98 69       	ld.sh	r9,r12[0xc]
8000babe:	ea 09 19 00 	cp.h	r9,r5
8000bac2:	c1 20       	breq	8000bae6 <__sfp+0x4a>
8000bac4:	2a 4c       	sub	r12,-92
8000bac6:	20 18       	sub	r8,1
8000bac8:	cf a7       	brpl	8000babc <__sfp+0x20>
8000baca:	6e 08       	ld.w	r8,r7[0x0]
8000bacc:	58 08       	cp.w	r8,0
8000bace:	c0 71       	brne	8000badc <__sfp+0x40>
8000bad0:	30 4b       	mov	r11,4
8000bad2:	0c 9c       	mov	r12,r6
8000bad4:	f0 1f 00 10 	mcall	8000bb14 <__sfp+0x78>
8000bad8:	8f 0c       	st.w	r7[0x0],r12
8000bada:	c0 30       	breq	8000bae0 <__sfp+0x44>
8000badc:	6e 07       	ld.w	r7,r7[0x0]
8000bade:	ce cb       	rjmp	8000bab6 <__sfp+0x1a>
8000bae0:	30 c8       	mov	r8,12
8000bae2:	8d 38       	st.w	r6[0xc],r8
8000bae4:	d8 22       	popm	r4-r7,pc
8000bae6:	30 08       	mov	r8,0
8000bae8:	f9 48 00 4c 	st.w	r12[76],r8
8000baec:	99 08       	st.w	r12[0x0],r8
8000baee:	99 28       	st.w	r12[0x8],r8
8000baf0:	99 18       	st.w	r12[0x4],r8
8000baf2:	99 48       	st.w	r12[0x10],r8
8000baf4:	99 58       	st.w	r12[0x14],r8
8000baf6:	99 68       	st.w	r12[0x18],r8
8000baf8:	99 d8       	st.w	r12[0x34],r8
8000bafa:	99 e8       	st.w	r12[0x38],r8
8000bafc:	f9 48 00 48 	st.w	r12[72],r8
8000bb00:	3f f8       	mov	r8,-1
8000bb02:	b8 78       	st.h	r12[0xe],r8
8000bb04:	30 18       	mov	r8,1
8000bb06:	b8 68       	st.h	r12[0xc],r8
8000bb08:	d8 22       	popm	r4-r7,pc
8000bb0a:	00 00       	add	r0,r0
8000bb0c:	80 00       	ld.sh	r0,r0[0x0]
8000bb0e:	db 7c       	*unknown*
8000bb10:	80 00       	ld.sh	r0,r0[0x0]
8000bb12:	bb 18       	ld.d	r8,--sp
8000bb14:	80 00       	ld.sh	r0,r0[0x0]
8000bb16:	ba 6c       	st.h	sp[0xc],r12

8000bb18 <__sinit>:
8000bb18:	d4 21       	pushm	r4-r7,lr
8000bb1a:	18 96       	mov	r6,r12
8000bb1c:	78 67       	ld.w	r7,r12[0x18]
8000bb1e:	58 07       	cp.w	r7,0
8000bb20:	c4 71       	brne	8000bbae <__sinit+0x96>
8000bb22:	4a 48       	lddpc	r8,8000bbb0 <__sinit+0x98>
8000bb24:	30 15       	mov	r5,1
8000bb26:	99 a8       	st.w	r12[0x28],r8
8000bb28:	f9 47 00 d8 	st.w	r12[216],r7
8000bb2c:	f9 47 00 dc 	st.w	r12[220],r7
8000bb30:	f9 47 00 e0 	st.w	r12[224],r7
8000bb34:	99 65       	st.w	r12[0x18],r5
8000bb36:	f0 1f 00 20 	mcall	8000bbb4 <__sinit+0x9c>
8000bb3a:	8d 0c       	st.w	r6[0x0],r12
8000bb3c:	0c 9c       	mov	r12,r6
8000bb3e:	f0 1f 00 1e 	mcall	8000bbb4 <__sinit+0x9c>
8000bb42:	8d 1c       	st.w	r6[0x4],r12
8000bb44:	0c 9c       	mov	r12,r6
8000bb46:	f0 1f 00 1c 	mcall	8000bbb4 <__sinit+0x9c>
8000bb4a:	6c 09       	ld.w	r9,r6[0x0]
8000bb4c:	30 48       	mov	r8,4
8000bb4e:	93 07       	st.w	r9[0x0],r7
8000bb50:	b2 68       	st.h	r9[0xc],r8
8000bb52:	93 17       	st.w	r9[0x4],r7
8000bb54:	93 27       	st.w	r9[0x8],r7
8000bb56:	6c 18       	ld.w	r8,r6[0x4]
8000bb58:	b2 77       	st.h	r9[0xe],r7
8000bb5a:	93 47       	st.w	r9[0x10],r7
8000bb5c:	93 57       	st.w	r9[0x14],r7
8000bb5e:	93 67       	st.w	r9[0x18],r7
8000bb60:	93 89       	st.w	r9[0x20],r9
8000bb62:	91 07       	st.w	r8[0x0],r7
8000bb64:	91 17       	st.w	r8[0x4],r7
8000bb66:	91 27       	st.w	r8[0x8],r7
8000bb68:	49 4e       	lddpc	lr,8000bbb8 <__sinit+0xa0>
8000bb6a:	49 5b       	lddpc	r11,8000bbbc <__sinit+0xa4>
8000bb6c:	93 9e       	st.w	r9[0x24],lr
8000bb6e:	93 ab       	st.w	r9[0x28],r11
8000bb70:	49 4a       	lddpc	r10,8000bbc0 <__sinit+0xa8>
8000bb72:	49 54       	lddpc	r4,8000bbc4 <__sinit+0xac>
8000bb74:	93 ba       	st.w	r9[0x2c],r10
8000bb76:	93 c4       	st.w	r9[0x30],r4
8000bb78:	30 99       	mov	r9,9
8000bb7a:	b0 69       	st.h	r8[0xc],r9
8000bb7c:	b0 75       	st.h	r8[0xe],r5
8000bb7e:	91 c4       	st.w	r8[0x30],r4
8000bb80:	91 47       	st.w	r8[0x10],r7
8000bb82:	91 57       	st.w	r8[0x14],r7
8000bb84:	91 67       	st.w	r8[0x18],r7
8000bb86:	91 88       	st.w	r8[0x20],r8
8000bb88:	91 9e       	st.w	r8[0x24],lr
8000bb8a:	91 ab       	st.w	r8[0x28],r11
8000bb8c:	91 ba       	st.w	r8[0x2c],r10
8000bb8e:	8d 2c       	st.w	r6[0x8],r12
8000bb90:	31 28       	mov	r8,18
8000bb92:	99 07       	st.w	r12[0x0],r7
8000bb94:	b8 68       	st.h	r12[0xc],r8
8000bb96:	99 17       	st.w	r12[0x4],r7
8000bb98:	99 27       	st.w	r12[0x8],r7
8000bb9a:	30 28       	mov	r8,2
8000bb9c:	b8 78       	st.h	r12[0xe],r8
8000bb9e:	99 c4       	st.w	r12[0x30],r4
8000bba0:	99 67       	st.w	r12[0x18],r7
8000bba2:	99 9e       	st.w	r12[0x24],lr
8000bba4:	99 ab       	st.w	r12[0x28],r11
8000bba6:	99 ba       	st.w	r12[0x2c],r10
8000bba8:	99 47       	st.w	r12[0x10],r7
8000bbaa:	99 57       	st.w	r12[0x14],r7
8000bbac:	99 8c       	st.w	r12[0x20],r12
8000bbae:	d8 22       	popm	r4-r7,pc
8000bbb0:	80 00       	ld.sh	r0,r0[0x0]
8000bbb2:	ba 58       	st.h	sp[0xa],r8
8000bbb4:	80 00       	ld.sh	r0,r0[0x0]
8000bbb6:	ba 9c       	st.b	sp[0x1],r12
8000bbb8:	80 00       	ld.sh	r0,r0[0x0]
8000bbba:	c6 44       	brge	8000bc82 <_free_r+0x12>
8000bbbc:	80 00       	ld.sh	r0,r0[0x0]
8000bbbe:	c6 0c       	rcall	8000bc7e <_free_r+0xe>
8000bbc0:	80 00       	ld.sh	r0,r0[0x0]
8000bbc2:	c5 e8       	rjmp	8000bc7e <_free_r+0xe>
8000bbc4:	80 00       	ld.sh	r0,r0[0x0]
8000bbc6:	c5 d8       	rjmp	8000bc80 <_free_r+0x10>

8000bbc8 <_malloc_trim_r>:
8000bbc8:	d4 21       	pushm	r4-r7,lr
8000bbca:	16 95       	mov	r5,r11
8000bbcc:	18 97       	mov	r7,r12
8000bbce:	f0 1f 00 23 	mcall	8000bc58 <_malloc_trim_r+0x90>
8000bbd2:	4a 34       	lddpc	r4,8000bc5c <_malloc_trim_r+0x94>
8000bbd4:	68 28       	ld.w	r8,r4[0x8]
8000bbd6:	70 16       	ld.w	r6,r8[0x4]
8000bbd8:	e0 16 ff fc 	andl	r6,0xfffc
8000bbdc:	ec c8 ff 91 	sub	r8,r6,-111
8000bbe0:	f0 05 01 05 	sub	r5,r8,r5
8000bbe4:	e0 15 ff 80 	andl	r5,0xff80
8000bbe8:	ea c5 00 80 	sub	r5,r5,128
8000bbec:	e0 45 00 7f 	cp.w	r5,127
8000bbf0:	e0 8a 00 23 	brle	8000bc36 <_malloc_trim_r+0x6e>
8000bbf4:	30 0b       	mov	r11,0
8000bbf6:	0e 9c       	mov	r12,r7
8000bbf8:	f0 1f 00 1a 	mcall	8000bc60 <_malloc_trim_r+0x98>
8000bbfc:	68 28       	ld.w	r8,r4[0x8]
8000bbfe:	0c 08       	add	r8,r6
8000bc00:	10 3c       	cp.w	r12,r8
8000bc02:	c1 a1       	brne	8000bc36 <_malloc_trim_r+0x6e>
8000bc04:	ea 0b 11 00 	rsub	r11,r5,0
8000bc08:	0e 9c       	mov	r12,r7
8000bc0a:	f0 1f 00 16 	mcall	8000bc60 <_malloc_trim_r+0x98>
8000bc0e:	5b fc       	cp.w	r12,-1
8000bc10:	c1 71       	brne	8000bc3e <_malloc_trim_r+0x76>
8000bc12:	30 0b       	mov	r11,0
8000bc14:	0e 9c       	mov	r12,r7
8000bc16:	f0 1f 00 13 	mcall	8000bc60 <_malloc_trim_r+0x98>
8000bc1a:	68 28       	ld.w	r8,r4[0x8]
8000bc1c:	f8 08 01 09 	sub	r9,r12,r8
8000bc20:	58 f9       	cp.w	r9,15
8000bc22:	e0 8a 00 0a 	brle	8000bc36 <_malloc_trim_r+0x6e>
8000bc26:	a1 a9       	sbr	r9,0x0
8000bc28:	91 19       	st.w	r8[0x4],r9
8000bc2a:	48 f8       	lddpc	r8,8000bc64 <_malloc_trim_r+0x9c>
8000bc2c:	70 09       	ld.w	r9,r8[0x0]
8000bc2e:	48 f8       	lddpc	r8,8000bc68 <_malloc_trim_r+0xa0>
8000bc30:	f8 09 01 09 	sub	r9,r12,r9
8000bc34:	91 09       	st.w	r8[0x0],r9
8000bc36:	0e 9c       	mov	r12,r7
8000bc38:	f0 1f 00 0d 	mcall	8000bc6c <_malloc_trim_r+0xa4>
8000bc3c:	d8 2a       	popm	r4-r7,pc,r12=0
8000bc3e:	68 28       	ld.w	r8,r4[0x8]
8000bc40:	0a 16       	sub	r6,r5
8000bc42:	a1 a6       	sbr	r6,0x0
8000bc44:	91 16       	st.w	r8[0x4],r6
8000bc46:	48 98       	lddpc	r8,8000bc68 <_malloc_trim_r+0xa0>
8000bc48:	70 09       	ld.w	r9,r8[0x0]
8000bc4a:	0a 19       	sub	r9,r5
8000bc4c:	0e 9c       	mov	r12,r7
8000bc4e:	91 09       	st.w	r8[0x0],r9
8000bc50:	f0 1f 00 07 	mcall	8000bc6c <_malloc_trim_r+0xa4>
8000bc54:	da 2a       	popm	r4-r7,pc,r12=1
8000bc56:	00 00       	add	r0,r0
8000bc58:	80 00       	ld.sh	r0,r0[0x0]
8000bc5a:	80 1c       	ld.sh	r12,r0[0x2]
8000bc5c:	00 00       	add	r0,r0
8000bc5e:	01 c8       	ld.ub	r8,r0[0x4]
8000bc60:	80 00       	ld.sh	r0,r0[0x0]
8000bc62:	83 a4       	st.w	r1[0x28],r4
8000bc64:	00 00       	add	r0,r0
8000bc66:	05 d4       	ld.ub	r4,r2[0x5]
8000bc68:	00 00       	add	r0,r0
8000bc6a:	0f 58       	ld.sh	r8,--r7
8000bc6c:	80 00       	ld.sh	r0,r0[0x0]
8000bc6e:	80 1e       	ld.sh	lr,r0[0x2]

8000bc70 <_free_r>:
8000bc70:	d4 21       	pushm	r4-r7,lr
8000bc72:	16 96       	mov	r6,r11
8000bc74:	18 97       	mov	r7,r12
8000bc76:	58 0b       	cp.w	r11,0
8000bc78:	e0 80 00 c6 	breq	8000be04 <_free_r+0x194>
8000bc7c:	f0 1f 00 4b 	mcall	8000bda8 <_free_r+0x138>
8000bc80:	20 86       	sub	r6,8
8000bc82:	4c ba       	lddpc	r10,8000bdac <_free_r+0x13c>
8000bc84:	6c 18       	ld.w	r8,r6[0x4]
8000bc86:	74 2e       	ld.w	lr,r10[0x8]
8000bc88:	f9 d8 c0 01 	bfextu	r12,r8,0x0,0x1
8000bc8c:	a1 c8       	cbr	r8,0x0
8000bc8e:	ec 08 00 09 	add	r9,r6,r8
8000bc92:	72 1b       	ld.w	r11,r9[0x4]
8000bc94:	e0 1b ff fc 	andl	r11,0xfffc
8000bc98:	1c 39       	cp.w	r9,lr
8000bc9a:	c1 d1       	brne	8000bcd4 <_free_r+0x64>
8000bc9c:	f6 08 00 08 	add	r8,r11,r8
8000bca0:	58 0c       	cp.w	r12,0
8000bca2:	c0 81       	brne	8000bcb2 <_free_r+0x42>
8000bca4:	6c 09       	ld.w	r9,r6[0x0]
8000bca6:	12 16       	sub	r6,r9
8000bca8:	12 08       	add	r8,r9
8000bcaa:	6c 3b       	ld.w	r11,r6[0xc]
8000bcac:	6c 29       	ld.w	r9,r6[0x8]
8000bcae:	97 29       	st.w	r11[0x8],r9
8000bcb0:	93 3b       	st.w	r9[0xc],r11
8000bcb2:	10 99       	mov	r9,r8
8000bcb4:	95 26       	st.w	r10[0x8],r6
8000bcb6:	a1 a9       	sbr	r9,0x0
8000bcb8:	8d 19       	st.w	r6[0x4],r9
8000bcba:	4b e9       	lddpc	r9,8000bdb0 <_free_r+0x140>
8000bcbc:	72 09       	ld.w	r9,r9[0x0]
8000bcbe:	12 38       	cp.w	r8,r9
8000bcc0:	c0 63       	brcs	8000bccc <_free_r+0x5c>
8000bcc2:	4b d8       	lddpc	r8,8000bdb4 <_free_r+0x144>
8000bcc4:	0e 9c       	mov	r12,r7
8000bcc6:	70 0b       	ld.w	r11,r8[0x0]
8000bcc8:	f0 1f 00 3c 	mcall	8000bdb8 <_free_r+0x148>
8000bccc:	0e 9c       	mov	r12,r7
8000bcce:	f0 1f 00 3c 	mcall	8000bdbc <_free_r+0x14c>
8000bcd2:	d8 22       	popm	r4-r7,pc
8000bcd4:	93 1b       	st.w	r9[0x4],r11
8000bcd6:	58 0c       	cp.w	r12,0
8000bcd8:	c0 30       	breq	8000bcde <_free_r+0x6e>
8000bcda:	30 0c       	mov	r12,0
8000bcdc:	c0 e8       	rjmp	8000bcf8 <_free_r+0x88>
8000bcde:	6c 0e       	ld.w	lr,r6[0x0]
8000bce0:	f4 c5 ff f8 	sub	r5,r10,-8
8000bce4:	1c 08       	add	r8,lr
8000bce6:	1c 16       	sub	r6,lr
8000bce8:	6c 2e       	ld.w	lr,r6[0x8]
8000bcea:	0a 3e       	cp.w	lr,r5
8000bcec:	c0 31       	brne	8000bcf2 <_free_r+0x82>
8000bcee:	30 1c       	mov	r12,1
8000bcf0:	c0 48       	rjmp	8000bcf8 <_free_r+0x88>
8000bcf2:	6c 35       	ld.w	r5,r6[0xc]
8000bcf4:	8b 2e       	st.w	r5[0x8],lr
8000bcf6:	9d 35       	st.w	lr[0xc],r5
8000bcf8:	f2 0b 00 0e 	add	lr,r9,r11
8000bcfc:	7c 1e       	ld.w	lr,lr[0x4]
8000bcfe:	ed be 00 00 	bld	lr,0x0
8000bd02:	c1 30       	breq	8000bd28 <_free_r+0xb8>
8000bd04:	16 08       	add	r8,r11
8000bd06:	58 0c       	cp.w	r12,0
8000bd08:	c0 c1       	brne	8000bd20 <_free_r+0xb0>
8000bd0a:	4a 9e       	lddpc	lr,8000bdac <_free_r+0x13c>
8000bd0c:	72 2b       	ld.w	r11,r9[0x8]
8000bd0e:	2f 8e       	sub	lr,-8
8000bd10:	1c 3b       	cp.w	r11,lr
8000bd12:	c0 71       	brne	8000bd20 <_free_r+0xb0>
8000bd14:	97 36       	st.w	r11[0xc],r6
8000bd16:	97 26       	st.w	r11[0x8],r6
8000bd18:	8d 2b       	st.w	r6[0x8],r11
8000bd1a:	8d 3b       	st.w	r6[0xc],r11
8000bd1c:	30 1c       	mov	r12,1
8000bd1e:	c0 58       	rjmp	8000bd28 <_free_r+0xb8>
8000bd20:	72 2b       	ld.w	r11,r9[0x8]
8000bd22:	72 39       	ld.w	r9,r9[0xc]
8000bd24:	93 2b       	st.w	r9[0x8],r11
8000bd26:	97 39       	st.w	r11[0xc],r9
8000bd28:	10 99       	mov	r9,r8
8000bd2a:	ec 08 09 08 	st.w	r6[r8],r8
8000bd2e:	a1 a9       	sbr	r9,0x0
8000bd30:	8d 19       	st.w	r6[0x4],r9
8000bd32:	58 0c       	cp.w	r12,0
8000bd34:	c6 51       	brne	8000bdfe <_free_r+0x18e>
8000bd36:	e0 48 01 ff 	cp.w	r8,511
8000bd3a:	e0 8b 00 13 	brhi	8000bd60 <_free_r+0xf0>
8000bd3e:	a3 98       	lsr	r8,0x3
8000bd40:	f4 08 00 39 	add	r9,r10,r8<<0x3
8000bd44:	72 2b       	ld.w	r11,r9[0x8]
8000bd46:	8d 39       	st.w	r6[0xc],r9
8000bd48:	8d 2b       	st.w	r6[0x8],r11
8000bd4a:	97 36       	st.w	r11[0xc],r6
8000bd4c:	93 26       	st.w	r9[0x8],r6
8000bd4e:	a3 48       	asr	r8,0x2
8000bd50:	74 19       	ld.w	r9,r10[0x4]
8000bd52:	30 1b       	mov	r11,1
8000bd54:	f6 08 09 48 	lsl	r8,r11,r8
8000bd58:	f3 e8 10 08 	or	r8,r9,r8
8000bd5c:	95 18       	st.w	r10[0x4],r8
8000bd5e:	c5 08       	rjmp	8000bdfe <_free_r+0x18e>
8000bd60:	f0 0b 16 09 	lsr	r11,r8,0x9
8000bd64:	58 4b       	cp.w	r11,4
8000bd66:	e0 8b 00 06 	brhi	8000bd72 <_free_r+0x102>
8000bd6a:	f0 0b 16 06 	lsr	r11,r8,0x6
8000bd6e:	2c 8b       	sub	r11,-56
8000bd70:	c2 b8       	rjmp	8000bdc6 <_free_r+0x156>
8000bd72:	59 4b       	cp.w	r11,20
8000bd74:	e0 8b 00 04 	brhi	8000bd7c <_free_r+0x10c>
8000bd78:	2a 5b       	sub	r11,-91
8000bd7a:	c2 68       	rjmp	8000bdc6 <_free_r+0x156>
8000bd7c:	e0 4b 00 54 	cp.w	r11,84
8000bd80:	e0 8b 00 06 	brhi	8000bd8c <_free_r+0x11c>
8000bd84:	f0 0b 16 0c 	lsr	r11,r8,0xc
8000bd88:	29 2b       	sub	r11,-110
8000bd8a:	c1 e8       	rjmp	8000bdc6 <_free_r+0x156>
8000bd8c:	e0 4b 01 54 	cp.w	r11,340
8000bd90:	e0 8b 00 06 	brhi	8000bd9c <_free_r+0x12c>
8000bd94:	f0 0b 16 0f 	lsr	r11,r8,0xf
8000bd98:	28 9b       	sub	r11,-119
8000bd9a:	c1 68       	rjmp	8000bdc6 <_free_r+0x156>
8000bd9c:	e0 4b 05 54 	cp.w	r11,1364
8000bda0:	e0 88 00 10 	brls	8000bdc0 <_free_r+0x150>
8000bda4:	37 eb       	mov	r11,126
8000bda6:	c1 08       	rjmp	8000bdc6 <_free_r+0x156>
8000bda8:	80 00       	ld.sh	r0,r0[0x0]
8000bdaa:	80 1c       	ld.sh	r12,r0[0x2]
8000bdac:	00 00       	add	r0,r0
8000bdae:	01 c8       	ld.ub	r8,r0[0x4]
8000bdb0:	00 00       	add	r0,r0
8000bdb2:	05 d0       	ld.ub	r0,r2[0x5]
8000bdb4:	00 00       	add	r0,r0
8000bdb6:	0f 54       	ld.sh	r4,--r7
8000bdb8:	80 00       	ld.sh	r0,r0[0x0]
8000bdba:	bb c8       	cbr	r8,0x1a
8000bdbc:	80 00       	ld.sh	r0,r0[0x0]
8000bdbe:	80 1e       	ld.sh	lr,r0[0x2]
8000bdc0:	f0 0b 16 12 	lsr	r11,r8,0x12
8000bdc4:	28 4b       	sub	r11,-124
8000bdc6:	f4 0b 00 3c 	add	r12,r10,r11<<0x3
8000bdca:	78 29       	ld.w	r9,r12[0x8]
8000bdcc:	18 39       	cp.w	r9,r12
8000bdce:	c0 e1       	brne	8000bdea <_free_r+0x17a>
8000bdd0:	74 18       	ld.w	r8,r10[0x4]
8000bdd2:	a3 4b       	asr	r11,0x2
8000bdd4:	30 1c       	mov	r12,1
8000bdd6:	f8 0b 09 4b 	lsl	r11,r12,r11
8000bdda:	f1 eb 10 0b 	or	r11,r8,r11
8000bdde:	12 98       	mov	r8,r9
8000bde0:	95 1b       	st.w	r10[0x4],r11
8000bde2:	c0 a8       	rjmp	8000bdf6 <_free_r+0x186>
8000bde4:	72 29       	ld.w	r9,r9[0x8]
8000bde6:	18 39       	cp.w	r9,r12
8000bde8:	c0 60       	breq	8000bdf4 <_free_r+0x184>
8000bdea:	72 1a       	ld.w	r10,r9[0x4]
8000bdec:	e0 1a ff fc 	andl	r10,0xfffc
8000bdf0:	14 38       	cp.w	r8,r10
8000bdf2:	cf 93       	brcs	8000bde4 <_free_r+0x174>
8000bdf4:	72 38       	ld.w	r8,r9[0xc]
8000bdf6:	8d 38       	st.w	r6[0xc],r8
8000bdf8:	8d 29       	st.w	r6[0x8],r9
8000bdfa:	93 36       	st.w	r9[0xc],r6
8000bdfc:	91 26       	st.w	r8[0x8],r6
8000bdfe:	0e 9c       	mov	r12,r7
8000be00:	f0 1f 00 02 	mcall	8000be08 <_free_r+0x198>
8000be04:	d8 22       	popm	r4-r7,pc
8000be06:	00 00       	add	r0,r0
8000be08:	80 00       	ld.sh	r0,r0[0x0]
8000be0a:	80 1e       	ld.sh	lr,r0[0x2]

8000be0c <_fwalk>:
8000be0c:	d4 31       	pushm	r0-r7,lr
8000be0e:	30 05       	mov	r5,0
8000be10:	16 91       	mov	r1,r11
8000be12:	f8 c7 ff 28 	sub	r7,r12,-216
8000be16:	0a 92       	mov	r2,r5
8000be18:	f0 1f 00 10 	mcall	8000be58 <_fwalk+0x4c>
8000be1c:	3f f3       	mov	r3,-1
8000be1e:	c1 68       	rjmp	8000be4a <_fwalk+0x3e>
8000be20:	6e 26       	ld.w	r6,r7[0x8]
8000be22:	6e 14       	ld.w	r4,r7[0x4]
8000be24:	2f 46       	sub	r6,-12
8000be26:	c0 c8       	rjmp	8000be3e <_fwalk+0x32>
8000be28:	8c 08       	ld.sh	r8,r6[0x0]
8000be2a:	e4 08 19 00 	cp.h	r8,r2
8000be2e:	c0 70       	breq	8000be3c <_fwalk+0x30>
8000be30:	8c 18       	ld.sh	r8,r6[0x2]
8000be32:	e6 08 19 00 	cp.h	r8,r3
8000be36:	c0 30       	breq	8000be3c <_fwalk+0x30>
8000be38:	5d 11       	icall	r1
8000be3a:	18 45       	or	r5,r12
8000be3c:	2a 46       	sub	r6,-92
8000be3e:	20 14       	sub	r4,1
8000be40:	ec cc 00 0c 	sub	r12,r6,12
8000be44:	58 04       	cp.w	r4,0
8000be46:	cf 14       	brge	8000be28 <_fwalk+0x1c>
8000be48:	6e 07       	ld.w	r7,r7[0x0]
8000be4a:	58 07       	cp.w	r7,0
8000be4c:	ce a1       	brne	8000be20 <_fwalk+0x14>
8000be4e:	f0 1f 00 04 	mcall	8000be5c <_fwalk+0x50>
8000be52:	0a 9c       	mov	r12,r5
8000be54:	d8 32       	popm	r0-r7,pc
8000be56:	00 00       	add	r0,r0
8000be58:	80 00       	ld.sh	r0,r0[0x0]
8000be5a:	ba 54       	st.h	sp[0xa],r4
8000be5c:	80 00       	ld.sh	r0,r0[0x0]
8000be5e:	ba 56       	st.h	sp[0xa],r6

8000be60 <_localeconv_r>:
8000be60:	48 1c       	lddpc	r12,8000be64 <_localeconv_r+0x4>
8000be62:	5e fc       	retal	r12
8000be64:	80 00       	ld.sh	r0,r0[0x0]
8000be66:	df c4       	*unknown*

8000be68 <__smakebuf_r>:
8000be68:	d4 21       	pushm	r4-r7,lr
8000be6a:	20 fd       	sub	sp,60
8000be6c:	96 68       	ld.sh	r8,r11[0xc]
8000be6e:	16 97       	mov	r7,r11
8000be70:	18 96       	mov	r6,r12
8000be72:	e2 18 00 02 	andl	r8,0x2,COH
8000be76:	c3 c1       	brne	8000beee <__smakebuf_r+0x86>
8000be78:	96 7b       	ld.sh	r11,r11[0xe]
8000be7a:	f0 0b 19 00 	cp.h	r11,r8
8000be7e:	c0 55       	brlt	8000be88 <__smakebuf_r+0x20>
8000be80:	1a 9a       	mov	r10,sp
8000be82:	f0 1f 00 28 	mcall	8000bf20 <__smakebuf_r+0xb8>
8000be86:	c0 f4       	brge	8000bea4 <__smakebuf_r+0x3c>
8000be88:	8e 65       	ld.sh	r5,r7[0xc]
8000be8a:	0a 98       	mov	r8,r5
8000be8c:	ab b8       	sbr	r8,0xb
8000be8e:	e2 15 00 80 	andl	r5,0x80,COH
8000be92:	ae 68       	st.h	r7[0xc],r8
8000be94:	30 04       	mov	r4,0
8000be96:	e0 68 04 00 	mov	r8,1024
8000be9a:	f9 b5 01 40 	movne	r5,64
8000be9e:	f0 05 17 00 	moveq	r5,r8
8000bea2:	c1 b8       	rjmp	8000bed8 <__smakebuf_r+0x70>
8000bea4:	40 18       	lddsp	r8,sp[0x4]
8000bea6:	e2 18 f0 00 	andl	r8,0xf000,COH
8000beaa:	e0 48 20 00 	cp.w	r8,8192
8000beae:	5f 04       	sreq	r4
8000beb0:	e0 48 80 00 	cp.w	r8,32768
8000beb4:	c0 d1       	brne	8000bece <__smakebuf_r+0x66>
8000beb6:	6e b9       	ld.w	r9,r7[0x2c]
8000beb8:	49 b8       	lddpc	r8,8000bf24 <__smakebuf_r+0xbc>
8000beba:	10 39       	cp.w	r9,r8
8000bebc:	c0 91       	brne	8000bece <__smakebuf_r+0x66>
8000bebe:	8e 68       	ld.sh	r8,r7[0xc]
8000bec0:	e0 65 04 00 	mov	r5,1024
8000bec4:	ab a8       	sbr	r8,0xa
8000bec6:	ef 45 00 50 	st.w	r7[80],r5
8000beca:	ae 68       	st.h	r7[0xc],r8
8000becc:	c0 68       	rjmp	8000bed8 <__smakebuf_r+0x70>
8000bece:	8e 68       	ld.sh	r8,r7[0xc]
8000bed0:	e0 65 04 00 	mov	r5,1024
8000bed4:	ab b8       	sbr	r8,0xb
8000bed6:	ae 68       	st.h	r7[0xc],r8
8000bed8:	0a 9b       	mov	r11,r5
8000beda:	0c 9c       	mov	r12,r6
8000bedc:	f0 1f 00 13 	mcall	8000bf28 <__smakebuf_r+0xc0>
8000bee0:	8e 68       	ld.sh	r8,r7[0xc]
8000bee2:	c0 d1       	brne	8000befc <__smakebuf_r+0x94>
8000bee4:	ed b8 00 09 	bld	r8,0x9
8000bee8:	c1 a0       	breq	8000bf1c <__smakebuf_r+0xb4>
8000beea:	a1 b8       	sbr	r8,0x1
8000beec:	ae 68       	st.h	r7[0xc],r8
8000beee:	ee c8 ff b9 	sub	r8,r7,-71
8000bef2:	8f 48       	st.w	r7[0x10],r8
8000bef4:	8f 08       	st.w	r7[0x0],r8
8000bef6:	30 18       	mov	r8,1
8000bef8:	8f 58       	st.w	r7[0x14],r8
8000befa:	c1 18       	rjmp	8000bf1c <__smakebuf_r+0xb4>
8000befc:	a7 b8       	sbr	r8,0x7
8000befe:	8f 4c       	st.w	r7[0x10],r12
8000bf00:	ae 68       	st.h	r7[0xc],r8
8000bf02:	8f 55       	st.w	r7[0x14],r5
8000bf04:	48 a8       	lddpc	r8,8000bf2c <__smakebuf_r+0xc4>
8000bf06:	8f 0c       	st.w	r7[0x0],r12
8000bf08:	8d a8       	st.w	r6[0x28],r8
8000bf0a:	58 04       	cp.w	r4,0
8000bf0c:	c0 80       	breq	8000bf1c <__smakebuf_r+0xb4>
8000bf0e:	8e 7c       	ld.sh	r12,r7[0xe]
8000bf10:	f0 1f 00 08 	mcall	8000bf30 <__smakebuf_r+0xc8>
8000bf14:	c0 40       	breq	8000bf1c <__smakebuf_r+0xb4>
8000bf16:	8e 68       	ld.sh	r8,r7[0xc]
8000bf18:	a1 a8       	sbr	r8,0x0
8000bf1a:	ae 68       	st.h	r7[0xc],r8
8000bf1c:	2f 1d       	sub	sp,-60
8000bf1e:	d8 22       	popm	r4-r7,pc
8000bf20:	80 00       	ld.sh	r0,r0[0x0]
8000bf22:	c8 04       	brge	8000be22 <_fwalk+0x16>
8000bf24:	80 00       	ld.sh	r0,r0[0x0]
8000bf26:	c5 e8       	rjmp	8000bfe2 <__lo0bits+0x38>
8000bf28:	80 00       	ld.sh	r0,r0[0x0]
8000bf2a:	7a 00       	ld.w	r0,sp[0x0]
8000bf2c:	80 00       	ld.sh	r0,r0[0x0]
8000bf2e:	ba 58       	st.h	sp[0xa],r8
8000bf30:	80 00       	ld.sh	r0,r0[0x0]
8000bf32:	86 14       	ld.sh	r4,r3[0x2]

8000bf34 <__hi0bits>:
8000bf34:	18 98       	mov	r8,r12
8000bf36:	f0 0a 15 10 	lsl	r10,r8,0x10
8000bf3a:	18 99       	mov	r9,r12
8000bf3c:	e0 19 00 00 	andl	r9,0x0
8000bf40:	f4 08 17 00 	moveq	r8,r10
8000bf44:	f9 bc 00 10 	moveq	r12,16
8000bf48:	f9 bc 01 00 	movne	r12,0
8000bf4c:	f8 ca ff f8 	sub	r10,r12,-8
8000bf50:	10 99       	mov	r9,r8
8000bf52:	e6 19 ff 00 	andh	r9,0xff00,COH
8000bf56:	f4 0c 17 00 	moveq	r12,r10
8000bf5a:	f0 0a 15 08 	lsl	r10,r8,0x8
8000bf5e:	58 09       	cp.w	r9,0
8000bf60:	f4 08 17 00 	moveq	r8,r10
8000bf64:	f8 ca ff fc 	sub	r10,r12,-4
8000bf68:	10 99       	mov	r9,r8
8000bf6a:	e6 19 f0 00 	andh	r9,0xf000,COH
8000bf6e:	f4 0c 17 00 	moveq	r12,r10
8000bf72:	f0 0a 15 04 	lsl	r10,r8,0x4
8000bf76:	58 09       	cp.w	r9,0
8000bf78:	f4 08 17 00 	moveq	r8,r10
8000bf7c:	f8 ca ff fe 	sub	r10,r12,-2
8000bf80:	10 99       	mov	r9,r8
8000bf82:	e6 19 c0 00 	andh	r9,0xc000,COH
8000bf86:	f4 0c 17 00 	moveq	r12,r10
8000bf8a:	f0 0a 15 02 	lsl	r10,r8,0x2
8000bf8e:	58 09       	cp.w	r9,0
8000bf90:	f4 08 17 00 	moveq	r8,r10
8000bf94:	58 08       	cp.w	r8,0
8000bf96:	5e 5c       	retlt	r12
8000bf98:	e6 18 40 00 	andh	r8,0x4000,COH
8000bf9c:	2f fc       	sub	r12,-1
8000bf9e:	58 08       	cp.w	r8,0
8000bfa0:	f8 0c 17 10 	movne	r12,r12
8000bfa4:	f9 bc 00 20 	moveq	r12,32
8000bfa8:	5e fc       	retal	r12

8000bfaa <__lo0bits>:
8000bfaa:	18 99       	mov	r9,r12
8000bfac:	78 08       	ld.w	r8,r12[0x0]
8000bfae:	f9 d8 c0 03 	bfextu	r12,r8,0x0,0x3
8000bfb2:	c1 00       	breq	8000bfd2 <__lo0bits+0x28>
8000bfb4:	ed b8 00 00 	bld	r8,0x0
8000bfb8:	c0 21       	brne	8000bfbc <__lo0bits+0x12>
8000bfba:	5e fd       	retal	0
8000bfbc:	ed b8 00 01 	bld	r8,0x1
8000bfc0:	c0 51       	brne	8000bfca <__lo0bits+0x20>
8000bfc2:	a1 98       	lsr	r8,0x1
8000bfc4:	30 1c       	mov	r12,1
8000bfc6:	93 08       	st.w	r9[0x0],r8
8000bfc8:	5e fc       	retal	r12
8000bfca:	a3 88       	lsr	r8,0x2
8000bfcc:	30 2c       	mov	r12,2
8000bfce:	93 08       	st.w	r9[0x0],r8
8000bfd0:	5e fc       	retal	r12
8000bfd2:	f0 0b 16 10 	lsr	r11,r8,0x10
8000bfd6:	f5 d8 c0 10 	bfextu	r10,r8,0x0,0x10
8000bfda:	f6 08 17 00 	moveq	r8,r11
8000bfde:	f9 bc 00 10 	moveq	r12,16
8000bfe2:	f8 cb ff f8 	sub	r11,r12,-8
8000bfe6:	f5 d8 c0 08 	bfextu	r10,r8,0x0,0x8
8000bfea:	f6 0c 17 00 	moveq	r12,r11
8000bfee:	f0 0b 16 08 	lsr	r11,r8,0x8
8000bff2:	58 0a       	cp.w	r10,0
8000bff4:	f6 08 17 00 	moveq	r8,r11
8000bff8:	f8 cb ff fc 	sub	r11,r12,-4
8000bffc:	f5 d8 c0 04 	bfextu	r10,r8,0x0,0x4
8000c000:	f6 0c 17 00 	moveq	r12,r11
8000c004:	f0 0b 16 04 	lsr	r11,r8,0x4
8000c008:	58 0a       	cp.w	r10,0
8000c00a:	f6 08 17 00 	moveq	r8,r11
8000c00e:	f8 cb ff fe 	sub	r11,r12,-2
8000c012:	f5 d8 c0 02 	bfextu	r10,r8,0x0,0x2
8000c016:	f6 0c 17 00 	moveq	r12,r11
8000c01a:	f0 0b 16 02 	lsr	r11,r8,0x2
8000c01e:	58 0a       	cp.w	r10,0
8000c020:	f6 08 17 00 	moveq	r8,r11
8000c024:	ed b8 00 00 	bld	r8,0x0
8000c028:	c0 60       	breq	8000c034 <__lo0bits+0x8a>
8000c02a:	a1 98       	lsr	r8,0x1
8000c02c:	c0 31       	brne	8000c032 <__lo0bits+0x88>
8000c02e:	32 0c       	mov	r12,32
8000c030:	5e fc       	retal	r12
8000c032:	2f fc       	sub	r12,-1
8000c034:	93 08       	st.w	r9[0x0],r8
8000c036:	5e fc       	retal	r12

8000c038 <__mcmp>:
8000c038:	d4 01       	pushm	lr
8000c03a:	18 98       	mov	r8,r12
8000c03c:	76 49       	ld.w	r9,r11[0x10]
8000c03e:	78 4c       	ld.w	r12,r12[0x10]
8000c040:	12 1c       	sub	r12,r9
8000c042:	c1 31       	brne	8000c068 <__mcmp+0x30>
8000c044:	2f b9       	sub	r9,-5
8000c046:	a3 69       	lsl	r9,0x2
8000c048:	12 0b       	add	r11,r9
8000c04a:	f0 09 00 09 	add	r9,r8,r9
8000c04e:	2e c8       	sub	r8,-20
8000c050:	13 4e       	ld.w	lr,--r9
8000c052:	17 4a       	ld.w	r10,--r11
8000c054:	14 3e       	cp.w	lr,r10
8000c056:	c0 60       	breq	8000c062 <__mcmp+0x2a>
8000c058:	f9 bc 03 ff 	movlo	r12,-1
8000c05c:	f9 bc 02 01 	movhs	r12,1
8000c060:	d8 02       	popm	pc
8000c062:	10 39       	cp.w	r9,r8
8000c064:	fe 9b ff f6 	brhi	8000c050 <__mcmp+0x18>
8000c068:	d8 02       	popm	pc
8000c06a:	d7 03       	nop

8000c06c <_Bfree>:
8000c06c:	d4 21       	pushm	r4-r7,lr
8000c06e:	18 97       	mov	r7,r12
8000c070:	16 95       	mov	r5,r11
8000c072:	78 96       	ld.w	r6,r12[0x24]
8000c074:	58 06       	cp.w	r6,0
8000c076:	c0 91       	brne	8000c088 <_Bfree+0x1c>
8000c078:	31 0c       	mov	r12,16
8000c07a:	f0 1f 00 0a 	mcall	8000c0a0 <_Bfree+0x34>
8000c07e:	99 36       	st.w	r12[0xc],r6
8000c080:	8f 9c       	st.w	r7[0x24],r12
8000c082:	99 16       	st.w	r12[0x4],r6
8000c084:	99 26       	st.w	r12[0x8],r6
8000c086:	99 06       	st.w	r12[0x0],r6
8000c088:	58 05       	cp.w	r5,0
8000c08a:	c0 90       	breq	8000c09c <_Bfree+0x30>
8000c08c:	6a 19       	ld.w	r9,r5[0x4]
8000c08e:	6e 98       	ld.w	r8,r7[0x24]
8000c090:	70 38       	ld.w	r8,r8[0xc]
8000c092:	f0 09 03 2a 	ld.w	r10,r8[r9<<0x2]
8000c096:	8b 0a       	st.w	r5[0x0],r10
8000c098:	f0 09 09 25 	st.w	r8[r9<<0x2],r5
8000c09c:	d8 22       	popm	r4-r7,pc
8000c09e:	00 00       	add	r0,r0
8000c0a0:	80 00       	ld.sh	r0,r0[0x0]
8000c0a2:	79 e8       	ld.w	r8,r12[0x78]

8000c0a4 <_Balloc>:
8000c0a4:	d4 21       	pushm	r4-r7,lr
8000c0a6:	18 97       	mov	r7,r12
8000c0a8:	16 96       	mov	r6,r11
8000c0aa:	78 95       	ld.w	r5,r12[0x24]
8000c0ac:	58 05       	cp.w	r5,0
8000c0ae:	c0 91       	brne	8000c0c0 <_Balloc+0x1c>
8000c0b0:	31 0c       	mov	r12,16
8000c0b2:	f0 1f 00 19 	mcall	8000c114 <_Balloc+0x70>
8000c0b6:	99 35       	st.w	r12[0xc],r5
8000c0b8:	8f 9c       	st.w	r7[0x24],r12
8000c0ba:	99 15       	st.w	r12[0x4],r5
8000c0bc:	99 25       	st.w	r12[0x8],r5
8000c0be:	99 05       	st.w	r12[0x0],r5
8000c0c0:	6e 95       	ld.w	r5,r7[0x24]
8000c0c2:	6a 38       	ld.w	r8,r5[0xc]
8000c0c4:	58 08       	cp.w	r8,0
8000c0c6:	c0 b1       	brne	8000c0dc <_Balloc+0x38>
8000c0c8:	31 0a       	mov	r10,16
8000c0ca:	30 4b       	mov	r11,4
8000c0cc:	0e 9c       	mov	r12,r7
8000c0ce:	f0 1f 00 13 	mcall	8000c118 <_Balloc+0x74>
8000c0d2:	8b 3c       	st.w	r5[0xc],r12
8000c0d4:	6e 98       	ld.w	r8,r7[0x24]
8000c0d6:	70 3c       	ld.w	r12,r8[0xc]
8000c0d8:	58 0c       	cp.w	r12,0
8000c0da:	c1 b0       	breq	8000c110 <_Balloc+0x6c>
8000c0dc:	6e 98       	ld.w	r8,r7[0x24]
8000c0de:	70 38       	ld.w	r8,r8[0xc]
8000c0e0:	f0 06 00 28 	add	r8,r8,r6<<0x2
8000c0e4:	70 0c       	ld.w	r12,r8[0x0]
8000c0e6:	58 0c       	cp.w	r12,0
8000c0e8:	c0 40       	breq	8000c0f0 <_Balloc+0x4c>
8000c0ea:	78 09       	ld.w	r9,r12[0x0]
8000c0ec:	91 09       	st.w	r8[0x0],r9
8000c0ee:	c0 e8       	rjmp	8000c10a <_Balloc+0x66>
8000c0f0:	0e 9c       	mov	r12,r7
8000c0f2:	30 17       	mov	r7,1
8000c0f4:	0e 9b       	mov	r11,r7
8000c0f6:	ee 06 09 47 	lsl	r7,r7,r6
8000c0fa:	ee ca ff fb 	sub	r10,r7,-5
8000c0fe:	a3 6a       	lsl	r10,0x2
8000c100:	f0 1f 00 06 	mcall	8000c118 <_Balloc+0x74>
8000c104:	c0 60       	breq	8000c110 <_Balloc+0x6c>
8000c106:	99 16       	st.w	r12[0x4],r6
8000c108:	99 27       	st.w	r12[0x8],r7
8000c10a:	30 08       	mov	r8,0
8000c10c:	99 38       	st.w	r12[0xc],r8
8000c10e:	99 48       	st.w	r12[0x10],r8
8000c110:	d8 22       	popm	r4-r7,pc
8000c112:	00 00       	add	r0,r0
8000c114:	80 00       	ld.sh	r0,r0[0x0]
8000c116:	79 e8       	ld.w	r8,r12[0x78]
8000c118:	80 00       	ld.sh	r0,r0[0x0]
8000c11a:	c6 94       	brge	8000c1ec <__mdiff+0x1c>

8000c11c <__d2b>:
8000c11c:	d4 31       	pushm	r0-r7,lr
8000c11e:	20 2d       	sub	sp,8
8000c120:	16 93       	mov	r3,r11
8000c122:	12 96       	mov	r6,r9
8000c124:	10 95       	mov	r5,r8
8000c126:	14 92       	mov	r2,r10
8000c128:	30 1b       	mov	r11,1
8000c12a:	f0 1f 00 27 	mcall	8000c1c4 <__d2b+0xa8>
8000c12e:	f3 d3 c0 14 	bfextu	r9,r3,0x0,0x14
8000c132:	50 09       	stdsp	sp[0x0],r9
8000c134:	f1 d3 c0 1f 	bfextu	r8,r3,0x0,0x1f
8000c138:	18 94       	mov	r4,r12
8000c13a:	f0 01 16 14 	lsr	r1,r8,0x14
8000c13e:	c0 30       	breq	8000c144 <__d2b+0x28>
8000c140:	b5 a9       	sbr	r9,0x14
8000c142:	50 09       	stdsp	sp[0x0],r9
8000c144:	58 02       	cp.w	r2,0
8000c146:	c1 e0       	breq	8000c182 <__d2b+0x66>
8000c148:	fa cc ff f8 	sub	r12,sp,-8
8000c14c:	18 d2       	st.w	--r12,r2
8000c14e:	f0 1f 00 1f 	mcall	8000c1c8 <__d2b+0xac>
8000c152:	40 18       	lddsp	r8,sp[0x4]
8000c154:	c0 d0       	breq	8000c16e <__d2b+0x52>
8000c156:	40 09       	lddsp	r9,sp[0x0]
8000c158:	f8 0a 11 20 	rsub	r10,r12,32
8000c15c:	f2 0a 09 4a 	lsl	r10,r9,r10
8000c160:	f5 e8 10 08 	or	r8,r10,r8
8000c164:	89 58       	st.w	r4[0x14],r8
8000c166:	f2 0c 0a 49 	lsr	r9,r9,r12
8000c16a:	50 09       	stdsp	sp[0x0],r9
8000c16c:	c0 28       	rjmp	8000c170 <__d2b+0x54>
8000c16e:	89 58       	st.w	r4[0x14],r8
8000c170:	40 08       	lddsp	r8,sp[0x0]
8000c172:	58 08       	cp.w	r8,0
8000c174:	f9 b3 01 02 	movne	r3,2
8000c178:	f9 b3 00 01 	moveq	r3,1
8000c17c:	89 68       	st.w	r4[0x18],r8
8000c17e:	89 43       	st.w	r4[0x10],r3
8000c180:	c0 98       	rjmp	8000c192 <__d2b+0x76>
8000c182:	1a 9c       	mov	r12,sp
8000c184:	f0 1f 00 11 	mcall	8000c1c8 <__d2b+0xac>
8000c188:	30 13       	mov	r3,1
8000c18a:	40 08       	lddsp	r8,sp[0x0]
8000c18c:	2e 0c       	sub	r12,-32
8000c18e:	89 43       	st.w	r4[0x10],r3
8000c190:	89 58       	st.w	r4[0x14],r8
8000c192:	58 01       	cp.w	r1,0
8000c194:	c0 90       	breq	8000c1a6 <__d2b+0x8a>
8000c196:	e2 c1 04 33 	sub	r1,r1,1075
8000c19a:	18 01       	add	r1,r12
8000c19c:	8d 01       	st.w	r6[0x0],r1
8000c19e:	f8 0c 11 35 	rsub	r12,r12,53
8000c1a2:	8b 0c       	st.w	r5[0x0],r12
8000c1a4:	c0 d8       	rjmp	8000c1be <__d2b+0xa2>
8000c1a6:	e6 c8 ff fc 	sub	r8,r3,-4
8000c1aa:	f8 cc 04 32 	sub	r12,r12,1074
8000c1ae:	a5 73       	lsl	r3,0x5
8000c1b0:	8d 0c       	st.w	r6[0x0],r12
8000c1b2:	e8 08 03 2c 	ld.w	r12,r4[r8<<0x2]
8000c1b6:	f0 1f 00 06 	mcall	8000c1cc <__d2b+0xb0>
8000c1ba:	18 13       	sub	r3,r12
8000c1bc:	8b 03       	st.w	r5[0x0],r3
8000c1be:	08 9c       	mov	r12,r4
8000c1c0:	2f ed       	sub	sp,-8
8000c1c2:	d8 32       	popm	r0-r7,pc
8000c1c4:	80 00       	ld.sh	r0,r0[0x0]
8000c1c6:	c0 a4       	brge	8000c1da <__mdiff+0xa>
8000c1c8:	80 00       	ld.sh	r0,r0[0x0]
8000c1ca:	bf aa       	sbr	r10,0x1e
8000c1cc:	80 00       	ld.sh	r0,r0[0x0]
8000c1ce:	bf 34       	mul	r4,pc

8000c1d0 <__mdiff>:
8000c1d0:	d4 31       	pushm	r0-r7,lr
8000c1d2:	74 48       	ld.w	r8,r10[0x10]
8000c1d4:	76 45       	ld.w	r5,r11[0x10]
8000c1d6:	16 97       	mov	r7,r11
8000c1d8:	14 96       	mov	r6,r10
8000c1da:	10 15       	sub	r5,r8
8000c1dc:	c1 31       	brne	8000c202 <__mdiff+0x32>
8000c1de:	2f b8       	sub	r8,-5
8000c1e0:	ee ce ff ec 	sub	lr,r7,-20
8000c1e4:	a3 68       	lsl	r8,0x2
8000c1e6:	f4 08 00 0b 	add	r11,r10,r8
8000c1ea:	ee 08 00 08 	add	r8,r7,r8
8000c1ee:	11 4a       	ld.w	r10,--r8
8000c1f0:	17 49       	ld.w	r9,--r11
8000c1f2:	12 3a       	cp.w	r10,r9
8000c1f4:	c0 30       	breq	8000c1fa <__mdiff+0x2a>
8000c1f6:	c0 e2       	brcc	8000c212 <__mdiff+0x42>
8000c1f8:	c0 78       	rjmp	8000c206 <__mdiff+0x36>
8000c1fa:	1c 38       	cp.w	r8,lr
8000c1fc:	fe 9b ff f9 	brhi	8000c1ee <__mdiff+0x1e>
8000c200:	c4 a8       	rjmp	8000c294 <__mdiff+0xc4>
8000c202:	58 05       	cp.w	r5,0
8000c204:	c0 64       	brge	8000c210 <__mdiff+0x40>
8000c206:	0e 98       	mov	r8,r7
8000c208:	30 15       	mov	r5,1
8000c20a:	0c 97       	mov	r7,r6
8000c20c:	10 96       	mov	r6,r8
8000c20e:	c0 28       	rjmp	8000c212 <__mdiff+0x42>
8000c210:	30 05       	mov	r5,0
8000c212:	6e 1b       	ld.w	r11,r7[0x4]
8000c214:	f0 1f 00 24 	mcall	8000c2a4 <__mdiff+0xd4>
8000c218:	6e 49       	ld.w	r9,r7[0x10]
8000c21a:	6c 44       	ld.w	r4,r6[0x10]
8000c21c:	99 35       	st.w	r12[0xc],r5
8000c21e:	2f b4       	sub	r4,-5
8000c220:	f2 c5 ff fb 	sub	r5,r9,-5
8000c224:	ec 04 00 24 	add	r4,r6,r4<<0x2
8000c228:	ee 05 00 25 	add	r5,r7,r5<<0x2
8000c22c:	2e c6       	sub	r6,-20
8000c22e:	2e c7       	sub	r7,-20
8000c230:	f8 c8 ff ec 	sub	r8,r12,-20
8000c234:	30 0a       	mov	r10,0
8000c236:	0f 0e       	ld.w	lr,r7++
8000c238:	0d 0b       	ld.w	r11,r6++
8000c23a:	fc 02 16 10 	lsr	r2,lr,0x10
8000c23e:	f6 03 16 10 	lsr	r3,r11,0x10
8000c242:	fd de c0 10 	bfextu	lr,lr,0x0,0x10
8000c246:	e4 03 01 03 	sub	r3,r2,r3
8000c24a:	f7 db c0 10 	bfextu	r11,r11,0x0,0x10
8000c24e:	fc 0b 01 0b 	sub	r11,lr,r11
8000c252:	f6 0a 00 0a 	add	r10,r11,r10
8000c256:	b0 1a       	st.h	r8[0x2],r10
8000c258:	b1 4a       	asr	r10,0x10
8000c25a:	e6 0a 00 0a 	add	r10,r3,r10
8000c25e:	b0 0a       	st.h	r8[0x0],r10
8000c260:	2f c8       	sub	r8,-4
8000c262:	b1 4a       	asr	r10,0x10
8000c264:	08 36       	cp.w	r6,r4
8000c266:	ce 83       	brcs	8000c236 <__mdiff+0x66>
8000c268:	c0 d8       	rjmp	8000c282 <__mdiff+0xb2>
8000c26a:	0f 0b       	ld.w	r11,r7++
8000c26c:	f6 0e 16 10 	lsr	lr,r11,0x10
8000c270:	f7 db c0 10 	bfextu	r11,r11,0x0,0x10
8000c274:	16 0a       	add	r10,r11
8000c276:	b0 1a       	st.h	r8[0x2],r10
8000c278:	b1 4a       	asr	r10,0x10
8000c27a:	1c 0a       	add	r10,lr
8000c27c:	b0 0a       	st.h	r8[0x0],r10
8000c27e:	2f c8       	sub	r8,-4
8000c280:	b1 4a       	asr	r10,0x10
8000c282:	0a 37       	cp.w	r7,r5
8000c284:	cf 33       	brcs	8000c26a <__mdiff+0x9a>
8000c286:	c0 28       	rjmp	8000c28a <__mdiff+0xba>
8000c288:	20 19       	sub	r9,1
8000c28a:	11 4a       	ld.w	r10,--r8
8000c28c:	58 0a       	cp.w	r10,0
8000c28e:	cf d0       	breq	8000c288 <__mdiff+0xb8>
8000c290:	99 49       	st.w	r12[0x10],r9
8000c292:	d8 32       	popm	r0-r7,pc
8000c294:	30 0b       	mov	r11,0
8000c296:	f0 1f 00 04 	mcall	8000c2a4 <__mdiff+0xd4>
8000c29a:	30 18       	mov	r8,1
8000c29c:	99 48       	st.w	r12[0x10],r8
8000c29e:	30 08       	mov	r8,0
8000c2a0:	99 58       	st.w	r12[0x14],r8
8000c2a2:	d8 32       	popm	r0-r7,pc
8000c2a4:	80 00       	ld.sh	r0,r0[0x0]
8000c2a6:	c0 a4       	brge	8000c2ba <__lshift+0x12>

8000c2a8 <__lshift>:
8000c2a8:	d4 31       	pushm	r0-r7,lr
8000c2aa:	16 97       	mov	r7,r11
8000c2ac:	76 46       	ld.w	r6,r11[0x10]
8000c2ae:	f4 02 14 05 	asr	r2,r10,0x5
8000c2b2:	2f f6       	sub	r6,-1
8000c2b4:	14 93       	mov	r3,r10
8000c2b6:	18 94       	mov	r4,r12
8000c2b8:	04 06       	add	r6,r2
8000c2ba:	76 1b       	ld.w	r11,r11[0x4]
8000c2bc:	6e 28       	ld.w	r8,r7[0x8]
8000c2be:	c0 38       	rjmp	8000c2c4 <__lshift+0x1c>
8000c2c0:	2f fb       	sub	r11,-1
8000c2c2:	a1 78       	lsl	r8,0x1
8000c2c4:	10 36       	cp.w	r6,r8
8000c2c6:	fe 99 ff fd 	brgt	8000c2c0 <__lshift+0x18>
8000c2ca:	08 9c       	mov	r12,r4
8000c2cc:	f0 1f 00 1a 	mcall	8000c334 <__lshift+0x8c>
8000c2d0:	30 09       	mov	r9,0
8000c2d2:	18 95       	mov	r5,r12
8000c2d4:	f8 c8 ff ec 	sub	r8,r12,-20
8000c2d8:	12 9a       	mov	r10,r9
8000c2da:	c0 38       	rjmp	8000c2e0 <__lshift+0x38>
8000c2dc:	10 aa       	st.w	r8++,r10
8000c2de:	2f f9       	sub	r9,-1
8000c2e0:	04 39       	cp.w	r9,r2
8000c2e2:	cf d5       	brlt	8000c2dc <__lshift+0x34>
8000c2e4:	6e 4b       	ld.w	r11,r7[0x10]
8000c2e6:	e7 d3 c0 05 	bfextu	r3,r3,0x0,0x5
8000c2ea:	2f bb       	sub	r11,-5
8000c2ec:	ee c9 ff ec 	sub	r9,r7,-20
8000c2f0:	ee 0b 00 2b 	add	r11,r7,r11<<0x2
8000c2f4:	58 03       	cp.w	r3,0
8000c2f6:	c1 30       	breq	8000c31c <__lshift+0x74>
8000c2f8:	e6 0c 11 20 	rsub	r12,r3,32
8000c2fc:	30 0a       	mov	r10,0
8000c2fe:	72 02       	ld.w	r2,r9[0x0]
8000c300:	e4 03 09 42 	lsl	r2,r2,r3
8000c304:	04 4a       	or	r10,r2
8000c306:	10 aa       	st.w	r8++,r10
8000c308:	13 0a       	ld.w	r10,r9++
8000c30a:	f4 0c 0a 4a 	lsr	r10,r10,r12
8000c30e:	16 39       	cp.w	r9,r11
8000c310:	cf 73       	brcs	8000c2fe <__lshift+0x56>
8000c312:	91 0a       	st.w	r8[0x0],r10
8000c314:	58 0a       	cp.w	r10,0
8000c316:	c0 70       	breq	8000c324 <__lshift+0x7c>
8000c318:	2f f6       	sub	r6,-1
8000c31a:	c0 58       	rjmp	8000c324 <__lshift+0x7c>
8000c31c:	13 0a       	ld.w	r10,r9++
8000c31e:	10 aa       	st.w	r8++,r10
8000c320:	16 39       	cp.w	r9,r11
8000c322:	cf d3       	brcs	8000c31c <__lshift+0x74>
8000c324:	08 9c       	mov	r12,r4
8000c326:	20 16       	sub	r6,1
8000c328:	0e 9b       	mov	r11,r7
8000c32a:	8b 46       	st.w	r5[0x10],r6
8000c32c:	f0 1f 00 03 	mcall	8000c338 <__lshift+0x90>
8000c330:	0a 9c       	mov	r12,r5
8000c332:	d8 32       	popm	r0-r7,pc
8000c334:	80 00       	ld.sh	r0,r0[0x0]
8000c336:	c0 a4       	brge	8000c34a <__multiply+0xe>
8000c338:	80 00       	ld.sh	r0,r0[0x0]
8000c33a:	c0 6c       	rcall	8000c346 <__multiply+0xa>

8000c33c <__multiply>:
8000c33c:	d4 31       	pushm	r0-r7,lr
8000c33e:	20 2d       	sub	sp,8
8000c340:	16 96       	mov	r6,r11
8000c342:	14 95       	mov	r5,r10
8000c344:	76 49       	ld.w	r9,r11[0x10]
8000c346:	74 48       	ld.w	r8,r10[0x10]
8000c348:	10 39       	cp.w	r9,r8
8000c34a:	c0 34       	brge	8000c350 <__multiply+0x14>
8000c34c:	14 96       	mov	r6,r10
8000c34e:	16 95       	mov	r5,r11
8000c350:	6c 1b       	ld.w	r11,r6[0x4]
8000c352:	6c 28       	ld.w	r8,r6[0x8]
8000c354:	f6 c9 ff ff 	sub	r9,r11,-1
8000c358:	6c 43       	ld.w	r3,r6[0x10]
8000c35a:	6a 42       	ld.w	r2,r5[0x10]
8000c35c:	e4 03 00 07 	add	r7,r2,r3
8000c360:	10 37       	cp.w	r7,r8
8000c362:	f2 0b 17 90 	movgt	r11,r9
8000c366:	f0 1f 00 36 	mcall	8000c43c <__multiply+0x100>
8000c36a:	ee c4 ff fb 	sub	r4,r7,-5
8000c36e:	f8 c9 ff ec 	sub	r9,r12,-20
8000c372:	f8 04 00 24 	add	r4,r12,r4<<0x2
8000c376:	30 0a       	mov	r10,0
8000c378:	12 98       	mov	r8,r9
8000c37a:	c0 28       	rjmp	8000c37e <__multiply+0x42>
8000c37c:	10 aa       	st.w	r8++,r10
8000c37e:	08 38       	cp.w	r8,r4
8000c380:	cf e3       	brcs	8000c37c <__multiply+0x40>
8000c382:	2f b3       	sub	r3,-5
8000c384:	2f b2       	sub	r2,-5
8000c386:	ec 03 00 23 	add	r3,r6,r3<<0x2
8000c38a:	ea 02 00 22 	add	r2,r5,r2<<0x2
8000c38e:	ec cb ff ec 	sub	r11,r6,-20
8000c392:	50 12       	stdsp	sp[0x4],r2
8000c394:	ea ca ff ec 	sub	r10,r5,-20
8000c398:	c4 48       	rjmp	8000c420 <__multiply+0xe4>
8000c39a:	94 95       	ld.uh	r5,r10[0x2]
8000c39c:	58 05       	cp.w	r5,0
8000c39e:	c2 00       	breq	8000c3de <__multiply+0xa2>
8000c3a0:	12 98       	mov	r8,r9
8000c3a2:	16 96       	mov	r6,r11
8000c3a4:	30 0e       	mov	lr,0
8000c3a6:	50 09       	stdsp	sp[0x0],r9
8000c3a8:	0d 02       	ld.w	r2,r6++
8000c3aa:	e4 00 16 10 	lsr	r0,r2,0x10
8000c3ae:	70 01       	ld.w	r1,r8[0x0]
8000c3b0:	70 09       	ld.w	r9,r8[0x0]
8000c3b2:	b1 81       	lsr	r1,0x10
8000c3b4:	e5 d2 c0 10 	bfextu	r2,r2,0x0,0x10
8000c3b8:	e0 05 03 41 	mac	r1,r0,r5
8000c3bc:	ab 32       	mul	r2,r5
8000c3be:	e1 d9 c0 10 	bfextu	r0,r9,0x0,0x10
8000c3c2:	00 02       	add	r2,r0
8000c3c4:	e4 0e 00 0e 	add	lr,r2,lr
8000c3c8:	b0 1e       	st.h	r8[0x2],lr
8000c3ca:	b1 8e       	lsr	lr,0x10
8000c3cc:	1c 01       	add	r1,lr
8000c3ce:	b0 01       	st.h	r8[0x0],r1
8000c3d0:	e2 0e 16 10 	lsr	lr,r1,0x10
8000c3d4:	2f c8       	sub	r8,-4
8000c3d6:	06 36       	cp.w	r6,r3
8000c3d8:	ce 83       	brcs	8000c3a8 <__multiply+0x6c>
8000c3da:	40 09       	lddsp	r9,sp[0x0]
8000c3dc:	91 0e       	st.w	r8[0x0],lr
8000c3de:	94 86       	ld.uh	r6,r10[0x0]
8000c3e0:	58 06       	cp.w	r6,0
8000c3e2:	c1 d0       	breq	8000c41c <__multiply+0xe0>
8000c3e4:	72 02       	ld.w	r2,r9[0x0]
8000c3e6:	12 98       	mov	r8,r9
8000c3e8:	16 9e       	mov	lr,r11
8000c3ea:	30 05       	mov	r5,0
8000c3ec:	b0 12       	st.h	r8[0x2],r2
8000c3ee:	1d 01       	ld.w	r1,lr++
8000c3f0:	90 82       	ld.uh	r2,r8[0x0]
8000c3f2:	e1 d1 c0 10 	bfextu	r0,r1,0x0,0x10
8000c3f6:	ad 30       	mul	r0,r6
8000c3f8:	e0 02 00 02 	add	r2,r0,r2
8000c3fc:	e4 05 00 05 	add	r5,r2,r5
8000c400:	b0 05       	st.h	r8[0x0],r5
8000c402:	b1 85       	lsr	r5,0x10
8000c404:	b1 81       	lsr	r1,0x10
8000c406:	2f c8       	sub	r8,-4
8000c408:	ad 31       	mul	r1,r6
8000c40a:	90 92       	ld.uh	r2,r8[0x2]
8000c40c:	e2 02 00 02 	add	r2,r1,r2
8000c410:	0a 02       	add	r2,r5
8000c412:	e4 05 16 10 	lsr	r5,r2,0x10
8000c416:	06 3e       	cp.w	lr,r3
8000c418:	ce a3       	brcs	8000c3ec <__multiply+0xb0>
8000c41a:	91 02       	st.w	r8[0x0],r2
8000c41c:	2f ca       	sub	r10,-4
8000c41e:	2f c9       	sub	r9,-4
8000c420:	40 18       	lddsp	r8,sp[0x4]
8000c422:	10 3a       	cp.w	r10,r8
8000c424:	cb b3       	brcs	8000c39a <__multiply+0x5e>
8000c426:	c0 28       	rjmp	8000c42a <__multiply+0xee>
8000c428:	20 17       	sub	r7,1
8000c42a:	58 07       	cp.w	r7,0
8000c42c:	e0 8a 00 05 	brle	8000c436 <__multiply+0xfa>
8000c430:	09 48       	ld.w	r8,--r4
8000c432:	58 08       	cp.w	r8,0
8000c434:	cf a0       	breq	8000c428 <__multiply+0xec>
8000c436:	99 47       	st.w	r12[0x10],r7
8000c438:	2f ed       	sub	sp,-8
8000c43a:	d8 32       	popm	r0-r7,pc
8000c43c:	80 00       	ld.sh	r0,r0[0x0]
8000c43e:	c0 a4       	brge	8000c452 <__i2b+0x12>

8000c440 <__i2b>:
8000c440:	d4 21       	pushm	r4-r7,lr
8000c442:	16 97       	mov	r7,r11
8000c444:	30 1b       	mov	r11,1
8000c446:	f0 1f 00 04 	mcall	8000c454 <__i2b+0x14>
8000c44a:	30 19       	mov	r9,1
8000c44c:	99 57       	st.w	r12[0x14],r7
8000c44e:	99 49       	st.w	r12[0x10],r9
8000c450:	d8 22       	popm	r4-r7,pc
8000c452:	00 00       	add	r0,r0
8000c454:	80 00       	ld.sh	r0,r0[0x0]
8000c456:	c0 a4       	brge	8000c46a <__multadd+0x12>

8000c458 <__multadd>:
8000c458:	d4 31       	pushm	r0-r7,lr
8000c45a:	30 08       	mov	r8,0
8000c45c:	12 95       	mov	r5,r9
8000c45e:	16 97       	mov	r7,r11
8000c460:	18 96       	mov	r6,r12
8000c462:	76 44       	ld.w	r4,r11[0x10]
8000c464:	f6 c9 ff ec 	sub	r9,r11,-20
8000c468:	72 0b       	ld.w	r11,r9[0x0]
8000c46a:	f6 0c 16 10 	lsr	r12,r11,0x10
8000c46e:	f7 db c0 10 	bfextu	r11,r11,0x0,0x10
8000c472:	f4 0c 02 4c 	mul	r12,r10,r12
8000c476:	f4 0b 03 45 	mac	r5,r10,r11
8000c47a:	f7 d5 c0 10 	bfextu	r11,r5,0x0,0x10
8000c47e:	b1 85       	lsr	r5,0x10
8000c480:	18 05       	add	r5,r12
8000c482:	ea 0c 15 10 	lsl	r12,r5,0x10
8000c486:	f8 0b 00 0b 	add	r11,r12,r11
8000c48a:	12 ab       	st.w	r9++,r11
8000c48c:	2f f8       	sub	r8,-1
8000c48e:	b1 85       	lsr	r5,0x10
8000c490:	08 38       	cp.w	r8,r4
8000c492:	ce b5       	brlt	8000c468 <__multadd+0x10>
8000c494:	58 05       	cp.w	r5,0
8000c496:	c1 d0       	breq	8000c4d0 <__multadd+0x78>
8000c498:	6e 28       	ld.w	r8,r7[0x8]
8000c49a:	10 34       	cp.w	r4,r8
8000c49c:	c1 45       	brlt	8000c4c4 <__multadd+0x6c>
8000c49e:	6e 1b       	ld.w	r11,r7[0x4]
8000c4a0:	0c 9c       	mov	r12,r6
8000c4a2:	2f fb       	sub	r11,-1
8000c4a4:	f0 1f 00 0c 	mcall	8000c4d4 <__multadd+0x7c>
8000c4a8:	6e 4a       	ld.w	r10,r7[0x10]
8000c4aa:	ee cb ff f4 	sub	r11,r7,-12
8000c4ae:	18 93       	mov	r3,r12
8000c4b0:	2f ea       	sub	r10,-2
8000c4b2:	2f 4c       	sub	r12,-12
8000c4b4:	a3 6a       	lsl	r10,0x2
8000c4b6:	f0 1f 00 09 	mcall	8000c4d8 <__multadd+0x80>
8000c4ba:	0e 9b       	mov	r11,r7
8000c4bc:	0c 9c       	mov	r12,r6
8000c4be:	f0 1f 00 08 	mcall	8000c4dc <__multadd+0x84>
8000c4c2:	06 97       	mov	r7,r3
8000c4c4:	e8 c8 ff ff 	sub	r8,r4,-1
8000c4c8:	2f b4       	sub	r4,-5
8000c4ca:	8f 48       	st.w	r7[0x10],r8
8000c4cc:	ee 04 09 25 	st.w	r7[r4<<0x2],r5
8000c4d0:	0e 9c       	mov	r12,r7
8000c4d2:	d8 32       	popm	r0-r7,pc
8000c4d4:	80 00       	ld.sh	r0,r0[0x0]
8000c4d6:	c0 a4       	brge	8000c4ea <__pow5mult+0xa>
8000c4d8:	80 00       	ld.sh	r0,r0[0x0]
8000c4da:	7e 88       	ld.w	r8,pc[0x20]
8000c4dc:	80 00       	ld.sh	r0,r0[0x0]
8000c4de:	c0 6c       	rcall	8000c4ea <__pow5mult+0xa>

8000c4e0 <__pow5mult>:
8000c4e0:	d4 31       	pushm	r0-r7,lr
8000c4e2:	14 96       	mov	r6,r10
8000c4e4:	18 97       	mov	r7,r12
8000c4e6:	16 94       	mov	r4,r11
8000c4e8:	f1 da c0 02 	bfextu	r8,r10,0x0,0x2
8000c4ec:	c0 90       	breq	8000c4fe <__pow5mult+0x1e>
8000c4ee:	20 18       	sub	r8,1
8000c4f0:	4a 19       	lddpc	r9,8000c574 <__pow5mult+0x94>
8000c4f2:	f2 08 03 2a 	ld.w	r10,r9[r8<<0x2]
8000c4f6:	30 09       	mov	r9,0
8000c4f8:	f0 1f 00 20 	mcall	8000c578 <__pow5mult+0x98>
8000c4fc:	18 94       	mov	r4,r12
8000c4fe:	a3 46       	asr	r6,0x2
8000c500:	c3 70       	breq	8000c56e <__pow5mult+0x8e>
8000c502:	6e 95       	ld.w	r5,r7[0x24]
8000c504:	58 05       	cp.w	r5,0
8000c506:	c0 91       	brne	8000c518 <__pow5mult+0x38>
8000c508:	31 0c       	mov	r12,16
8000c50a:	f0 1f 00 1d 	mcall	8000c57c <__pow5mult+0x9c>
8000c50e:	99 35       	st.w	r12[0xc],r5
8000c510:	8f 9c       	st.w	r7[0x24],r12
8000c512:	99 15       	st.w	r12[0x4],r5
8000c514:	99 25       	st.w	r12[0x8],r5
8000c516:	99 05       	st.w	r12[0x0],r5
8000c518:	6e 93       	ld.w	r3,r7[0x24]
8000c51a:	66 25       	ld.w	r5,r3[0x8]
8000c51c:	58 05       	cp.w	r5,0
8000c51e:	c0 d1       	brne	8000c538 <__pow5mult+0x58>
8000c520:	e0 6b 02 71 	mov	r11,625
8000c524:	0e 9c       	mov	r12,r7
8000c526:	f0 1f 00 17 	mcall	8000c580 <__pow5mult+0xa0>
8000c52a:	87 2c       	st.w	r3[0x8],r12
8000c52c:	30 08       	mov	r8,0
8000c52e:	18 95       	mov	r5,r12
8000c530:	99 08       	st.w	r12[0x0],r8
8000c532:	c0 38       	rjmp	8000c538 <__pow5mult+0x58>
8000c534:	06 9c       	mov	r12,r3
8000c536:	18 95       	mov	r5,r12
8000c538:	ed b6 00 00 	bld	r6,0x0
8000c53c:	c0 c1       	brne	8000c554 <__pow5mult+0x74>
8000c53e:	08 9b       	mov	r11,r4
8000c540:	0a 9a       	mov	r10,r5
8000c542:	0e 9c       	mov	r12,r7
8000c544:	f0 1f 00 10 	mcall	8000c584 <__pow5mult+0xa4>
8000c548:	08 9b       	mov	r11,r4
8000c54a:	18 93       	mov	r3,r12
8000c54c:	0e 9c       	mov	r12,r7
8000c54e:	06 94       	mov	r4,r3
8000c550:	f0 1f 00 0e 	mcall	8000c588 <__pow5mult+0xa8>
8000c554:	a1 56       	asr	r6,0x1
8000c556:	c0 c0       	breq	8000c56e <__pow5mult+0x8e>
8000c558:	6a 03       	ld.w	r3,r5[0x0]
8000c55a:	58 03       	cp.w	r3,0
8000c55c:	ce c1       	brne	8000c534 <__pow5mult+0x54>
8000c55e:	0a 9a       	mov	r10,r5
8000c560:	0a 9b       	mov	r11,r5
8000c562:	0e 9c       	mov	r12,r7
8000c564:	f0 1f 00 08 	mcall	8000c584 <__pow5mult+0xa4>
8000c568:	8b 0c       	st.w	r5[0x0],r12
8000c56a:	99 03       	st.w	r12[0x0],r3
8000c56c:	ce 5b       	rjmp	8000c536 <__pow5mult+0x56>
8000c56e:	08 9c       	mov	r12,r4
8000c570:	d8 32       	popm	r0-r7,pc
8000c572:	00 00       	add	r0,r0
8000c574:	80 00       	ld.sh	r0,r0[0x0]
8000c576:	e0 00       	*unknown*
8000c578:	80 00       	ld.sh	r0,r0[0x0]
8000c57a:	c4 58       	rjmp	8000c604 <__sseek+0x1c>
8000c57c:	80 00       	ld.sh	r0,r0[0x0]
8000c57e:	79 e8       	ld.w	r8,r12[0x78]
8000c580:	80 00       	ld.sh	r0,r0[0x0]
8000c582:	c4 40       	breq	8000c60a <__sseek+0x22>
8000c584:	80 00       	ld.sh	r0,r0[0x0]
8000c586:	c3 3c       	rcall	8000c5ec <__sseek+0x4>
8000c588:	80 00       	ld.sh	r0,r0[0x0]
8000c58a:	c0 6c       	rcall	8000c596 <__isinfd+0xa>

8000c58c <__isinfd>:
8000c58c:	14 98       	mov	r8,r10
8000c58e:	30 09       	mov	r9,0
8000c590:	ea 19 7f f0 	orh	r9,0x7ff0
8000c594:	f5 db c0 1f 	bfextu	r10,r11,0x0,0x1f
8000c598:	f0 0b 11 00 	rsub	r11,r8,0
8000c59c:	f7 e8 10 08 	or	r8,r11,r8
8000c5a0:	f5 e8 13 f8 	or	r8,r10,r8>>0x1f
8000c5a4:	f2 08 01 08 	sub	r8,r9,r8
8000c5a8:	f0 0c 11 00 	rsub	r12,r8,0
8000c5ac:	f9 e8 10 08 	or	r8,r12,r8
8000c5b0:	f0 0c 14 1f 	asr	r12,r8,0x1f
8000c5b4:	2f fc       	sub	r12,-1
8000c5b6:	5e fc       	retal	r12

8000c5b8 <__isnand>:
8000c5b8:	14 98       	mov	r8,r10
8000c5ba:	f5 db c0 1f 	bfextu	r10,r11,0x0,0x1f
8000c5be:	f0 0c 11 00 	rsub	r12,r8,0
8000c5c2:	10 4c       	or	r12,r8
8000c5c4:	30 08       	mov	r8,0
8000c5c6:	ea 18 7f f0 	orh	r8,0x7ff0
8000c5ca:	f5 ec 13 fc 	or	r12,r10,r12>>0x1f
8000c5ce:	f0 0c 01 0c 	sub	r12,r8,r12
8000c5d2:	bf 9c       	lsr	r12,0x1f
8000c5d4:	5e fc       	retal	r12
8000c5d6:	d7 03       	nop

8000c5d8 <__sclose>:
8000c5d8:	d4 01       	pushm	lr
8000c5da:	96 7b       	ld.sh	r11,r11[0xe]
8000c5dc:	f0 1f 00 02 	mcall	8000c5e4 <__sclose+0xc>
8000c5e0:	d8 02       	popm	pc
8000c5e2:	00 00       	add	r0,r0
8000c5e4:	80 00       	ld.sh	r0,r0[0x0]
8000c5e6:	c6 f4       	brge	8000c6c4 <_calloc_r+0x30>

8000c5e8 <__sseek>:
8000c5e8:	d4 21       	pushm	r4-r7,lr
8000c5ea:	16 97       	mov	r7,r11
8000c5ec:	96 7b       	ld.sh	r11,r11[0xe]
8000c5ee:	f0 1f 00 07 	mcall	8000c608 <__sseek+0x20>
8000c5f2:	8e 68       	ld.sh	r8,r7[0xc]
8000c5f4:	5b fc       	cp.w	r12,-1
8000c5f6:	c0 41       	brne	8000c5fe <__sseek+0x16>
8000c5f8:	ad c8       	cbr	r8,0xc
8000c5fa:	ae 68       	st.h	r7[0xc],r8
8000c5fc:	d8 22       	popm	r4-r7,pc
8000c5fe:	ad a8       	sbr	r8,0xc
8000c600:	ef 4c 00 54 	st.w	r7[84],r12
8000c604:	ae 68       	st.h	r7[0xc],r8
8000c606:	d8 22       	popm	r4-r7,pc
8000c608:	80 00       	ld.sh	r0,r0[0x0]
8000c60a:	c8 30       	breq	8000c510 <__pow5mult+0x30>

8000c60c <__swrite>:
8000c60c:	d4 21       	pushm	r4-r7,lr
8000c60e:	96 68       	ld.sh	r8,r11[0xc]
8000c610:	16 97       	mov	r7,r11
8000c612:	14 95       	mov	r5,r10
8000c614:	12 94       	mov	r4,r9
8000c616:	e2 18 01 00 	andl	r8,0x100,COH
8000c61a:	18 96       	mov	r6,r12
8000c61c:	c0 60       	breq	8000c628 <__swrite+0x1c>
8000c61e:	30 29       	mov	r9,2
8000c620:	30 0a       	mov	r10,0
8000c622:	96 7b       	ld.sh	r11,r11[0xe]
8000c624:	f0 1f 00 06 	mcall	8000c63c <__swrite+0x30>
8000c628:	8e 68       	ld.sh	r8,r7[0xc]
8000c62a:	ad c8       	cbr	r8,0xc
8000c62c:	08 99       	mov	r9,r4
8000c62e:	0a 9a       	mov	r10,r5
8000c630:	8e 7b       	ld.sh	r11,r7[0xe]
8000c632:	0c 9c       	mov	r12,r6
8000c634:	ae 68       	st.h	r7[0xc],r8
8000c636:	f0 1f 00 03 	mcall	8000c640 <__swrite+0x34>
8000c63a:	d8 22       	popm	r4-r7,pc
8000c63c:	80 00       	ld.sh	r0,r0[0x0]
8000c63e:	c8 30       	breq	8000c544 <__pow5mult+0x64>
8000c640:	80 00       	ld.sh	r0,r0[0x0]
8000c642:	c6 68       	rjmp	8000c70e <_close_r+0x1a>

8000c644 <__sread>:
8000c644:	d4 21       	pushm	r4-r7,lr
8000c646:	16 97       	mov	r7,r11
8000c648:	96 7b       	ld.sh	r11,r11[0xe]
8000c64a:	f0 1f 00 07 	mcall	8000c664 <__sread+0x20>
8000c64e:	c0 65       	brlt	8000c65a <__sread+0x16>
8000c650:	6f 58       	ld.w	r8,r7[0x54]
8000c652:	18 08       	add	r8,r12
8000c654:	ef 48 00 54 	st.w	r7[84],r8
8000c658:	d8 22       	popm	r4-r7,pc
8000c65a:	8e 68       	ld.sh	r8,r7[0xc]
8000c65c:	ad c8       	cbr	r8,0xc
8000c65e:	ae 68       	st.h	r7[0xc],r8
8000c660:	d8 22       	popm	r4-r7,pc
8000c662:	00 00       	add	r0,r0
8000c664:	80 00       	ld.sh	r0,r0[0x0]
8000c666:	c8 5c       	rcall	8000c770 <_fclose_r+0x54>

8000c668 <_write_r>:
8000c668:	d4 21       	pushm	r4-r7,lr
8000c66a:	16 98       	mov	r8,r11
8000c66c:	18 97       	mov	r7,r12
8000c66e:	10 9c       	mov	r12,r8
8000c670:	30 08       	mov	r8,0
8000c672:	14 9b       	mov	r11,r10
8000c674:	48 66       	lddpc	r6,8000c68c <_write_r+0x24>
8000c676:	12 9a       	mov	r10,r9
8000c678:	8d 08       	st.w	r6[0x0],r8
8000c67a:	f0 1f 00 06 	mcall	8000c690 <_write_r+0x28>
8000c67e:	5b fc       	cp.w	r12,-1
8000c680:	c0 51       	brne	8000c68a <_write_r+0x22>
8000c682:	6c 08       	ld.w	r8,r6[0x0]
8000c684:	58 08       	cp.w	r8,0
8000c686:	c0 20       	breq	8000c68a <_write_r+0x22>
8000c688:	8f 38       	st.w	r7[0xc],r8
8000c68a:	d8 22       	popm	r4-r7,pc
8000c68c:	00 00       	add	r0,r0
8000c68e:	0f 84       	ld.ub	r4,r7[0x0]
8000c690:	80 00       	ld.sh	r0,r0[0x0]
8000c692:	85 fc       	st.w	r2[0x3c],r12

8000c694 <_calloc_r>:
8000c694:	d4 21       	pushm	r4-r7,lr
8000c696:	f4 0b 02 4b 	mul	r11,r10,r11
8000c69a:	f0 1f 00 15 	mcall	8000c6ec <_calloc_r+0x58>
8000c69e:	18 97       	mov	r7,r12
8000c6a0:	c2 30       	breq	8000c6e6 <_calloc_r+0x52>
8000c6a2:	f8 fa ff fc 	ld.w	r10,r12[-4]
8000c6a6:	e0 1a ff fc 	andl	r10,0xfffc
8000c6aa:	20 4a       	sub	r10,4
8000c6ac:	e0 4a 00 24 	cp.w	r10,36
8000c6b0:	e0 8b 00 18 	brhi	8000c6e0 <_calloc_r+0x4c>
8000c6b4:	18 98       	mov	r8,r12
8000c6b6:	59 3a       	cp.w	r10,19
8000c6b8:	e0 88 00 0f 	brls	8000c6d6 <_calloc_r+0x42>
8000c6bc:	30 09       	mov	r9,0
8000c6be:	10 a9       	st.w	r8++,r9
8000c6c0:	10 a9       	st.w	r8++,r9
8000c6c2:	59 ba       	cp.w	r10,27
8000c6c4:	e0 88 00 09 	brls	8000c6d6 <_calloc_r+0x42>
8000c6c8:	10 a9       	st.w	r8++,r9
8000c6ca:	10 a9       	st.w	r8++,r9
8000c6cc:	e0 4a 00 24 	cp.w	r10,36
8000c6d0:	c0 31       	brne	8000c6d6 <_calloc_r+0x42>
8000c6d2:	10 a9       	st.w	r8++,r9
8000c6d4:	10 a9       	st.w	r8++,r9
8000c6d6:	30 09       	mov	r9,0
8000c6d8:	10 a9       	st.w	r8++,r9
8000c6da:	91 19       	st.w	r8[0x4],r9
8000c6dc:	91 09       	st.w	r8[0x0],r9
8000c6de:	c0 48       	rjmp	8000c6e6 <_calloc_r+0x52>
8000c6e0:	30 0b       	mov	r11,0
8000c6e2:	f0 1f 00 04 	mcall	8000c6f0 <_calloc_r+0x5c>
8000c6e6:	0e 9c       	mov	r12,r7
8000c6e8:	d8 22       	popm	r4-r7,pc
8000c6ea:	00 00       	add	r0,r0
8000c6ec:	80 00       	ld.sh	r0,r0[0x0]
8000c6ee:	7a 00       	ld.w	r0,sp[0x0]
8000c6f0:	80 00       	ld.sh	r0,r0[0x0]
8000c6f2:	80 0e       	ld.sh	lr,r0[0x0]

8000c6f4 <_close_r>:
8000c6f4:	d4 21       	pushm	r4-r7,lr
8000c6f6:	30 08       	mov	r8,0
8000c6f8:	18 97       	mov	r7,r12
8000c6fa:	48 76       	lddpc	r6,8000c714 <_close_r+0x20>
8000c6fc:	16 9c       	mov	r12,r11
8000c6fe:	8d 08       	st.w	r6[0x0],r8
8000c700:	f0 1f 00 06 	mcall	8000c718 <_close_r+0x24>
8000c704:	5b fc       	cp.w	r12,-1
8000c706:	c0 51       	brne	8000c710 <_close_r+0x1c>
8000c708:	6c 08       	ld.w	r8,r6[0x0]
8000c70a:	58 08       	cp.w	r8,0
8000c70c:	c0 20       	breq	8000c710 <_close_r+0x1c>
8000c70e:	8f 38       	st.w	r7[0xc],r8
8000c710:	d8 22       	popm	r4-r7,pc
8000c712:	00 00       	add	r0,r0
8000c714:	00 00       	add	r0,r0
8000c716:	0f 84       	ld.ub	r4,r7[0x0]
8000c718:	80 00       	ld.sh	r0,r0[0x0]
8000c71a:	85 b4       	st.w	r2[0x2c],r4

8000c71c <_fclose_r>:
8000c71c:	d4 21       	pushm	r4-r7,lr
8000c71e:	18 96       	mov	r6,r12
8000c720:	16 97       	mov	r7,r11
8000c722:	58 0b       	cp.w	r11,0
8000c724:	c0 31       	brne	8000c72a <_fclose_r+0xe>
8000c726:	16 95       	mov	r5,r11
8000c728:	c5 08       	rjmp	8000c7c8 <_fclose_r+0xac>
8000c72a:	f0 1f 00 29 	mcall	8000c7cc <_fclose_r+0xb0>
8000c72e:	58 06       	cp.w	r6,0
8000c730:	c0 70       	breq	8000c73e <_fclose_r+0x22>
8000c732:	6c 68       	ld.w	r8,r6[0x18]
8000c734:	58 08       	cp.w	r8,0
8000c736:	c0 41       	brne	8000c73e <_fclose_r+0x22>
8000c738:	0c 9c       	mov	r12,r6
8000c73a:	f0 1f 00 26 	mcall	8000c7d0 <_fclose_r+0xb4>
8000c73e:	4a 68       	lddpc	r8,8000c7d4 <_fclose_r+0xb8>
8000c740:	10 37       	cp.w	r7,r8
8000c742:	c0 31       	brne	8000c748 <_fclose_r+0x2c>
8000c744:	6c 07       	ld.w	r7,r6[0x0]
8000c746:	c0 a8       	rjmp	8000c75a <_fclose_r+0x3e>
8000c748:	4a 48       	lddpc	r8,8000c7d8 <_fclose_r+0xbc>
8000c74a:	10 37       	cp.w	r7,r8
8000c74c:	c0 31       	brne	8000c752 <_fclose_r+0x36>
8000c74e:	6c 17       	ld.w	r7,r6[0x4]
8000c750:	c0 58       	rjmp	8000c75a <_fclose_r+0x3e>
8000c752:	4a 38       	lddpc	r8,8000c7dc <_fclose_r+0xc0>
8000c754:	10 37       	cp.w	r7,r8
8000c756:	c0 21       	brne	8000c75a <_fclose_r+0x3e>
8000c758:	6c 27       	ld.w	r7,r6[0x8]
8000c75a:	8e 69       	ld.sh	r9,r7[0xc]
8000c75c:	30 08       	mov	r8,0
8000c75e:	f0 09 19 00 	cp.h	r9,r8
8000c762:	c0 51       	brne	8000c76c <_fclose_r+0x50>
8000c764:	f0 1f 00 1f 	mcall	8000c7e0 <_fclose_r+0xc4>
8000c768:	30 05       	mov	r5,0
8000c76a:	c2 f8       	rjmp	8000c7c8 <_fclose_r+0xac>
8000c76c:	0e 9b       	mov	r11,r7
8000c76e:	0c 9c       	mov	r12,r6
8000c770:	f0 1f 00 1d 	mcall	8000c7e4 <_fclose_r+0xc8>
8000c774:	6e c8       	ld.w	r8,r7[0x30]
8000c776:	18 95       	mov	r5,r12
8000c778:	58 08       	cp.w	r8,0
8000c77a:	c0 60       	breq	8000c786 <_fclose_r+0x6a>
8000c77c:	6e 8b       	ld.w	r11,r7[0x20]
8000c77e:	0c 9c       	mov	r12,r6
8000c780:	5d 18       	icall	r8
8000c782:	f9 b5 05 ff 	movlt	r5,-1
8000c786:	8e 68       	ld.sh	r8,r7[0xc]
8000c788:	ed b8 00 07 	bld	r8,0x7
8000c78c:	c0 51       	brne	8000c796 <_fclose_r+0x7a>
8000c78e:	6e 4b       	ld.w	r11,r7[0x10]
8000c790:	0c 9c       	mov	r12,r6
8000c792:	f0 1f 00 16 	mcall	8000c7e8 <_fclose_r+0xcc>
8000c796:	6e db       	ld.w	r11,r7[0x34]
8000c798:	58 0b       	cp.w	r11,0
8000c79a:	c0 a0       	breq	8000c7ae <_fclose_r+0x92>
8000c79c:	ee c8 ff bc 	sub	r8,r7,-68
8000c7a0:	10 3b       	cp.w	r11,r8
8000c7a2:	c0 40       	breq	8000c7aa <_fclose_r+0x8e>
8000c7a4:	0c 9c       	mov	r12,r6
8000c7a6:	f0 1f 00 11 	mcall	8000c7e8 <_fclose_r+0xcc>
8000c7aa:	30 08       	mov	r8,0
8000c7ac:	8f d8       	st.w	r7[0x34],r8
8000c7ae:	6f 2b       	ld.w	r11,r7[0x48]
8000c7b0:	58 0b       	cp.w	r11,0
8000c7b2:	c0 70       	breq	8000c7c0 <_fclose_r+0xa4>
8000c7b4:	0c 9c       	mov	r12,r6
8000c7b6:	f0 1f 00 0d 	mcall	8000c7e8 <_fclose_r+0xcc>
8000c7ba:	30 08       	mov	r8,0
8000c7bc:	ef 48 00 48 	st.w	r7[72],r8
8000c7c0:	30 08       	mov	r8,0
8000c7c2:	ae 68       	st.h	r7[0xc],r8
8000c7c4:	f0 1f 00 07 	mcall	8000c7e0 <_fclose_r+0xc4>
8000c7c8:	0a 9c       	mov	r12,r5
8000c7ca:	d8 22       	popm	r4-r7,pc
8000c7cc:	80 00       	ld.sh	r0,r0[0x0]
8000c7ce:	ba 54       	st.h	sp[0xa],r4
8000c7d0:	80 00       	ld.sh	r0,r0[0x0]
8000c7d2:	bb 18       	ld.d	r8,--sp
8000c7d4:	80 00       	ld.sh	r0,r0[0x0]
8000c7d6:	df 64       	*unknown*
8000c7d8:	80 00       	ld.sh	r0,r0[0x0]
8000c7da:	df 84       	*unknown*
8000c7dc:	80 00       	ld.sh	r0,r0[0x0]
8000c7de:	df a4       	*unknown*
8000c7e0:	80 00       	ld.sh	r0,r0[0x0]
8000c7e2:	ba 56       	st.h	sp[0xa],r6
8000c7e4:	80 00       	ld.sh	r0,r0[0x0]
8000c7e6:	b9 40       	asr	r0,0x18
8000c7e8:	80 00       	ld.sh	r0,r0[0x0]
8000c7ea:	bc 70       	st.h	lr[0xe],r0

8000c7ec <fclose>:
8000c7ec:	d4 01       	pushm	lr
8000c7ee:	48 48       	lddpc	r8,8000c7fc <fclose+0x10>
8000c7f0:	18 9b       	mov	r11,r12
8000c7f2:	70 0c       	ld.w	r12,r8[0x0]
8000c7f4:	f0 1f 00 03 	mcall	8000c800 <fclose+0x14>
8000c7f8:	d8 02       	popm	pc
8000c7fa:	00 00       	add	r0,r0
8000c7fc:	00 00       	add	r0,r0
8000c7fe:	01 c4       	ld.ub	r4,r0[0x4]
8000c800:	80 00       	ld.sh	r0,r0[0x0]
8000c802:	c7 1c       	rcall	8000c8e4 <__avr32_s32_to_f64+0x54>

8000c804 <_fstat_r>:
8000c804:	d4 21       	pushm	r4-r7,lr
8000c806:	16 98       	mov	r8,r11
8000c808:	18 97       	mov	r7,r12
8000c80a:	10 9c       	mov	r12,r8
8000c80c:	30 08       	mov	r8,0
8000c80e:	48 76       	lddpc	r6,8000c828 <_fstat_r+0x24>
8000c810:	14 9b       	mov	r11,r10
8000c812:	8d 08       	st.w	r6[0x0],r8
8000c814:	f0 1f 00 06 	mcall	8000c82c <_fstat_r+0x28>
8000c818:	5b fc       	cp.w	r12,-1
8000c81a:	c0 51       	brne	8000c824 <_fstat_r+0x20>
8000c81c:	6c 08       	ld.w	r8,r6[0x0]
8000c81e:	58 08       	cp.w	r8,0
8000c820:	c0 20       	breq	8000c824 <_fstat_r+0x20>
8000c822:	8f 38       	st.w	r7[0xc],r8
8000c824:	d8 22       	popm	r4-r7,pc
8000c826:	00 00       	add	r0,r0
8000c828:	00 00       	add	r0,r0
8000c82a:	0f 84       	ld.ub	r4,r7[0x0]
8000c82c:	80 00       	ld.sh	r0,r0[0x0]
8000c82e:	86 44       	ld.sh	r4,r3[0x8]

8000c830 <_lseek_r>:
8000c830:	d4 21       	pushm	r4-r7,lr
8000c832:	16 98       	mov	r8,r11
8000c834:	18 97       	mov	r7,r12
8000c836:	10 9c       	mov	r12,r8
8000c838:	30 08       	mov	r8,0
8000c83a:	14 9b       	mov	r11,r10
8000c83c:	48 66       	lddpc	r6,8000c854 <_lseek_r+0x24>
8000c83e:	12 9a       	mov	r10,r9
8000c840:	8d 08       	st.w	r6[0x0],r8
8000c842:	f0 1f 00 06 	mcall	8000c858 <_lseek_r+0x28>
8000c846:	5b fc       	cp.w	r12,-1
8000c848:	c0 51       	brne	8000c852 <_lseek_r+0x22>
8000c84a:	6c 08       	ld.w	r8,r6[0x0]
8000c84c:	58 08       	cp.w	r8,0
8000c84e:	c0 20       	breq	8000c852 <_lseek_r+0x22>
8000c850:	8f 38       	st.w	r7[0xc],r8
8000c852:	d8 22       	popm	r4-r7,pc
8000c854:	00 00       	add	r0,r0
8000c856:	0f 84       	ld.ub	r4,r7[0x0]
8000c858:	80 00       	ld.sh	r0,r0[0x0]
8000c85a:	85 cc       	st.w	r2[0x30],r12

8000c85c <_read_r>:
8000c85c:	d4 21       	pushm	r4-r7,lr
8000c85e:	16 98       	mov	r8,r11
8000c860:	18 97       	mov	r7,r12
8000c862:	10 9c       	mov	r12,r8
8000c864:	30 08       	mov	r8,0
8000c866:	14 9b       	mov	r11,r10
8000c868:	48 66       	lddpc	r6,8000c880 <_read_r+0x24>
8000c86a:	12 9a       	mov	r10,r9
8000c86c:	8d 08       	st.w	r6[0x0],r8
8000c86e:	f0 1f 00 06 	mcall	8000c884 <_read_r+0x28>
8000c872:	5b fc       	cp.w	r12,-1
8000c874:	c0 51       	brne	8000c87e <_read_r+0x22>
8000c876:	6c 08       	ld.w	r8,r6[0x0]
8000c878:	58 08       	cp.w	r8,0
8000c87a:	c0 20       	breq	8000c87e <_read_r+0x22>
8000c87c:	8f 38       	st.w	r7[0xc],r8
8000c87e:	d8 22       	popm	r4-r7,pc
8000c880:	00 00       	add	r0,r0
8000c882:	0f 84       	ld.ub	r4,r7[0x0]
8000c884:	80 00       	ld.sh	r0,r0[0x0]
8000c886:	85 e4       	st.w	r2[0x38],r4

8000c888 <__avr32_u32_to_f64>:
8000c888:	f8 cb 00 00 	sub	r11,r12,0
8000c88c:	30 0c       	mov	r12,0
8000c88e:	c0 38       	rjmp	8000c894 <__avr32_s32_to_f64+0x4>

8000c890 <__avr32_s32_to_f64>:
8000c890:	18 9b       	mov	r11,r12
8000c892:	5c 4b       	abs	r11
8000c894:	30 0a       	mov	r10,0
8000c896:	5e 0b       	reteq	r11
8000c898:	d4 01       	pushm	lr
8000c89a:	e0 69 04 1e 	mov	r9,1054
8000c89e:	f6 08 12 00 	clz	r8,r11
8000c8a2:	c1 70       	breq	8000c8d0 <__avr32_s32_to_f64+0x40>
8000c8a4:	c0 c3       	brcs	8000c8bc <__avr32_s32_to_f64+0x2c>
8000c8a6:	f0 0e 11 20 	rsub	lr,r8,32
8000c8aa:	f6 08 09 4b 	lsl	r11,r11,r8
8000c8ae:	f4 0e 0a 4e 	lsr	lr,r10,lr
8000c8b2:	1c 4b       	or	r11,lr
8000c8b4:	f4 08 09 4a 	lsl	r10,r10,r8
8000c8b8:	10 19       	sub	r9,r8
8000c8ba:	c0 b8       	rjmp	8000c8d0 <__avr32_s32_to_f64+0x40>
8000c8bc:	f4 08 12 00 	clz	r8,r10
8000c8c0:	f9 b8 03 00 	movlo	r8,0
8000c8c4:	f7 b8 02 e0 	subhs	r8,-32
8000c8c8:	f4 08 09 4b 	lsl	r11,r10,r8
8000c8cc:	30 0a       	mov	r10,0
8000c8ce:	10 19       	sub	r9,r8
8000c8d0:	58 09       	cp.w	r9,0
8000c8d2:	e0 89 00 30 	brgt	8000c932 <__avr32_s32_to_f64+0xa2>
8000c8d6:	5c 39       	neg	r9
8000c8d8:	2f f9       	sub	r9,-1
8000c8da:	e0 49 00 36 	cp.w	r9,54
8000c8de:	c0 43       	brcs	8000c8e6 <__avr32_s32_to_f64+0x56>
8000c8e0:	30 0b       	mov	r11,0
8000c8e2:	30 0a       	mov	r10,0
8000c8e4:	c2 68       	rjmp	8000c930 <__avr32_s32_to_f64+0xa0>
8000c8e6:	2f 69       	sub	r9,-10
8000c8e8:	f2 08 11 20 	rsub	r8,r9,32
8000c8ec:	e0 49 00 20 	cp.w	r9,32
8000c8f0:	c0 b2       	brcc	8000c906 <__avr32_s32_to_f64+0x76>
8000c8f2:	f4 08 09 4e 	lsl	lr,r10,r8
8000c8f6:	f6 08 09 48 	lsl	r8,r11,r8
8000c8fa:	f4 09 0a 4a 	lsr	r10,r10,r9
8000c8fe:	f6 09 0a 4b 	lsr	r11,r11,r9
8000c902:	10 4b       	or	r11,r8
8000c904:	c0 88       	rjmp	8000c914 <__avr32_s32_to_f64+0x84>
8000c906:	f6 08 09 4e 	lsl	lr,r11,r8
8000c90a:	14 4e       	or	lr,r10
8000c90c:	16 9a       	mov	r10,r11
8000c90e:	30 0b       	mov	r11,0
8000c910:	f4 09 0a 4a 	lsr	r10,r10,r9
8000c914:	ed ba 00 00 	bld	r10,0x0
8000c918:	c0 92       	brcc	8000c92a <__avr32_s32_to_f64+0x9a>
8000c91a:	1c 7e       	tst	lr,lr
8000c91c:	c0 41       	brne	8000c924 <__avr32_s32_to_f64+0x94>
8000c91e:	ed ba 00 01 	bld	r10,0x1
8000c922:	c0 42       	brcc	8000c92a <__avr32_s32_to_f64+0x9a>
8000c924:	2f fa       	sub	r10,-1
8000c926:	f7 bb 02 ff 	subhs	r11,-1
8000c92a:	5c fc       	rol	r12
8000c92c:	5d 0b       	ror	r11
8000c92e:	5d 0a       	ror	r10
8000c930:	d8 02       	popm	pc
8000c932:	e0 68 03 ff 	mov	r8,1023
8000c936:	ed ba 00 0b 	bld	r10,0xb
8000c93a:	f7 b8 00 ff 	subeq	r8,-1
8000c93e:	10 0a       	add	r10,r8
8000c940:	5c 0b       	acr	r11
8000c942:	f7 b9 03 fe 	sublo	r9,-2
8000c946:	e0 49 07 ff 	cp.w	r9,2047
8000c94a:	c0 65       	brlt	8000c956 <__avr32_s32_to_f64+0xc6>
8000c94c:	30 0a       	mov	r10,0
8000c94e:	30 0b       	mov	r11,0
8000c950:	ea 1b ff e0 	orh	r11,0xffe0
8000c954:	c0 c8       	rjmp	8000c96c <__floatsidf_return_op1>
8000c956:	ed bb 00 1f 	bld	r11,0x1f
8000c95a:	f7 b9 01 01 	subne	r9,1
8000c95e:	ab 9a       	lsr	r10,0xb
8000c960:	f5 eb 11 5a 	or	r10,r10,r11<<0x15
8000c964:	a1 7b       	lsl	r11,0x1
8000c966:	ab 9b       	lsr	r11,0xb
8000c968:	f7 e9 11 5b 	or	r11,r11,r9<<0x15

8000c96c <__floatsidf_return_op1>:
8000c96c:	a1 7c       	lsl	r12,0x1
8000c96e:	5d 0b       	ror	r11
8000c970:	d8 02       	popm	pc

8000c972 <__avr32_f64_cmp_eq>:
8000c972:	10 3a       	cp.w	r10,r8
8000c974:	f2 0b 13 00 	cpc	r11,r9
8000c978:	c0 80       	breq	8000c988 <__avr32_f64_cmp_eq+0x16>
8000c97a:	a1 7b       	lsl	r11,0x1
8000c97c:	a1 79       	lsl	r9,0x1
8000c97e:	14 4b       	or	r11,r10
8000c980:	12 4b       	or	r11,r9
8000c982:	10 4b       	or	r11,r8
8000c984:	5e 0f       	reteq	1
8000c986:	5e fd       	retal	0
8000c988:	a1 7b       	lsl	r11,0x1
8000c98a:	30 0c       	mov	r12,0
8000c98c:	ea 1c ff e0 	orh	r12,0xffe0
8000c990:	58 0a       	cp.w	r10,0
8000c992:	f8 0b 13 00 	cpc	r11,r12
8000c996:	5e 8f       	retls	1
8000c998:	5e fd       	retal	0

8000c99a <__avr32_f64_cmp_ge>:
8000c99a:	1a de       	st.w	--sp,lr
8000c99c:	1a d7       	st.w	--sp,r7
8000c99e:	a1 7b       	lsl	r11,0x1
8000c9a0:	5f 3c       	srlo	r12
8000c9a2:	a1 79       	lsl	r9,0x1
8000c9a4:	5f 37       	srlo	r7
8000c9a6:	5c fc       	rol	r12
8000c9a8:	30 0e       	mov	lr,0
8000c9aa:	ea 1e ff e0 	orh	lr,0xffe0
8000c9ae:	58 0a       	cp.w	r10,0
8000c9b0:	fc 0b 13 00 	cpc	r11,lr
8000c9b4:	e0 8b 00 1d 	brhi	8000c9ee <__avr32_f64_cmp_ge+0x54>
8000c9b8:	58 08       	cp.w	r8,0
8000c9ba:	fc 09 13 00 	cpc	r9,lr
8000c9be:	e0 8b 00 18 	brhi	8000c9ee <__avr32_f64_cmp_ge+0x54>
8000c9c2:	58 0b       	cp.w	r11,0
8000c9c4:	f5 ba 00 00 	subfeq	r10,0
8000c9c8:	c1 50       	breq	8000c9f2 <__avr32_f64_cmp_ge+0x58>
8000c9ca:	1b 07       	ld.w	r7,sp++
8000c9cc:	1b 0e       	ld.w	lr,sp++
8000c9ce:	58 3c       	cp.w	r12,3
8000c9d0:	c0 a0       	breq	8000c9e4 <__avr32_f64_cmp_ge+0x4a>
8000c9d2:	58 1c       	cp.w	r12,1
8000c9d4:	c0 33       	brcs	8000c9da <__avr32_f64_cmp_ge+0x40>
8000c9d6:	5e 0f       	reteq	1
8000c9d8:	5e 1d       	retne	0
8000c9da:	10 3a       	cp.w	r10,r8
8000c9dc:	f2 0b 13 00 	cpc	r11,r9
8000c9e0:	5e 2f       	reths	1
8000c9e2:	5e 3d       	retlo	0
8000c9e4:	14 38       	cp.w	r8,r10
8000c9e6:	f6 09 13 00 	cpc	r9,r11
8000c9ea:	5e 2f       	reths	1
8000c9ec:	5e 3d       	retlo	0
8000c9ee:	1b 07       	ld.w	r7,sp++
8000c9f0:	d8 0a       	popm	pc,r12=0
8000c9f2:	58 17       	cp.w	r7,1
8000c9f4:	5f 0c       	sreq	r12
8000c9f6:	58 09       	cp.w	r9,0
8000c9f8:	f5 b8 00 00 	subfeq	r8,0
8000c9fc:	1b 07       	ld.w	r7,sp++
8000c9fe:	1b 0e       	ld.w	lr,sp++
8000ca00:	5e 0f       	reteq	1
8000ca02:	5e fc       	retal	r12

8000ca04 <__avr32_f64_cmp_lt>:
8000ca04:	1a de       	st.w	--sp,lr
8000ca06:	1a d7       	st.w	--sp,r7
8000ca08:	a1 7b       	lsl	r11,0x1
8000ca0a:	5f 3c       	srlo	r12
8000ca0c:	a1 79       	lsl	r9,0x1
8000ca0e:	5f 37       	srlo	r7
8000ca10:	5c fc       	rol	r12
8000ca12:	30 0e       	mov	lr,0
8000ca14:	ea 1e ff e0 	orh	lr,0xffe0
8000ca18:	58 0a       	cp.w	r10,0
8000ca1a:	fc 0b 13 00 	cpc	r11,lr
8000ca1e:	e0 8b 00 1d 	brhi	8000ca58 <__avr32_f64_cmp_lt+0x54>
8000ca22:	58 08       	cp.w	r8,0
8000ca24:	fc 09 13 00 	cpc	r9,lr
8000ca28:	e0 8b 00 18 	brhi	8000ca58 <__avr32_f64_cmp_lt+0x54>
8000ca2c:	58 0b       	cp.w	r11,0
8000ca2e:	f5 ba 00 00 	subfeq	r10,0
8000ca32:	c1 50       	breq	8000ca5c <__avr32_f64_cmp_lt+0x58>
8000ca34:	1b 07       	ld.w	r7,sp++
8000ca36:	1b 0e       	ld.w	lr,sp++
8000ca38:	58 3c       	cp.w	r12,3
8000ca3a:	c0 a0       	breq	8000ca4e <__avr32_f64_cmp_lt+0x4a>
8000ca3c:	58 1c       	cp.w	r12,1
8000ca3e:	c0 33       	brcs	8000ca44 <__avr32_f64_cmp_lt+0x40>
8000ca40:	5e 0d       	reteq	0
8000ca42:	5e 1f       	retne	1
8000ca44:	10 3a       	cp.w	r10,r8
8000ca46:	f2 0b 13 00 	cpc	r11,r9
8000ca4a:	5e 2d       	reths	0
8000ca4c:	5e 3f       	retlo	1
8000ca4e:	14 38       	cp.w	r8,r10
8000ca50:	f6 09 13 00 	cpc	r9,r11
8000ca54:	5e 2d       	reths	0
8000ca56:	5e 3f       	retlo	1
8000ca58:	1b 07       	ld.w	r7,sp++
8000ca5a:	d8 0a       	popm	pc,r12=0
8000ca5c:	58 17       	cp.w	r7,1
8000ca5e:	5f 1c       	srne	r12
8000ca60:	58 09       	cp.w	r9,0
8000ca62:	f5 b8 00 00 	subfeq	r8,0
8000ca66:	1b 07       	ld.w	r7,sp++
8000ca68:	1b 0e       	ld.w	lr,sp++
8000ca6a:	5e 0d       	reteq	0
8000ca6c:	5e fc       	retal	r12

8000ca6e <__avr32_udiv64>:
8000ca6e:	d4 31       	pushm	r0-r7,lr
8000ca70:	1a 97       	mov	r7,sp
8000ca72:	20 2d       	sub	sp,8
8000ca74:	10 9c       	mov	r12,r8
8000ca76:	12 9e       	mov	lr,r9
8000ca78:	14 93       	mov	r3,r10
8000ca7a:	58 09       	cp.w	r9,0
8000ca7c:	e0 81 00 cd 	brne	8000cc16 <__avr32_udiv64+0x1a8>
8000ca80:	16 38       	cp.w	r8,r11
8000ca82:	e0 88 00 45 	brls	8000cb0c <__avr32_udiv64+0x9e>
8000ca86:	f0 08 12 00 	clz	r8,r8
8000ca8a:	c0 d0       	breq	8000caa4 <__avr32_udiv64+0x36>
8000ca8c:	f6 08 09 4b 	lsl	r11,r11,r8
8000ca90:	f0 09 11 20 	rsub	r9,r8,32
8000ca94:	f8 08 09 4c 	lsl	r12,r12,r8
8000ca98:	f4 09 0a 49 	lsr	r9,r10,r9
8000ca9c:	f4 08 09 43 	lsl	r3,r10,r8
8000caa0:	f3 eb 10 0b 	or	r11,r9,r11
8000caa4:	f8 0e 16 10 	lsr	lr,r12,0x10
8000caa8:	f5 dc c0 10 	bfextu	r10,r12,0x0,0x10
8000caac:	f6 0e 0d 00 	divu	r0,r11,lr
8000cab0:	e6 0b 16 10 	lsr	r11,r3,0x10
8000cab4:	00 99       	mov	r9,r0
8000cab6:	f7 e1 11 0b 	or	r11,r11,r1<<0x10
8000caba:	e0 0a 02 48 	mul	r8,r0,r10
8000cabe:	10 3b       	cp.w	r11,r8
8000cac0:	c0 d2       	brcc	8000cada <__avr32_udiv64+0x6c>
8000cac2:	20 19       	sub	r9,1
8000cac4:	18 0b       	add	r11,r12
8000cac6:	18 3b       	cp.w	r11,r12
8000cac8:	c0 93       	brcs	8000cada <__avr32_udiv64+0x6c>
8000caca:	f2 c5 00 01 	sub	r5,r9,1
8000cace:	f6 0c 00 06 	add	r6,r11,r12
8000cad2:	10 3b       	cp.w	r11,r8
8000cad4:	c0 32       	brcc	8000cada <__avr32_udiv64+0x6c>
8000cad6:	0a 99       	mov	r9,r5
8000cad8:	0c 9b       	mov	r11,r6
8000cada:	f6 08 01 01 	sub	r1,r11,r8
8000cade:	e7 d3 c0 10 	bfextu	r3,r3,0x0,0x10
8000cae2:	e2 0e 0d 00 	divu	r0,r1,lr
8000cae6:	e7 e1 11 03 	or	r3,r3,r1<<0x10
8000caea:	00 98       	mov	r8,r0
8000caec:	e0 0a 02 4a 	mul	r10,r0,r10
8000caf0:	14 33       	cp.w	r3,r10
8000caf2:	c0 a2       	brcc	8000cb06 <__avr32_udiv64+0x98>
8000caf4:	20 18       	sub	r8,1
8000caf6:	18 03       	add	r3,r12
8000caf8:	18 33       	cp.w	r3,r12
8000cafa:	c0 63       	brcs	8000cb06 <__avr32_udiv64+0x98>
8000cafc:	f0 cb 00 01 	sub	r11,r8,1
8000cb00:	14 33       	cp.w	r3,r10
8000cb02:	f6 08 17 30 	movlo	r8,r11
8000cb06:	f1 e9 11 08 	or	r8,r8,r9<<0x10
8000cb0a:	ce c8       	rjmp	8000cce2 <__avr32_udiv64+0x274>
8000cb0c:	58 08       	cp.w	r8,0
8000cb0e:	c0 51       	brne	8000cb18 <__avr32_udiv64+0xaa>
8000cb10:	30 19       	mov	r9,1
8000cb12:	f2 08 0d 08 	divu	r8,r9,r8
8000cb16:	10 9c       	mov	r12,r8
8000cb18:	f8 06 12 00 	clz	r6,r12
8000cb1c:	c0 41       	brne	8000cb24 <__avr32_udiv64+0xb6>
8000cb1e:	18 1b       	sub	r11,r12
8000cb20:	30 19       	mov	r9,1
8000cb22:	c4 68       	rjmp	8000cbae <__avr32_udiv64+0x140>
8000cb24:	ec 01 11 20 	rsub	r1,r6,32
8000cb28:	f4 01 0a 49 	lsr	r9,r10,r1
8000cb2c:	f8 06 09 4c 	lsl	r12,r12,r6
8000cb30:	f6 06 09 48 	lsl	r8,r11,r6
8000cb34:	f6 01 0a 41 	lsr	r1,r11,r1
8000cb38:	f3 e8 10 08 	or	r8,r9,r8
8000cb3c:	f8 03 16 10 	lsr	r3,r12,0x10
8000cb40:	eb dc c0 10 	bfextu	r5,r12,0x0,0x10
8000cb44:	e2 03 0d 00 	divu	r0,r1,r3
8000cb48:	f0 0b 16 10 	lsr	r11,r8,0x10
8000cb4c:	00 9e       	mov	lr,r0
8000cb4e:	f7 e1 11 0b 	or	r11,r11,r1<<0x10
8000cb52:	e0 05 02 49 	mul	r9,r0,r5
8000cb56:	12 3b       	cp.w	r11,r9
8000cb58:	c0 d2       	brcc	8000cb72 <__avr32_udiv64+0x104>
8000cb5a:	20 1e       	sub	lr,1
8000cb5c:	18 0b       	add	r11,r12
8000cb5e:	18 3b       	cp.w	r11,r12
8000cb60:	c0 93       	brcs	8000cb72 <__avr32_udiv64+0x104>
8000cb62:	fc c1 00 01 	sub	r1,lr,1
8000cb66:	f6 0c 00 02 	add	r2,r11,r12
8000cb6a:	12 3b       	cp.w	r11,r9
8000cb6c:	c0 32       	brcc	8000cb72 <__avr32_udiv64+0x104>
8000cb6e:	02 9e       	mov	lr,r1
8000cb70:	04 9b       	mov	r11,r2
8000cb72:	12 1b       	sub	r11,r9
8000cb74:	f1 d8 c0 10 	bfextu	r8,r8,0x0,0x10
8000cb78:	f6 03 0d 02 	divu	r2,r11,r3
8000cb7c:	f1 e3 11 08 	or	r8,r8,r3<<0x10
8000cb80:	04 99       	mov	r9,r2
8000cb82:	e4 05 02 4b 	mul	r11,r2,r5
8000cb86:	16 38       	cp.w	r8,r11
8000cb88:	c0 d2       	brcc	8000cba2 <__avr32_udiv64+0x134>
8000cb8a:	20 19       	sub	r9,1
8000cb8c:	18 08       	add	r8,r12
8000cb8e:	18 38       	cp.w	r8,r12
8000cb90:	c0 93       	brcs	8000cba2 <__avr32_udiv64+0x134>
8000cb92:	f2 c3 00 01 	sub	r3,r9,1
8000cb96:	f0 0c 00 05 	add	r5,r8,r12
8000cb9a:	16 38       	cp.w	r8,r11
8000cb9c:	c0 32       	brcc	8000cba2 <__avr32_udiv64+0x134>
8000cb9e:	06 99       	mov	r9,r3
8000cba0:	0a 98       	mov	r8,r5
8000cba2:	f4 06 09 43 	lsl	r3,r10,r6
8000cba6:	f0 0b 01 0b 	sub	r11,r8,r11
8000cbaa:	f3 ee 11 09 	or	r9,r9,lr<<0x10
8000cbae:	f8 06 16 10 	lsr	r6,r12,0x10
8000cbb2:	fd dc c0 10 	bfextu	lr,r12,0x0,0x10
8000cbb6:	f6 06 0d 00 	divu	r0,r11,r6
8000cbba:	e6 0b 16 10 	lsr	r11,r3,0x10
8000cbbe:	00 9a       	mov	r10,r0
8000cbc0:	f7 e1 11 0b 	or	r11,r11,r1<<0x10
8000cbc4:	e0 0e 02 48 	mul	r8,r0,lr
8000cbc8:	10 3b       	cp.w	r11,r8
8000cbca:	c0 d2       	brcc	8000cbe4 <__avr32_udiv64+0x176>
8000cbcc:	20 1a       	sub	r10,1
8000cbce:	18 0b       	add	r11,r12
8000cbd0:	18 3b       	cp.w	r11,r12
8000cbd2:	c0 93       	brcs	8000cbe4 <__avr32_udiv64+0x176>
8000cbd4:	f4 c2 00 01 	sub	r2,r10,1
8000cbd8:	f6 0c 00 05 	add	r5,r11,r12
8000cbdc:	10 3b       	cp.w	r11,r8
8000cbde:	c0 32       	brcc	8000cbe4 <__avr32_udiv64+0x176>
8000cbe0:	04 9a       	mov	r10,r2
8000cbe2:	0a 9b       	mov	r11,r5
8000cbe4:	f6 08 01 01 	sub	r1,r11,r8
8000cbe8:	e7 d3 c0 10 	bfextu	r3,r3,0x0,0x10
8000cbec:	e2 06 0d 00 	divu	r0,r1,r6
8000cbf0:	e7 e1 11 03 	or	r3,r3,r1<<0x10
8000cbf4:	00 98       	mov	r8,r0
8000cbf6:	e0 0e 02 4b 	mul	r11,r0,lr
8000cbfa:	16 33       	cp.w	r3,r11
8000cbfc:	c0 a2       	brcc	8000cc10 <__avr32_udiv64+0x1a2>
8000cbfe:	20 18       	sub	r8,1
8000cc00:	18 03       	add	r3,r12
8000cc02:	18 33       	cp.w	r3,r12
8000cc04:	c0 63       	brcs	8000cc10 <__avr32_udiv64+0x1a2>
8000cc06:	f0 cc 00 01 	sub	r12,r8,1
8000cc0a:	16 33       	cp.w	r3,r11
8000cc0c:	f8 08 17 30 	movlo	r8,r12
8000cc10:	f1 ea 11 08 	or	r8,r8,r10<<0x10
8000cc14:	c6 b8       	rjmp	8000ccea <__avr32_udiv64+0x27c>
8000cc16:	16 39       	cp.w	r9,r11
8000cc18:	e0 8b 00 67 	brhi	8000cce6 <__avr32_udiv64+0x278>
8000cc1c:	f2 09 12 00 	clz	r9,r9
8000cc20:	c0 b1       	brne	8000cc36 <__avr32_udiv64+0x1c8>
8000cc22:	10 3a       	cp.w	r10,r8
8000cc24:	5f 2a       	srhs	r10
8000cc26:	1c 3b       	cp.w	r11,lr
8000cc28:	5f b8       	srhi	r8
8000cc2a:	10 4a       	or	r10,r8
8000cc2c:	f2 0a 18 00 	cp.b	r10,r9
8000cc30:	c5 b0       	breq	8000cce6 <__avr32_udiv64+0x278>
8000cc32:	30 18       	mov	r8,1
8000cc34:	c5 b8       	rjmp	8000ccea <__avr32_udiv64+0x27c>
8000cc36:	f2 03 11 20 	rsub	r3,r9,32
8000cc3a:	fc 09 09 4e 	lsl	lr,lr,r9
8000cc3e:	f6 09 09 4c 	lsl	r12,r11,r9
8000cc42:	f4 03 0a 42 	lsr	r2,r10,r3
8000cc46:	f0 09 09 46 	lsl	r6,r8,r9
8000cc4a:	f0 03 0a 48 	lsr	r8,r8,r3
8000cc4e:	f6 03 0a 43 	lsr	r3,r11,r3
8000cc52:	18 42       	or	r2,r12
8000cc54:	f1 ee 10 0c 	or	r12,r8,lr
8000cc58:	f8 01 16 10 	lsr	r1,r12,0x10
8000cc5c:	fd dc c0 10 	bfextu	lr,r12,0x0,0x10
8000cc60:	e6 01 0d 04 	divu	r4,r3,r1
8000cc64:	e4 03 16 10 	lsr	r3,r2,0x10
8000cc68:	08 98       	mov	r8,r4
8000cc6a:	e7 e5 11 03 	or	r3,r3,r5<<0x10
8000cc6e:	e8 0e 02 45 	mul	r5,r4,lr
8000cc72:	0a 33       	cp.w	r3,r5
8000cc74:	c0 d2       	brcc	8000cc8e <__avr32_udiv64+0x220>
8000cc76:	20 18       	sub	r8,1
8000cc78:	18 03       	add	r3,r12
8000cc7a:	18 33       	cp.w	r3,r12
8000cc7c:	c0 93       	brcs	8000cc8e <__avr32_udiv64+0x220>
8000cc7e:	f0 c0 00 01 	sub	r0,r8,1
8000cc82:	e6 0c 00 0b 	add	r11,r3,r12
8000cc86:	0a 33       	cp.w	r3,r5
8000cc88:	c0 32       	brcc	8000cc8e <__avr32_udiv64+0x220>
8000cc8a:	00 98       	mov	r8,r0
8000cc8c:	16 93       	mov	r3,r11
8000cc8e:	0a 13       	sub	r3,r5
8000cc90:	f7 d2 c0 10 	bfextu	r11,r2,0x0,0x10
8000cc94:	e6 01 0d 00 	divu	r0,r3,r1
8000cc98:	f7 e1 11 0b 	or	r11,r11,r1<<0x10
8000cc9c:	00 93       	mov	r3,r0
8000cc9e:	e0 0e 02 4e 	mul	lr,r0,lr
8000cca2:	1c 3b       	cp.w	r11,lr
8000cca4:	c0 d2       	brcc	8000ccbe <__avr32_udiv64+0x250>
8000cca6:	20 13       	sub	r3,1
8000cca8:	18 0b       	add	r11,r12
8000ccaa:	18 3b       	cp.w	r11,r12
8000ccac:	c0 93       	brcs	8000ccbe <__avr32_udiv64+0x250>
8000ccae:	f6 0c 00 0c 	add	r12,r11,r12
8000ccb2:	e6 c5 00 01 	sub	r5,r3,1
8000ccb6:	1c 3b       	cp.w	r11,lr
8000ccb8:	c0 32       	brcc	8000ccbe <__avr32_udiv64+0x250>
8000ccba:	0a 93       	mov	r3,r5
8000ccbc:	18 9b       	mov	r11,r12
8000ccbe:	e7 e8 11 08 	or	r8,r3,r8<<0x10
8000ccc2:	1c 1b       	sub	r11,lr
8000ccc4:	f0 06 06 42 	mulu.d	r2,r8,r6
8000ccc8:	06 96       	mov	r6,r3
8000ccca:	16 36       	cp.w	r6,r11
8000cccc:	e0 8b 00 0a 	brhi	8000cce0 <__avr32_udiv64+0x272>
8000ccd0:	5f 0b       	sreq	r11
8000ccd2:	f4 09 09 49 	lsl	r9,r10,r9
8000ccd6:	12 32       	cp.w	r2,r9
8000ccd8:	5f b9       	srhi	r9
8000ccda:	f7 e9 00 09 	and	r9,r11,r9
8000ccde:	c0 60       	breq	8000ccea <__avr32_udiv64+0x27c>
8000cce0:	20 18       	sub	r8,1
8000cce2:	30 09       	mov	r9,0
8000cce4:	c0 38       	rjmp	8000ccea <__avr32_udiv64+0x27c>
8000cce6:	30 09       	mov	r9,0
8000cce8:	12 98       	mov	r8,r9
8000ccea:	10 9a       	mov	r10,r8
8000ccec:	12 93       	mov	r3,r9
8000ccee:	10 92       	mov	r2,r8
8000ccf0:	12 9b       	mov	r11,r9
8000ccf2:	2f ed       	sub	sp,-8
8000ccf4:	d8 32       	popm	r0-r7,pc

8000ccf6 <__avr32_umod64>:
8000ccf6:	d4 31       	pushm	r0-r7,lr
8000ccf8:	1a 97       	mov	r7,sp
8000ccfa:	20 2d       	sub	sp,8
8000ccfc:	10 96       	mov	r6,r8
8000ccfe:	12 9e       	mov	lr,r9
8000cd00:	14 9c       	mov	r12,r10
8000cd02:	16 93       	mov	r3,r11
8000cd04:	16 95       	mov	r5,r11
8000cd06:	58 09       	cp.w	r9,0
8000cd08:	e0 81 00 89 	brne	8000ce1a <__avr32_umod64+0x124>
8000cd0c:	16 38       	cp.w	r8,r11
8000cd0e:	e0 88 00 12 	brls	8000cd32 <__avr32_umod64+0x3c>
8000cd12:	f0 08 12 00 	clz	r8,r8
8000cd16:	c5 20       	breq	8000cdba <__avr32_umod64+0xc4>
8000cd18:	f6 08 09 45 	lsl	r5,r11,r8
8000cd1c:	ec 08 09 46 	lsl	r6,r6,r8
8000cd20:	f0 0b 11 20 	rsub	r11,r8,32
8000cd24:	f4 08 09 4c 	lsl	r12,r10,r8
8000cd28:	f4 0b 0a 4b 	lsr	r11,r10,r11
8000cd2c:	f7 e5 10 05 	or	r5,r11,r5
8000cd30:	c4 58       	rjmp	8000cdba <__avr32_umod64+0xc4>
8000cd32:	58 08       	cp.w	r8,0
8000cd34:	c0 51       	brne	8000cd3e <__avr32_umod64+0x48>
8000cd36:	30 19       	mov	r9,1
8000cd38:	f2 08 0d 08 	divu	r8,r9,r8
8000cd3c:	10 96       	mov	r6,r8
8000cd3e:	ec 08 12 00 	clz	r8,r6
8000cd42:	c0 31       	brne	8000cd48 <__avr32_umod64+0x52>
8000cd44:	0c 15       	sub	r5,r6
8000cd46:	c3 a8       	rjmp	8000cdba <__avr32_umod64+0xc4>
8000cd48:	f0 03 11 20 	rsub	r3,r8,32
8000cd4c:	f4 03 0a 4b 	lsr	r11,r10,r3
8000cd50:	ec 08 09 46 	lsl	r6,r6,r8
8000cd54:	ea 08 09 49 	lsl	r9,r5,r8
8000cd58:	ea 03 0a 43 	lsr	r3,r5,r3
8000cd5c:	f7 e9 10 09 	or	r9,r11,r9
8000cd60:	ec 0e 16 10 	lsr	lr,r6,0x10
8000cd64:	eb d6 c0 10 	bfextu	r5,r6,0x0,0x10
8000cd68:	e6 0e 0d 02 	divu	r2,r3,lr
8000cd6c:	f2 0c 16 10 	lsr	r12,r9,0x10
8000cd70:	ea 02 02 4b 	mul	r11,r5,r2
8000cd74:	f9 e3 11 0c 	or	r12,r12,r3<<0x10
8000cd78:	16 3c       	cp.w	r12,r11
8000cd7a:	c0 92       	brcc	8000cd8c <__avr32_umod64+0x96>
8000cd7c:	0c 0c       	add	r12,r6
8000cd7e:	0c 3c       	cp.w	r12,r6
8000cd80:	c0 63       	brcs	8000cd8c <__avr32_umod64+0x96>
8000cd82:	f8 06 00 03 	add	r3,r12,r6
8000cd86:	16 3c       	cp.w	r12,r11
8000cd88:	e6 0c 17 30 	movlo	r12,r3
8000cd8c:	f8 0b 01 03 	sub	r3,r12,r11
8000cd90:	f3 d9 c0 10 	bfextu	r9,r9,0x0,0x10
8000cd94:	e6 0e 0d 02 	divu	r2,r3,lr
8000cd98:	f3 e3 11 09 	or	r9,r9,r3<<0x10
8000cd9c:	a5 35       	mul	r5,r2
8000cd9e:	0a 39       	cp.w	r9,r5
8000cda0:	c0 92       	brcc	8000cdb2 <__avr32_umod64+0xbc>
8000cda2:	0c 09       	add	r9,r6
8000cda4:	0c 39       	cp.w	r9,r6
8000cda6:	c0 63       	brcs	8000cdb2 <__avr32_umod64+0xbc>
8000cda8:	f2 06 00 0b 	add	r11,r9,r6
8000cdac:	0a 39       	cp.w	r9,r5
8000cdae:	f6 09 17 30 	movlo	r9,r11
8000cdb2:	f2 05 01 05 	sub	r5,r9,r5
8000cdb6:	f4 08 09 4c 	lsl	r12,r10,r8
8000cdba:	ec 0a 16 10 	lsr	r10,r6,0x10
8000cdbe:	fd d6 c0 10 	bfextu	lr,r6,0x0,0x10
8000cdc2:	ea 0a 0d 02 	divu	r2,r5,r10
8000cdc6:	f8 09 16 10 	lsr	r9,r12,0x10
8000cdca:	fc 02 02 4b 	mul	r11,lr,r2
8000cdce:	f3 e3 11 09 	or	r9,r9,r3<<0x10
8000cdd2:	16 39       	cp.w	r9,r11
8000cdd4:	c0 92       	brcc	8000cde6 <__avr32_umod64+0xf0>
8000cdd6:	0c 09       	add	r9,r6
8000cdd8:	0c 39       	cp.w	r9,r6
8000cdda:	c0 63       	brcs	8000cde6 <__avr32_umod64+0xf0>
8000cddc:	f2 06 00 05 	add	r5,r9,r6
8000cde0:	16 39       	cp.w	r9,r11
8000cde2:	ea 09 17 30 	movlo	r9,r5
8000cde6:	f2 0b 01 0b 	sub	r11,r9,r11
8000cdea:	f9 dc c0 10 	bfextu	r12,r12,0x0,0x10
8000cdee:	f6 0a 0d 0a 	divu	r10,r11,r10
8000cdf2:	f9 eb 11 0c 	or	r12,r12,r11<<0x10
8000cdf6:	fc 0a 02 4a 	mul	r10,lr,r10
8000cdfa:	14 3c       	cp.w	r12,r10
8000cdfc:	c0 92       	brcc	8000ce0e <__avr32_umod64+0x118>
8000cdfe:	0c 0c       	add	r12,r6
8000ce00:	0c 3c       	cp.w	r12,r6
8000ce02:	c0 63       	brcs	8000ce0e <__avr32_umod64+0x118>
8000ce04:	f8 06 00 06 	add	r6,r12,r6
8000ce08:	14 3c       	cp.w	r12,r10
8000ce0a:	ec 0c 17 30 	movlo	r12,r6
8000ce0e:	f8 0a 01 0a 	sub	r10,r12,r10
8000ce12:	30 0b       	mov	r11,0
8000ce14:	f4 08 0a 4a 	lsr	r10,r10,r8
8000ce18:	c8 38       	rjmp	8000cf1e <__avr32_umod64+0x228>
8000ce1a:	16 39       	cp.w	r9,r11
8000ce1c:	e0 8b 00 81 	brhi	8000cf1e <__avr32_umod64+0x228>
8000ce20:	f2 09 12 00 	clz	r9,r9
8000ce24:	c1 21       	brne	8000ce48 <__avr32_umod64+0x152>
8000ce26:	10 3a       	cp.w	r10,r8
8000ce28:	5f 2b       	srhs	r11
8000ce2a:	1c 33       	cp.w	r3,lr
8000ce2c:	5f ba       	srhi	r10
8000ce2e:	f7 ea 10 0a 	or	r10,r11,r10
8000ce32:	f2 0a 18 00 	cp.b	r10,r9
8000ce36:	c0 60       	breq	8000ce42 <__avr32_umod64+0x14c>
8000ce38:	f8 08 01 0b 	sub	r11,r12,r8
8000ce3c:	e6 0e 01 45 	sbc	r5,r3,lr
8000ce40:	16 9c       	mov	r12,r11
8000ce42:	0a 9b       	mov	r11,r5
8000ce44:	18 9a       	mov	r10,r12
8000ce46:	c6 c8       	rjmp	8000cf1e <__avr32_umod64+0x228>
8000ce48:	fc 09 09 45 	lsl	r5,lr,r9
8000ce4c:	f6 09 09 4b 	lsl	r11,r11,r9
8000ce50:	f2 0c 11 20 	rsub	r12,r9,32
8000ce54:	f0 09 09 46 	lsl	r6,r8,r9
8000ce58:	e6 0c 0a 43 	lsr	r3,r3,r12
8000ce5c:	f4 0c 0a 42 	lsr	r2,r10,r12
8000ce60:	f4 09 09 4e 	lsl	lr,r10,r9
8000ce64:	16 42       	or	r2,r11
8000ce66:	f0 0c 0a 48 	lsr	r8,r8,r12
8000ce6a:	0a 48       	or	r8,r5
8000ce6c:	f0 01 16 10 	lsr	r1,r8,0x10
8000ce70:	e6 01 0d 0a 	divu	r10,r3,r1
8000ce74:	ee eb ff f8 	st.d	r7[-8],r10
8000ce78:	ee f5 ff f8 	ld.w	r5,r7[-8]
8000ce7c:	14 9b       	mov	r11,r10
8000ce7e:	e7 d8 c0 10 	bfextu	r3,r8,0x0,0x10
8000ce82:	e4 0a 16 10 	lsr	r10,r2,0x10
8000ce86:	f5 e5 11 0a 	or	r10,r10,r5<<0x10
8000ce8a:	f6 03 02 45 	mul	r5,r11,r3
8000ce8e:	0a 3a       	cp.w	r10,r5
8000ce90:	c1 02       	brcc	8000ceb0 <__avr32_umod64+0x1ba>
8000ce92:	20 1b       	sub	r11,1
8000ce94:	10 0a       	add	r10,r8
8000ce96:	10 3a       	cp.w	r10,r8
8000ce98:	c0 c3       	brcs	8000ceb0 <__avr32_umod64+0x1ba>
8000ce9a:	f6 c0 00 01 	sub	r0,r11,1
8000ce9e:	ef 40 ff f8 	st.w	r7[-8],r0
8000cea2:	f4 08 00 00 	add	r0,r10,r8
8000cea6:	0a 3a       	cp.w	r10,r5
8000cea8:	c0 42       	brcc	8000ceb0 <__avr32_umod64+0x1ba>
8000ceaa:	ee fb ff f8 	ld.w	r11,r7[-8]
8000ceae:	00 9a       	mov	r10,r0
8000ceb0:	0a 1a       	sub	r10,r5
8000ceb2:	e5 d2 c0 10 	bfextu	r2,r2,0x0,0x10
8000ceb6:	f4 01 0d 00 	divu	r0,r10,r1
8000ceba:	e5 e1 11 02 	or	r2,r2,r1<<0x10
8000cebe:	e0 03 02 43 	mul	r3,r0,r3
8000cec2:	00 91       	mov	r1,r0
8000cec4:	06 32       	cp.w	r2,r3
8000cec6:	c0 d2       	brcc	8000cee0 <__avr32_umod64+0x1ea>
8000cec8:	20 11       	sub	r1,1
8000ceca:	10 02       	add	r2,r8
8000cecc:	10 32       	cp.w	r2,r8
8000cece:	c0 93       	brcs	8000cee0 <__avr32_umod64+0x1ea>
8000ced0:	e2 c5 00 01 	sub	r5,r1,1
8000ced4:	e4 08 00 0a 	add	r10,r2,r8
8000ced8:	06 32       	cp.w	r2,r3
8000ceda:	c0 32       	brcc	8000cee0 <__avr32_umod64+0x1ea>
8000cedc:	0a 91       	mov	r1,r5
8000cede:	14 92       	mov	r2,r10
8000cee0:	e3 eb 11 0b 	or	r11,r1,r11<<0x10
8000cee4:	06 12       	sub	r2,r3
8000cee6:	f6 06 06 4a 	mulu.d	r10,r11,r6
8000ceea:	14 95       	mov	r5,r10
8000ceec:	04 3b       	cp.w	r11,r2
8000ceee:	e0 8b 00 08 	brhi	8000cefe <__avr32_umod64+0x208>
8000cef2:	5f 03       	sreq	r3
8000cef4:	1c 3a       	cp.w	r10,lr
8000cef6:	5f ba       	srhi	r10
8000cef8:	e7 ea 00 0a 	and	r10,r3,r10
8000cefc:	c0 60       	breq	8000cf08 <__avr32_umod64+0x212>
8000cefe:	ea 06 01 0a 	sub	r10,r5,r6
8000cf02:	f6 08 01 4b 	sbc	r11,r11,r8
8000cf06:	14 95       	mov	r5,r10
8000cf08:	fc 05 01 0a 	sub	r10,lr,r5
8000cf0c:	e4 0b 01 42 	sbc	r2,r2,r11
8000cf10:	e4 09 0a 4b 	lsr	r11,r2,r9
8000cf14:	f4 09 0a 4a 	lsr	r10,r10,r9
8000cf18:	e4 0c 09 42 	lsl	r2,r2,r12
8000cf1c:	04 4a       	or	r10,r2
8000cf1e:	2f ed       	sub	sp,-8
8000cf20:	d8 32       	popm	r0-r7,pc

Disassembly of section .exception:

8000d000 <_evba>:
_evba:

	.org  0x000
	// Unrecoverable Exception.
_handle_Unrecoverable_Exception:
	rjmp $
8000d000:	c0 08       	rjmp	8000d000 <_evba>
	...

8000d004 <_handle_TLB_Multiple_Hit>:

	.org  0x004
	// TLB Multiple Hit.
_handle_TLB_Multiple_Hit:
	rjmp $
8000d004:	c0 08       	rjmp	8000d004 <_handle_TLB_Multiple_Hit>
	...

8000d008 <_handle_Bus_Error_Data_Fetch>:

	.org  0x008
	// Bus Error Data Fetch.
_handle_Bus_Error_Data_Fetch:
	rjmp $
8000d008:	c0 08       	rjmp	8000d008 <_handle_Bus_Error_Data_Fetch>
	...

8000d00c <_handle_Bus_Error_Instruction_Fetch>:

	.org  0x00C
	// Bus Error Instruction Fetch.
_handle_Bus_Error_Instruction_Fetch:
	rjmp $
8000d00c:	c0 08       	rjmp	8000d00c <_handle_Bus_Error_Instruction_Fetch>
	...

8000d010 <_handle_NMI>:

	.org  0x010
	// NMI.
_handle_NMI:
	rjmp $
8000d010:	c0 08       	rjmp	8000d010 <_handle_NMI>
	...

8000d014 <_handle_Instruction_Address>:

	.org  0x014
	// Instruction Address.
_handle_Instruction_Address:
	rjmp $
8000d014:	c0 08       	rjmp	8000d014 <_handle_Instruction_Address>
	...

8000d018 <_handle_ITLB_Protection>:

	.org  0x018
	// ITLB Protection.
_handle_ITLB_Protection:
	rjmp $
8000d018:	c0 08       	rjmp	8000d018 <_handle_ITLB_Protection>
	...

8000d01c <_handle_Breakpoint>:

	.org  0x01C
	// Breakpoint.
_handle_Breakpoint:
	rjmp $
8000d01c:	c0 08       	rjmp	8000d01c <_handle_Breakpoint>
	...

8000d020 <_handle_Illegal_Opcode>:

	.org  0x020
	// Illegal Opcode.
_handle_Illegal_Opcode:
	rjmp $
8000d020:	c0 08       	rjmp	8000d020 <_handle_Illegal_Opcode>
	...

8000d024 <_handle_Unimplemented_Instruction>:

	.org  0x024
	// Unimplemented Instruction.
_handle_Unimplemented_Instruction:
	rjmp $
8000d024:	c0 08       	rjmp	8000d024 <_handle_Unimplemented_Instruction>
	...

8000d028 <_handle_Privilege_Violation>:

	.org  0x028
	// Privilege Violation.
_handle_Privilege_Violation:
	rjmp $
8000d028:	c0 08       	rjmp	8000d028 <_handle_Privilege_Violation>
	...

8000d02c <_handle_Floating_Point>:

	.org  0x02C
	// Floating-Point: UNUSED IN AVR32UC and AVR32AP.
_handle_Floating_Point:
	rjmp $
8000d02c:	c0 08       	rjmp	8000d02c <_handle_Floating_Point>
	...

8000d030 <_handle_Coprocessor_Absent>:

	.org  0x030
	// Coprocessor Absent: UNUSED IN AVR32UC.
_handle_Coprocessor_Absent:
	rjmp $
8000d030:	c0 08       	rjmp	8000d030 <_handle_Coprocessor_Absent>
	...

8000d034 <_handle_Data_Address_Read>:

	.org  0x034
	// Data Address (Read).
_handle_Data_Address_Read:
	rjmp $
8000d034:	c0 08       	rjmp	8000d034 <_handle_Data_Address_Read>
	...

8000d038 <_handle_Data_Address_Write>:

	.org  0x038
	// Data Address (Write).
_handle_Data_Address_Write:
	rjmp $
8000d038:	c0 08       	rjmp	8000d038 <_handle_Data_Address_Write>
	...

8000d03c <_handle_DTLB_Protection_Read>:

	.org  0x03C
	// DTLB Protection (Read).
_handle_DTLB_Protection_Read:
	rjmp $
8000d03c:	c0 08       	rjmp	8000d03c <_handle_DTLB_Protection_Read>
	...

8000d040 <_handle_DTLB_Protection_Write>:

	.org  0x040
	// DTLB Protection (Write).
_handle_DTLB_Protection_Write:
	rjmp $
8000d040:	c0 08       	rjmp	8000d040 <_handle_DTLB_Protection_Write>
	...

8000d044 <_handle_DTLB_Modified>:

	.org  0x044
	// DTLB Modified: UNUSED IN AVR32UC.
_handle_DTLB_Modified:
	rjmp $
8000d044:	c0 08       	rjmp	8000d044 <_handle_DTLB_Modified>
	...

8000d050 <_handle_ITLB_Miss>:

	.org  0x050
	// ITLB Miss.
_handle_ITLB_Miss:
	rjmp $
8000d050:	c0 08       	rjmp	8000d050 <_handle_ITLB_Miss>
	...

8000d060 <_handle_DTLB_Miss_Read>:

	.org  0x060
	// DTLB Miss (Read).
_handle_DTLB_Miss_Read:
	rjmp $
8000d060:	c0 08       	rjmp	8000d060 <_handle_DTLB_Miss_Read>
	...

8000d070 <_handle_DTLB_Miss_Write>:

	.org  0x070
	// DTLB Miss (Write).
_handle_DTLB_Miss_Write:
	rjmp $
8000d070:	c0 08       	rjmp	8000d070 <_handle_DTLB_Miss_Write>
	...

8000d100 <_handle_Supervisor_Call>:

	.org  0x100
	// Supervisor Call.
_handle_Supervisor_Call:
	rjmp $
8000d100:	c0 08       	rjmp	8000d100 <_handle_Supervisor_Call>
	...

8000d104 <_int0>:
	/*
	 * If this was a spurious interrupt (R12 == NULL), return from event
	 * handler.
	 */
	rete
.endr
8000d104:	d7 c1       	pushm	r8-r12,lr
8000d106:	30 0c       	mov	r12,0
8000d108:	f0 1f 00 17 	mcall	8000d164 <spint3+0x4>
8000d10c:	58 0c       	cp.w	r12,0
8000d10e:	f8 0f 17 10 	movne	pc,r12
8000d112:	c0 30       	breq	8000d118 <spint0>
8000d114:	1a dc       	st.w	--sp,r12
8000d116:	df c2       	popm	r8-r12,lr-pc

8000d118 <spint0>:
8000d118:	d7 c2       	popm	r8-r12,lr
8000d11a:	d6 03       	rete

8000d11c <_int1>:
8000d11c:	d7 c1       	pushm	r8-r12,lr
8000d11e:	30 1c       	mov	r12,1
8000d120:	f0 1f 00 11 	mcall	8000d164 <spint3+0x4>
8000d124:	58 0c       	cp.w	r12,0
8000d126:	f8 0f 17 10 	movne	pc,r12
8000d12a:	c0 30       	breq	8000d130 <spint1>
8000d12c:	1a dc       	st.w	--sp,r12
8000d12e:	df c2       	popm	r8-r12,lr-pc

8000d130 <spint1>:
8000d130:	d7 c2       	popm	r8-r12,lr
8000d132:	d6 03       	rete

8000d134 <_int2>:
8000d134:	d7 c1       	pushm	r8-r12,lr
8000d136:	30 2c       	mov	r12,2
8000d138:	f0 1f 00 0b 	mcall	8000d164 <spint3+0x4>
8000d13c:	58 0c       	cp.w	r12,0
8000d13e:	f8 0f 17 10 	movne	pc,r12
8000d142:	c0 30       	breq	8000d148 <spint2>
8000d144:	1a dc       	st.w	--sp,r12
8000d146:	df c2       	popm	r8-r12,lr-pc

8000d148 <spint2>:
8000d148:	d7 c2       	popm	r8-r12,lr
8000d14a:	d6 03       	rete

8000d14c <_int3>:
8000d14c:	d7 c1       	pushm	r8-r12,lr
8000d14e:	30 3c       	mov	r12,3
8000d150:	f0 1f 00 05 	mcall	8000d164 <spint3+0x4>
8000d154:	58 0c       	cp.w	r12,0
8000d156:	f8 0f 17 10 	movne	pc,r12
8000d15a:	c0 30       	breq	8000d160 <spint3>
8000d15c:	1a dc       	st.w	--sp,r12
8000d15e:	df c2       	popm	r8-r12,lr-pc

8000d160 <spint3>:
8000d160:	d7 c2       	popm	r8-r12,lr
8000d162:	d6 03       	rete
8000d164:	80 00       	ld.sh	r0,r0[0x0]
8000d166:	16 c8       	st.b	r11++,r8
	...
